
Marsfinder_FW.elf:     file format elf32-littlearm
Marsfinder_FW.elf
architecture: arm, flags 0x00000112:
EXEC_P, HAS_SYMS, D_PAGED
start address 0x00000191

Program Header:
    LOAD off    0x00008000 vaddr 0x00000000 paddr 0x60000000 align 2**15
         filesz 0x00005710 memsz 0x00005710 flags r-x
    LOAD off    0x00010000 vaddr 0x20000000 paddr 0x60005710 align 2**15
         filesz 0x000000f0 memsz 0x000006a0 flags rw-
    LOAD off    0x000106a0 vaddr 0x200006a0 paddr 0x60005800 align 2**15
         filesz 0x00000000 memsz 0x0000e960 flags rw-
    LOAD off    0x00017000 vaddr 0x2000f000 paddr 0x60005800 align 2**15
         filesz 0x00000000 memsz 0x00001000 flags rw-
private flags = 5000202: [Version5 EABI] [soft-float ABI] [has entry point]

Sections:
Idx Name          Size      VMA       LMA       File off  Algn  Flags
  0 .vector_table 00000190  00000000  60000000  00008000  2**4  CONTENTS, ALLOC, LOAD, READONLY, CODE
  1 .boot_code    000003e0  00000190  60000190  00008190  2**4  CONTENTS, ALLOC, LOAD, READONLY, CODE
  2 .text         000051a0  00000570  60000570  00008570  2**4  CONTENTS, ALLOC, LOAD, READONLY, CODE
  3 .data         000000f0  20000000  60005710  00010000  2**4  CONTENTS, ALLOC, LOAD, DATA
  4 .bss          000005b0  200000f0  60005800  000100f0  2**4  ALLOC
  5 .heap         0000e960  200006a0  60005800  000106a0  2**4  ALLOC
  6 .stack        00001000  2000f000  60005800  00017000  2**4  ALLOC
  7 .debug_aranges 00000a68  00000000  00000000  000100f0  2**3  CONTENTS, READONLY, DEBUGGING
  8 .debug_info   0000c4c8  00000000  00000000  00010b58  2**0  CONTENTS, READONLY, DEBUGGING
  9 .debug_abbrev 00001d9c  00000000  00000000  0001d020  2**0  CONTENTS, READONLY, DEBUGGING
 10 .debug_line   00009a6c  00000000  00000000  0001edbc  2**0  CONTENTS, READONLY, DEBUGGING
 11 .debug_frame  00002804  00000000  00000000  00028828  2**2  CONTENTS, READONLY, DEBUGGING
 12 .debug_str    0003ee24  00000000  00000000  0002b02c  2**0  CONTENTS, READONLY, DEBUGGING
 13 .ARM.attributes 00000029  00000000  00000000  00069e50  2**0  CONTENTS, READONLY
 14 .debug_ranges 000008a0  00000000  00000000  00069e79  2**0  CONTENTS, READONLY, DEBUGGING
 15 .debug_macro  000088be  00000000  00000000  0006a719  2**0  CONTENTS, READONLY, DEBUGGING
 16 .comment      00000070  00000000  00000000  00072fd7  2**0  CONTENTS, READONLY
SYMBOL TABLE:
00000000 l    d  .vector_table	00000000 .vector_table
00000190 l    d  .boot_code	00000000 .boot_code
00000570 l    d  .text	00000000 .text
20000000 l    d  .data	00000000 .data
200000f0 l    d  .bss	00000000 .bss
200006a0 l    d  .heap	00000000 .heap
2000f000 l    d  .stack	00000000 .stack
00000000 l    d  .debug_aranges	00000000 .debug_aranges
00000000 l    d  .debug_info	00000000 .debug_info
00000000 l    d  .debug_abbrev	00000000 .debug_abbrev
00000000 l    d  .debug_line	00000000 .debug_line
00000000 l    d  .debug_frame	00000000 .debug_frame
00000000 l    d  .debug_str	00000000 .debug_str
00000000 l    d  .ARM.attributes	00000000 .ARM.attributes
00000000 l    d  .debug_ranges	00000000 .debug_ranges
00000000 l    d  .debug_macro	00000000 .debug_macro
00000000 l    d  .comment	00000000 .comment
00000000 l    df *ABS*	00000000 ./CMSIS/startup_gcc/startup_m2sxxx.o
00000190 l       .boot_code	00000000 _start
00000456 l       .boot_code	00000000 SF2_MDDR_MODE_CR
00000452 l       .boot_code	00000000 SF2_EDAC_CR
000001b0 l       .boot_code	00000000 check_esram_edac
000001b8 l       .boot_code	00000000 check_stack_init
000001ca l       .boot_code	00000000 system_init
000001be l       .boot_code	00000000 clear_stack
00000436 l       .boot_code	00000000 RAM_INIT_PATTERN
00000308 l       .boot_code	00000000 fill_memory
000001f2 l       .boot_code	00000000 remap_memory
0000044a l       .boot_code	00000000 SF2_DDRB_NB_SIZE
0000044e l       .boot_code	00000000 SF2_DDRB_CR
0000020e l       .boot_code	00000000 check_esram_remap
0000043e l       .boot_code	00000000 SF2_ESRAM_CR
00000446 l       .boot_code	00000000 SF2_ENVM_REMAP_CR
00000442 l       .boot_code	00000000 SF2_DDR_CR
00000224 l       .boot_code	00000000 check_mirrored_nvm
0000023e l       .boot_code	00000000 copy_data
00000298 l       .boot_code	00000000 block_copy
00000234 l       .boot_code	00000000 copy_text
00000248 l       .boot_code	00000000 clear_bss
00000254 l       .boot_code	00000000 clear_heap
00000280 l       .boot_code	00000000 call_glob_ctor
0000043a l       .boot_code	00000000 HEAP_INIT_PATTERN
0000028a l       .boot_code	00000000 branch_to_main
00000296 l       .boot_code	00000000 ExitLoop
000002ec l       .boot_code	00000000 block_copy_exit
000002a8 l       .boot_code	00000000 block_copy_address_ok
000002b8 l       .boot_code	00000000 block_copy_continue
000002b2 l       .boot_code	00000000 block_copy_byte_copy
000002f0 l       .boot_code	00000000 block_copy_byte
000002c2 l       .boot_code	00000000 block_copy_loop
000002da l       .boot_code	00000000 copy_spare_bytes
000002f6 l       .boot_code	00000000 block_copy_byte_loop
0000037c l       .boot_code	00000000 fill_memory_exit
0000033e l       .boot_code	00000000 fill_memory_end_start
0000032a l       .boot_code	00000000 fill_memory_spare_bytes_start
00000362 l       .boot_code	00000000 fill_memory_spare_bytes_end
00000354 l       .boot_code	00000000 fill_memory_loop
00000366 l       .boot_code	00000000 fill_memory_spare_end_loop
00000000 l    df *ABS*	00000000 system_m2sxxx.c
0000051c l     F .boot_code	00000020 silicon_workarounds
000004d4 l     F .boot_code	00000048 get_silicon_revision
0000053c l     F .boot_code	00000030 m2s050_rev_a_workarounds
00000000 l    df *ABS*	00000000 crtstuff.c
000056e4 l     O .text	00000000 __EH_FRAME_BEGIN__
20000000 l     O .data	00000000 __JCR_LIST__
00000570 l     F .text	00000000 __do_global_dtors_aux
200000f0 l       .bss	00000000 completed.8122
00005700 l     O .text	00000000 __do_global_dtors_aux_fini_array_entry
00000594 l     F .text	00000000 frame_dummy
200000f4 l       .bss	00000000 object.8127
000056fc l     O .text	00000000 __frame_dummy_init_array_entry
00000000 l    df *ABS*	00000000 ./hal/CortexM3/GNU/hal.o
00000000 l    df *ABS*	00000000 ./hal/CortexM3/GNU/hw_reg_access.o
00000000 l    df *ABS*	00000000 mss_comblk.c
2000010c l     O .bss	00000001 g_comblk_cmd_opcode
20000110 l     O .bss	00000004 g_comblk_p_cmd
20000114 l     O .bss	00000002 g_comblk_cmd_size
20000118 l     O .bss	00000004 g_comblk_p_data
2000011c l     O .bss	00000004 g_comblk_data_size
20000120 l     O .bss	00000004 g_comblk_p_response
20000124 l     O .bss	00000002 g_comblk_response_size
20000126 l     O .bss	00000002 g_comblk_response_idx
20000128 l     O .bss	00000004 g_comblk_completion_handler
2000012c l     O .bss	00000004 g_comblk_page_handler
20000130 l     O .bss	00000001 g_request_in_progress
20000131 l     O .bss	00000001 g_comblk_state
20000134 l     O .bss	00000004 g_async_event_handler
00000aa8 l     F .text	00000048 abort_current_cmd
00000af0 l     F .text	00000064 fill_tx_fifo
00000864 l     F .text	00000204 handle_rx_okay_irq
000006b4 l     F .text	000001b0 handle_tx_okay_irq
00000a68 l     F .text	00000040 complete_request
00000b54 l     F .text	00000028 process_sys_ctrl_command
00000000 l    df *ABS*	00000000 mss_hpdma.c
20000138 l     O .bss	00000018 g_transfer
20000150 l     O .bss	00000004 g_hpdma_end_desc
20000154 l     O .bss	00000004 g_hpdma_current_desc
00000b7c l     F .text	0000014c start_transfer
00000000 l    df *ABS*	00000000 core_uart_apb.c
00000000 l    df *ABS*	00000000 core_i2c.c
000013f8 l     F .text	00000028 enable_slave_if_required
00000000 l    df *ABS*	00000000 i2c_interrupt.c
00001d84 l     F .text	00000030 NVIC_EnableIRQ
00001db4 l     F .text	00000034 NVIC_DisableIRQ
00000000 l    df *ABS*	00000000 bluetooth.c
00000000 l    df *ABS*	00000000 uart.c
00000000 l    df *ABS*	00000000 time.c
00001e68 l     F .text	00000014 MSS_TIM1_get_current_value
00000000 l    df *ABS*	00000000 param_holder.c
00001f30 l     F .text	00000060 crc_accumulate
00001f90 l     F .text	0000001a crc_init
00001fac l     F .text	00000040 crc_calculate
00001fec l     F .text	00000034 crc_accumulate_buffer
00002020 l     F .text	00000028 mavlink_get_channel_status
20000164 l     O .bss	00000030 m_mavlink_status.5220
00002048 l     F .text	000000d8 mavlink_finalize_message_chan
00002120 l     F .text	0000003c mavlink_finalize_message
0000215c l     F .text	0000005c mavlink_msg_to_send_buffer
000021b8 l     F .text	0000002e mav_array_memcpy
000021e8 l     F .text	00000072 mavlink_msg_param_value_pack
20000160 l     O .bss	00000002 m_parameter_i
00000000 l    df *ABS*	00000000 mpu6050.c
20000194 l     O .bss	00000001 cur_gyro_range
20000195 l     O .bss	00000001 cur_accel_range
20000196 l     O .bss	00000002 c_ax
20000198 l     O .bss	00000002 c_ay
2000019a l     O .bss	00000002 c_az
2000019c l     O .bss	00000002 c_gx
2000019e l     O .bss	00000002 c_gy
200001a0 l     O .bss	00000002 c_gz
200001a2 l     O .bss	00000002 c_t
00000000 l    df *ABS*	00000000 system.c
00000000 l    df *ABS*	00000000 i2c.c
00000000 l    df *ABS*	00000000 MadgwickAHRS.c
00000000 l    df *ABS*	00000000 sys_helper.c
00000000 l    df *ABS*	00000000 main.c
000034cc l     F .text	00000030 NVIC_EnableIRQ
000034fc l     F .text	00000034 NVIC_DisableIRQ
00003530 l     F .text	00000034 NVIC_ClearPendingIRQ
00003564 l     F .text	00000054 NVIC_SetPriority
000035b8 l     F .text	00000044 SysTick_Config
000035fc l     F .text	00000058 MSS_TIM1_init
00003654 l     F .text	00000018 MSS_TIM1_start
0000366c l     F .text	0000001a MSS_TIM1_load_background
00003688 l     F .text	00000018 MSS_TIM1_enable_irq
000036a0 l     F .text	00000018 MSS_TIM1_clear_irq
000036b8 l     F .text	00000060 crc_accumulate
00003718 l     F .text	0000001a crc_init
00003734 l     F .text	00000040 crc_calculate
00003774 l     F .text	00000034 crc_accumulate_buffer
000037a8 l     F .text	00000028 mavlink_get_channel_status
200001b0 l     O .bss	00000030 m_mavlink_status.7452
000037d0 l     F .text	00000028 mavlink_get_channel_buffer
200001e0 l     O .bss	00000440 m_mavlink_buffer.7456
000037f8 l     F .text	000000d8 mavlink_finalize_message_chan
000038d0 l     F .text	0000003c mavlink_finalize_message
0000390c l     F .text	0000005c mavlink_msg_to_send_buffer
00003968 l     F .text	00000016 mavlink_start_checksum
00003980 l     F .text	0000001e mavlink_update_checksum
000039a0 l     F .text	000002b0 mavlink_frame_char_buffer
000055e4 l     O .text	00000100 mavlink_message_crcs.7504
00003c50 l     F .text	0000003e mavlink_frame_char
00003c90 l     F .text	0000007e mavlink_parse_char
00003d10 l     F .text	0000003c is_sys_comp_match
00003d4c l     F .text	00000036 mavlink_send_msg
00003d84 l     F .text	0000002e mav_array_memcpy
00003db4 l     F .text	0000006c mavlink_msg_heartbeat_pack
00003e20 l     F .text	00000094 mavlink_msg_sys_status_pack
00003eb4 l     F .text	00000038 mavlink_msg_param_request_read_decode
00003eec l     F .text	00000072 mavlink_msg_param_value_pack
00003f60 l     F .text	00000038 mavlink_msg_param_set_decode
00003f98 l     F .text	0000006a mavlink_msg_attitude_quaternion_pack
00004004 l     F .text	00000092 mavlink_msg_highres_imu_pack
00004098 l     F .text	000000a8 mavlink_msg_autopilot_version_pack
00000000 l    df *ABS*	00000000 _arm_addsubdf3.o
00000000 l    df *ABS*	00000000 _arm_muldivdf3.o
00000000 l    df *ABS*	00000000 _arm_truncdfsf2.o
00000000 l    df *ABS*	00000000 _arm_addsubsf3.o
00000000 l    df *ABS*	00000000 _arm_muldivsf3.o
00000000 l    df *ABS*	00000000 _arm_cmpsf2.o
00000000 l    df *ABS*	00000000 init.c
00000000 l    df *ABS*	00000000 memcpy.c
00000000 l    df *ABS*	00000000 memset.c
00000000 l    df *ABS*	00000000 lib_a-strcmp.o
00000000 l    df *ABS*	00000000 c:/microsemi_11.06/softconsole_v4.0/arm-none-eabi-gcc/bin/../lib/gcc/arm-none-eabi/4.9.3/armv7-m/crti.o
00000000 l    df *ABS*	00000000 c:/microsemi_11.06/softconsole_v4.0/arm-none-eabi-gcc/bin/../lib/gcc/arm-none-eabi/4.9.3/armv7-m/crtn.o
00000000 l    df *ABS*	00000000 crtstuff.c
20000000 l     O .data	00000000 __JCR_END__
00000000 l    df *ABS*	00000000 cortex_nvic.c
00000000 l    df *ABS*	00000000 sys_config.c
00000000 l    df *ABS*	00000000 mss_sys_services.c
00000000 l    df *ABS*	00000000 mss_nvm.c
00000000 l    df *ABS*	00000000 hmc.c
00000000 l    df *ABS*	00000000 newlib_stubs.c
00000000 l    df *ABS*	00000000 errno.c
00000000 l    df *ABS*	00000000 exit.c
00000000 l    df *ABS*	00000000 w_sqrt.c
00000000 l    df *ABS*	00000000 e_sqrt.c
00000000 l    df *ABS*	00000000 s_fpclassify.c
00000000 l    df *ABS*	00000000 s_matherr.c
00000000 l    df *ABS*	00000000 
00005710 l       .text	00000000 __exidx_end
00010000 l       *ABS*	00000000 RAM_SIZE
00000000 l       *ABS*	00000000 __DYNAMIC
00005710 l       .text	00000000 __exidx_start
00001000 l       *ABS*	00000000 MAIN_STACK_SIZE
00000000 l       *UND*	00000000 __libc_fini_array
00001000 l       *ABS*	00000000 MIN_SIZE_HEAP
00000000 l       *UND*	00000000 __sf_fake_stderr
00000000 l       *UND*	00000000 __call_exitprocs
00000000 l       *UND*	00000000 software_init_hook
20000000 l       *ABS*	00000000 RAM_START_ADDRESS
00000000 l       *UND*	00000000 __sf_fake_stdin
20010000 l       *ABS*	00000000 __main_stack_start
00005700 l       .text	00000000 __init_array_end
00000000 l       *UND*	00000000 hardware_init_hook
00000000 l       *UND*	00000000 atexit
000056fc l       .text	00000000 __preinit_array_end
00000000 l       *UND*	00000000 __stack
200006a0 l       .bss	00000000 _end
00000000 l       *UND*	00000000 __sf_fake_stdout
000056fc l       .text	00000000 __init_array_start
000056fc l       .text	00000000 __preinit_array_start
00002354 g     F .text	00000020 MPU6050_setClockSource
0000038a  w    F .boot_code	00000000 DebugMon_Handler
00002374 g     F .text	0000002c MPU6050_setFullScaleGyroRange
00004a88 g     F .text	0000005a .hidden __floatdidf
00002bf4 g     F .text	000000bc i2c_writeBit
00000398  w    F .boot_code	00000000 I2C0_IRQHandler
000003ec  w    F .boot_code	00000000 FabricIrq12_IRQHandler
60000000 g       *ABS*	00000000 __vector_table_load
00001050 g     F .text	000000c0 UART_get_rx
00000380  w    F .boot_code	00000000 HardFault_Handler
60005710 g       *ABS*	00000000 __data_load
0000532c g     F .text	00000136 .hidden __divsf3
000043c4 g     F .text	00000014 SysTick_Handler
00003410 g     F .text	00000078 invSqrt
0000065e g     F .text	00000000 HW_get_8bit_reg_field
20000004 g     O .data	000000dc params
60005710 g       *ABS*	00000000 _sidata
0000038c  w    F .boot_code	00000000 PendSV_Handler
0000037e  w    F .boot_code	00000000 NMI_Handler
0000039e  w    F .boot_code	00000000 I2C1_IRQHandler
000003a6  w    F .boot_code	00000000 UART1_IRQHandler
000003fe  w    F .boot_code	00000000 GPIO5_IRQHandler
00002a48 g     F .text	00000030 mavlink_sys_update
20000620 g     O .bss	00000008 g_bt
00005710 g       .text	00000000 _etext
00002b18 g     F .text	000000dc i2c_writeBits
200000f0 g       .bss	00000000 _sbss
000005da g     F .text	00000000 HW_set_32bit_reg
000003be  w    F .boot_code	00000000 PLL_LockLost_IRQHandler
00004fb4 g     F .text	00000160 .hidden __aeabi_fadd
00000570 g       .text	00000000 __text_start
00004fb0 g     F .text	00000164 .hidden __subsf3
00000430  w    F .boot_code	00000000 GPIO30_IRQHandler
000005cc g     F .text	00000000 HAL_disable_interrupts
2000015c g     O .bss	00000004 msec
000003a4  w    F .boot_code	00000000 UART0_IRQHandler
000003cc  w    F .boot_code	00000000 MDDR_IOCalib_IRQHandler
0000559c g     F .text	00000016 memcpy
0000040c  w    F .boot_code	00000000 GPIO12_IRQHandler
0000553c g     F .text	00000012 .hidden __aeabi_fcmpgt
00004a18 g     F .text	00000022 .hidden __floatsidf
0000042c  w    F .boot_code	00000000 GPIO28_IRQHandler
0000225c g     F .text	00000084 param_send
00000424  w    F .boot_code	00000000 GPIO24_IRQHandler
0000039a  w    F .boot_code	00000000 I2C0_SMBAlert_IRQHandler
00000190 g       .vector_table	00000000 _evector_table
000005d4 g     F .text	00000000 HAL_restore_interrupts
200001a8 g     O .bss	00000004 q2
00000642 g     F .text	00000000 HW_set_8bit_reg_field
0000511c g     F .text	0000001c .hidden __aeabi_i2f
00000386  w    F .boot_code	00000000 UsageFault_Handler
000003b2  w    F .boot_code	00000000 ENVM0_IRQHandler
0000546c g     F .text	00000066 .hidden __lesf2
00000400  w    F .boot_code	00000000 GPIO6_IRQHandler
200000f0 g       .bss	00000000 __bss_start__
000049f8 g     F .text	0000001e .hidden __aeabi_ui2d
20000000 g       .data	00000000 _sdata
00000396  w    F .boot_code	00000000 SPI1_IRQHandler
00004774 g     F .text	00000000 .hidden __aeabi_drsub
00000426  w    F .boot_code	00000000 GPIO25_IRQHandler
000003f2  w    F .boot_code	00000000 FabricIrq15_IRQHandler
000003f6  w    F .boot_code	00000000 GPIO1_IRQHandler
000003b0  w    F .boot_code	00000000 CAN_IRQHandler
000023a0 g     F .text	0000002c MPU6050_setFullScaleAccelRange
00004a3c g     F .text	0000003a .hidden __extendsfdf2
00004d38 g     F .text	000001d0 .hidden __aeabi_ddiv
000003e8  w    F .boot_code	00000000 FabricIrq10_IRQHandler
00001420 g     F .text	00000964 I2C_isr
00004780 g     F .text	00000276 .hidden __adddf3
00005474 g     F .text	0000005e .hidden __nesf2
2000062c g     O .bss	0000006c g_core_i2c
00000cc8 g     F .text	000000f4 HPDMA_Complete_IRQHandler
00000416  w    F .boot_code	00000000 GPIO17_IRQHandler
00004ae4 g     F .text	00000254 .hidden __aeabi_dmul
20000628 g     O .bss	00000001 mavlink_sys_state
00005550 g     F .text	0000004c __libc_init_array
00000406  w    F .boot_code	00000000 GPIO9_IRQHandler
000003c0  w    F .boot_code	00000000 CommSwitchError_IRQHandler
000049f8 g     F .text	0000001e .hidden __floatunsidf
00000422  w    F .boot_code	00000000 GPIO23_IRQHandler
000056e4 g     F .text	00000000 _init
0000063a g     F .text	00000000 HW_set_8bit_reg
0000063e g     F .text	00000000 HW_get_8bit_reg
00004f08 g     F .text	0000009e .hidden __aeabi_d2f
0000042e  w    F .boot_code	00000000 GPIO29_IRQHandler
000003d8  w    F .boot_code	00000000 FabricIrq2_IRQHandler
00004fb0 g     F .text	00000164 .hidden __aeabi_fsub
200006a0 g       .bss	00000000 _ebss
00000418  w    F .boot_code	00000000 GPIO18_IRQHandler
000022f8 g     F .text	0000002c param_queued_send_routine
00000190 g     F .boot_code	00000000 Reset_Handler
00000000 g       .vector_table	00000000 __vector_table_vma_base_address
00005528 g     F .text	00000012 .hidden __aeabi_fcmpge
000003a0  w    F .boot_code	00000000 I2C1_SMBAlert_IRQHandler
0000040a  w    F .boot_code	00000000 GPIO11_IRQHandler
00000dbc g     F .text	00000100 HPDMA_Error_IRQHandler
00005148 g     F .text	0000007c .hidden __floatdisf
000005e2 g     F .text	00000000 HW_set_32bit_reg_field
00005464 g     F .text	0000006e .hidden __gtsf2
00000000 g       *ABS*	00000000 __smartfusion2_memory_remap
00004780 g     F .text	00000276 .hidden __aeabi_dadd
00005514 g     F .text	00000012 .hidden __aeabi_fcmple
00000390  w    F .boot_code	00000000 WdogWakeup_IRQHandler
00004a78 g     F .text	0000006a .hidden __aeabi_ul2d
00000000  w      *UND*	00000000 __deregister_frame_info
00002ad4 g     F .text	00000044 i2c_writeBytes
000026a8 g     F .text	000001d0 MPU6050_getData
000003ba  w    F .boot_code	00000000 USB_DMA_IRQHandler
000003ae  w    F .boot_code	00000000 Timer2_IRQHandler
000003f8  w    F .boot_code	00000000 GPIO2_IRQHandler
00001e54 g     F .text	00000014 uart_init
200006a0 g       .bss	00000000 __bss_end__
00000fd0 g     F .text	0000007e UART_send
0000477c g     F .text	0000027a .hidden __aeabi_dsub
000003ea  w    F .boot_code	00000000 FabricIrq11_IRQHandler
200006a0 g       .bss	00000000 __end
00004a78 g     F .text	0000006a .hidden __floatundidf
00002878 g     F .text	000001d0 MPU6050_getScaledData
0000511c g     F .text	0000001c .hidden __floatsisf
000043d8 g     F .text	00000010 FabricIrq0_IRQHandler
000003bc  w    F .boot_code	00000000 PLL_Lock_IRQHandler
00002524 g     F .text	00000182 MPU6050_getRawData
200001ac g     O .bss	00000004 q3
00001ee0 g     F .text	00000050 usec_service_routine
000003a8  w    F .boot_code	00000000 EthernetMAC_IRQHandler
00005474 g     F .text	0000005e .hidden __eqsf2
200001a4 g     O .bss	00000004 q1
000005fe g     F .text	00000000 HW_get_32bit_reg_field
0000532c g     F .text	00000136 .hidden __aeabi_fdiv
00004a18 g     F .text	00000022 .hidden __aeabi_i2d
200000e0 g     O .data	00000002 mavlink_system
000003c4  w    F .boot_code	00000000 DDR_IRQHandler
00000001 g       *ABS*	00000000 __mirrored_nvm
000003b8  w    F .boot_code	00000000 USB_IRQHandler
00005138 g     F .text	0000008c .hidden __floatundisf
00004d38 g     F .text	000001d0 .hidden __divdf3
00005114 g     F .text	00000024 .hidden __aeabi_ui2f
00004440 g     F .text	00000334 Timer1_IRQHandler
00001e7c g     F .text	00000064 usec
00004ae4 g     F .text	00000254 .hidden __muldf3
00000000 g       .vector_table	00000000 __vector_table_start
000003fa  w    F .boot_code	00000000 GPIO3_IRQHandler
000003da  w    F .boot_code	00000000 FabricIrq3_IRQHandler
00005474 g     F .text	0000005e .hidden __cmpsf2
000055b2 g     F .text	00000010 memset
00000382  w    F .boot_code	00000000 MemManage_Handler
00004340 g     F .text	00000084 main
000022e0 g     F .text	00000018 param_queued_send_start
00005148 g     F .text	0000007c .hidden __aeabi_l2f
0000546c g     F .text	00000066 .hidden __ltsf2
00000388  w    F .boot_code	00000000 SVC_Handler
00002a90 g     F .text	00000044 i2c_readBytes
000023e8 g     F .text	0000001c MPU6050_setBypassMode
00004f08 g     F .text	0000009e .hidden __truncdfsf2
00001de8 g     F .text	00000014 I2C_enable_irq
00002424 g     F .text	00000100 MPU6050_calibration
60000570 g       *ABS*	00000000 __text_load
200006a0 g       .heap	00000000 __heap_start__
00004a88 g     F .text	0000005a .hidden __aeabi_l2d
00000402  w    F .boot_code	00000000 GPIO7_IRQHandler
00005138 g     F .text	0000008c .hidden __aeabi_ul2f
0000060e g     F .text	00000000 HW_get_16bit_reg
000054dc g     F .text	00000010 .hidden __aeabi_cfcmple
000051c4 g     F .text	00000168 .hidden __mulsf3
000012a4 g     F .text	000000c8 I2C_read
000055c2 g     F .text	00000014 strcmp
0000040e  w    F .boot_code	00000000 GPIO13_IRQHandler
000004b4 g     F .boot_code	00000020 SystemInit
00002cb0 g     F .text	00000760 MadgwickAHRSupdateIMU
00003488 g     F .text	00000044 delay
000056f0 g     F .text	00000000 _fini
000003e2  w    F .boot_code	00000000 FabricIrq7_IRQHandler
00000410  w    F .boot_code	00000000 GPIO14_IRQHandler
20000158 g     O .bss	00000004 sec
00005464 g     F .text	0000006e .hidden __gesf2
000003d2  w    F .boot_code	00000000 FIC64_IRQHandler
00000612 g     F .text	00000000 HW_set_16bit_reg_field
00002404 g     F .text	00000020 MPU6050_setDLPFMode
00004fa8 g     F .text	0000016c .hidden __aeabi_frsub
00000434  w    F .boot_code	00000000 mscc_post_hw_cfg_init
000003b4  w    F .boot_code	00000000 ENVM1_IRQHandler
00001e10 g     F .text	00000024 BT_init
000054ec g     F .text	00000012 .hidden __aeabi_fcmpeq
00004140 g     F .text	00000200 handle_mavlink_message
000003c2  w    F .boot_code	00000000 CacheError_IRQHandler
000051c4 g     F .text	00000168 .hidden __aeabi_fmul
200000e4 g     O .data	00000004 beta
00002a78 g     F .text	00000018 i2c_init
000054d4 g     F .text	00000018 .hidden __aeabi_cfrcmple
000003e0  w    F .boot_code	00000000 FabricIrq6_IRQHandler
0000041a  w    F .boot_code	00000000 GPIO19_IRQHandler
00000404  w    F .boot_code	00000000 GPIO8_IRQHandler
000043e8 g     F .text	00000054 setup
00002324 g     F .text	0000002e MPU6050_init
00001110 g     F .text	000000cc I2C_init
00005500 g     F .text	00000012 .hidden __aeabi_fcmplt
000003e6  w    F .boot_code	00000000 FabricIrq9_IRQHandler
00000428  w    F .boot_code	00000000 GPIO26_IRQHandler
00000420  w    F .boot_code	00000000 GPIO22_IRQHandler
20010000 g       .stack	00000000 _estack
2000f000 g       .heap	00000000 _eheap
0000136c g     F .text	00000034 I2C_wait_complete
200000e8 g     O .data	00000004 q0
00000408  w    F .boot_code	00000000 GPIO10_IRQHandler
0000039c  w    F .boot_code	00000000 I2C0_SMBus_IRQHandler
200000f0 g       .data	00000000 _edata
00000394  w    F .boot_code	00000000 SPI0_IRQHandler
0000041c  w    F .boot_code	00000000 GPIO20_IRQHandler
20000629 g     O .bss	00000001 mavlink_sys_mode
000003d6  w    F .boot_code	00000000 FabricIrq1_IRQHandler
000003dc  w    F .boot_code	00000000 FabricIrq4_IRQHandler
000003f4  w    F .boot_code	00000000 GPIO0_IRQHandler
000003e4  w    F .boot_code	00000000 FabricIrq8_IRQHandler
00001dfc g     F .text	00000014 I2C_disable_irq
00000000 g     O .vector_table	00000000 g_pfnVectors
00005114 g     F .text	00000024 .hidden __floatunsisf
000054dc g     F .text	00000010 .hidden __aeabi_cfcmpeq
000003aa  w    F .boot_code	00000000 DMA_IRQHandler
00000ebc g     F .text	00000114 UART_init
000003ee  w    F .boot_code	00000000 FabricIrq13_IRQHandler
000005de g     F .text	00000000 HW_get_32bit_reg
000023cc g     F .text	0000001c MPU6050_setSleepEnabled
0000060a g     F .text	00000000 HW_set_16bit_reg
000003ce  w    F .boot_code	00000000 FAB_PLL_Lock_IRQHandler
00000384  w    F .boot_code	00000000 BusFault_Handler
00000392  w    F .boot_code	00000000 RTC_Wakeup_IRQHandler
00004a3c g     F .text	0000003a .hidden __aeabi_f2d
000013a0 g     F .text	00000058 I2C_system_tick
20000000 g       .data	00000000 __data_start
0000041e  w    F .boot_code	00000000 GPIO21_IRQHandler
00000432  w    F .boot_code	00000000 GPIO31_IRQHandler
000003de  w    F .boot_code	00000000 FabricIrq5_IRQHandler
00000000  w      *UND*	00000000 _Jv_RegisterClasses
2000f000 g       .stack	00000000 __stack_start__
0000477c g     F .text	0000027a .hidden __subdf3
000003ca  w    F .boot_code	00000000 ECC_Error_IRQHandler
00001e34 g     F .text	00000020 BT_send
0000066c g     F .text	00000048 ComBlk_IRQHandler
00000000  w      *UND*	00000000 __register_frame_info
0000062e g     F .text	00000000 HW_get_16bit_reg_field
000003d0  w    F .boot_code	00000000 FAB_PLL_LockLost_IRQHandler
000003f0  w    F .boot_code	00000000 FabricIrq14_IRQHandler
00004fb4 g     F .text	00000160 .hidden __addsf3
000003a2  w    F .boot_code	00000000 I2C1_SMBus_IRQHandler
00000414  w    F .boot_code	00000000 GPIO16_IRQHandler
000003fc  w    F .boot_code	00000000 GPIO4_IRQHandler
000011dc g     F .text	000000c8 I2C_write
0000042a  w    F .boot_code	00000000 GPIO27_IRQHandler
00000412  w    F .boot_code	00000000 GPIO15_IRQHandler



Disassembly of section .vector_table:

00000000 <__vector_table_start>:
NVIC_init():
C:\Users\kruci_000\Desktop\University\SoC\Marsfinder\Marsfinder\Marsfinder_FW\Debug/../hal/CortexM3/cortex_nvic.c:83
void NVIC_set_priority
(
    uint32_t interrupt_number,
    uint8_t priority_level
)
{
   0:	20010000 	.word	0x20010000
   4:	00000191 	.word	0x00000191
   8:	0000037f 	.word	0x0000037f
C:\Users\kruci_000\Desktop\University\SoC\Marsfinder\Marsfinder\Marsfinder_FW\Debug/../hal/CortexM3/cortex_nvic.c:109
     *      - FabricIrq12_IRQn
     *      - FabricIrq13_IRQn
     *      - FabricIrq14_IRQn
     *      - FabricIrq15_IRQn
     */
    ASSERT(0);
   c:	00000381 	.word	0x00000381
NVIC_clear_interrupt():
C:\Users\kruci_000\Desktop\University\SoC\Marsfinder\Marsfinder\Marsfinder_FW\Debug/../hal/CortexM3/cortex_nvic.c:110
}
  10:	00000383 	.word	0x00000383
NVIC_set_handler():
  14:	00000385 	.word	0x00000385
MSS_SYS_get_device_certificate():
C:\Users\kruci_000\Desktop\University\SoC\Marsfinder\Marsfinder\Marsfinder_FW\Debug/../drivers/mss_sys_services/mss_sys_services.c:1073
    /*
     * Keep a copy of the initial eNVM configuration used before IAP was
     * initiated. The eNVM configuration will be restored, as part of the IAP
     * completion handler, when IAP completes.
     */
    g_initial_envm_cr = SYSREG->ENVM_CR;
  18:	00000387 	.word	0x00000387
	...
MSS_SYS_ecc_get_base_point():
C:\Users\kruci_000\Desktop\University\SoC\Marsfinder\Marsfinder\Marsfinder_FW\Debug/../drivers/mss_sys_services/mss_sys_services.c:1083
    
    /*
     * Keep track of the clocks configuration before issuing IAP command so
     * that it can be restored on completion of IAP service.
     */
    g_initial_mssddr_facc1_cr = SYSREG->MSSDDR_FACC1_CR;
  2c:	00000389 	.word	0x00000389
MSS_SYS_nrbg_reseed():
  30:	0000038b 	.word	0x0000038b
C:\Users\kruci_000\Desktop\University\SoC\Marsfinder\Marsfinder\Marsfinder_FW\Debug/../drivers/mss_sys_services/mss_sys_services.c:1089
    
    /*
     * Set the eNVM's frequency range to its maximum. This is required to ensure
     * successful eNVM programming on all devices.
     */
    SYSREG->ENVM_CR = (g_initial_envm_cr & ~NVM_FREQRNG_MASK) | NVM_FREQRNG_MAX;
  34:	00000000 	.word	0x00000000
  38:	0000038d 	.word	0x0000038d
  3c:	000043c5 	.word	0x000043c5
C:\Users\kruci_000\Desktop\University\SoC\Marsfinder\Marsfinder\Marsfinder_FW\Debug/../drivers/mss_sys_services/mss_sys_services.c:1092

    /* Select output of MUX 0, MUX 1 and MUX 2 during standby */
    SYSREG->MSSDDR_FACC2_CR = SYSREG->MSSDDR_FACC2_CR & ((uint32_t)(FACC_STANDBY_SEL << FACC_STANDBY_SHIFT) & FACC_STANDBY_SEL_MASK);
  40:	00000391 	.word	0x00000391
  44:	00000393 	.word	0x00000393
isp_sys_completion_handler():
  48:	00000395 	.word	0x00000395
MSS_SYS_init():
  4c:	00000397 	.word	0x00000397
write_ptr_value_into_array():
C:\Users\kruci_000\Desktop\University\SoC\Marsfinder\Marsfinder\Marsfinder_FW\Debug/../drivers/mss_sys_services/mss_sys_services.c:1095
    
    /* Enable the signal for the 50 MHz RC oscillator */
    SYSREG->MSSDDR_FACC2_CR = SYSREG->MSSDDR_FACC2_CR | ((uint32_t)(MSS_25_50MHZ_EN << MSS_25_50MHZ_EN_SHIFT) & MSS_25_50MHZ_EN_MASK);
  50:	00000399 	.word	0x00000399
write_array_into_ptr_value():
  54:	0000039b 	.word	0x0000039b
  58:	0000039d 	.word	0x0000039d
MSS_SYS_nrbg_instantiate():
  5c:	0000039f 	.word	0x0000039f
execute_service():
C:\Users\kruci_000\Desktop\University\SoC\Marsfinder\Marsfinder\Marsfinder_FW\Debug/../drivers/mss_sys_services/mss_sys_services.c:1098
    
    /* Enable the signal for the 1 MHz RC oscillator */
    SYSREG->MSSDDR_FACC2_CR = SYSREG->MSSDDR_FACC2_CR | ((uint32_t)(MSS_1MHZ_EN << MSS_1MHZ_EN_SHIFT) & MSS_1MHZ_EN_MASK);
  60:	000003a1 	.word	0x000003a1
MSS_SYS_challenge_response():
  64:	000003a3 	.word	0x000003a3
MSS_SYS_nrbg_generate():
  68:	000003a5 	.word	0x000003a5
MSS_SYS_key_tree():
  6c:	000003a7 	.word	0x000003a7
MSS_SYS_puf_delete_activation_code():
C:\Users\kruci_000\Desktop\University\SoC\Marsfinder\Marsfinder\Marsfinder_FW\Debug/../drivers/mss_sys_services/mss_sys_services.c:1104
    
    /*
     * There is no response for Program mode because the Cortex-M3 will
     * get reset on completion of the system service.
     */
    iap_prog_req[0] = IAP_PROGRAMMING_REQUEST_CMD;
  70:	000003a9 	.word	0x000003a9
C:\Users\kruci_000\Desktop\University\SoC\Marsfinder\Marsfinder\Marsfinder_FW\Debug/../drivers/mss_sys_services/mss_sys_services.c:1105
    iap_prog_req[1] = mode;
  74:	000003ab 	.word	0x000003ab
C:\Users\kruci_000\Desktop\University\SoC\Marsfinder\Marsfinder\Marsfinder_FW\Debug/../drivers/mss_sys_services/mss_sys_services.c:1107

    iap_prog_req[2] = (uint8_t)(bitstream_spi_addr);
  78:	00004441 	.word	0x00004441
C:\Users\kruci_000\Desktop\University\SoC\Marsfinder\Marsfinder\Marsfinder_FW\Debug/../drivers/mss_sys_services/mss_sys_services.c:1108
    iap_prog_req[3] = (uint8_t)(bitstream_spi_addr >> 8u);
  7c:	000003af 	.word	0x000003af
MSS_SYS_puf_get_random_seed():
  80:	000003b1 	.word	0x000003b1
MSS_SYS_puf_import_keycodes():
C:\Users\kruci_000\Desktop\University\SoC\Marsfinder\Marsfinder\Marsfinder_FW\Debug/../drivers/mss_sys_services/mss_sys_services.c:1109
    iap_prog_req[4] = (uint8_t)(bitstream_spi_addr >> 16u);
  84:	000003b3 	.word	0x000003b3
MSS_SYS_puf_delete_key():
  88:	000003b5 	.word	0x000003b5
MSS_SYS_256bit_aes():
C:\Users\kruci_000\Desktop\University\SoC\Marsfinder\Marsfinder\Marsfinder_FW\Debug/../drivers/mss_sys_services/mss_sys_services.c:1110
    iap_prog_req[5] = (uint8_t)(bitstream_spi_addr >> 24u);
  8c:	0000066d 	.word	0x0000066d
  90:	000003b9 	.word	0x000003b9
C:\Users\kruci_000\Desktop\University\SoC\Marsfinder\Marsfinder\Marsfinder_FW\Debug/../drivers/mss_sys_services/mss_sys_services.c:1112

    signal_request_start();
  94:	000003bb 	.word	0x000003bb
isp_page_read_handler():
C:\Users\kruci_000\Desktop\University\SoC\Marsfinder\Marsfinder\Marsfinder_FW\Debug/../drivers/mss_sys_services/mss_sys_services.c:1114
    
    MSS_COMBLK_send_cmd(iap_prog_req,                   /* p_cmd */
  98:	000003bd 	.word	0x000003bd
  9c:	000003bf 	.word	0x000003bf
MSS_SYS_clear_mesh_short():
  a0:	000003c1 	.word	0x000003c1
MSS_SYS_ecc_point_addition():
  a4:	000003c3 	.word	0x000003c3
MSS_SYS_check_digest():
  a8:	000003c5 	.word	0x000003c5
  ac:	00000cc9 	.word	0x00000cc9
MSS_SYS_puf_enroll_key():
  b0:	00000dbd 	.word	0x00000dbd
  b4:	000003cb 	.word	0x000003cb
C:\Users\kruci_000\Desktop\University\SoC\Marsfinder\Marsfinder\Marsfinder_FW\Debug/../drivers/mss_sys_services/mss_sys_services.c:1125
                        request_completion_handler);    /* completion_handler */
        
    /*
     * Handle case where service is not implemented/enabled in the device.
     */
    actual_response_length = wait_for_request_completion();
  b8:	000003cd 	.word	0x000003cd
  bc:	000003cf 	.word	0x000003cf
C:\Users\kruci_000\Desktop\University\SoC\Marsfinder\Marsfinder\Marsfinder_FW\Debug/../drivers/mss_sys_services/mss_sys_services.c:1127
    
    if((IAP_PROG_SERV_RESP_LENGTH == actual_response_length) &&
  c0:	000003d1 	.word	0x000003d1
C:\Users\kruci_000\Desktop\University\SoC\Marsfinder\Marsfinder\Marsfinder_FW\Debug/../drivers/mss_sys_services/mss_sys_services.c:1128 (discriminator 1)
       (IAP_PROGRAMMING_REQUEST_CMD == response[0]))
  c4:	000003d3 	.word	0x000003d3
MSS_SYS_start_isp():
C:\Users\kruci_000\Desktop\University\SoC\Marsfinder\Marsfinder\Marsfinder_FW\Debug/../drivers/mss_sys_services/mss_sys_services.c:1127 (discriminator 1)
    /*
     * Handle case where service is not implemented/enabled in the device.
     */
    actual_response_length = wait_for_request_completion();
    
    if((IAP_PROG_SERV_RESP_LENGTH == actual_response_length) &&
  c8:	000043d9 	.word	0x000043d9
C:\Users\kruci_000\Desktop\University\SoC\Marsfinder\Marsfinder\Marsfinder_FW\Debug/../drivers/mss_sys_services/mss_sys_services.c:1130
       (IAP_PROGRAMMING_REQUEST_CMD == response[0]))
    {
        status = response[1];
  cc:	000003d7 	.word	0x000003d7
C:\Users\kruci_000\Desktop\University\SoC\Marsfinder\Marsfinder\Marsfinder_FW\Debug/../drivers/mss_sys_services/mss_sys_services.c:1134
    }
    else
    {
        status = MSS_SYS_UNEXPECTED_ERROR;
  d0:	000003d9 	.word	0x000003d9
C:\Users\kruci_000\Desktop\University\SoC\Marsfinder\Marsfinder\Marsfinder_FW\Debug/../drivers/mss_sys_services/mss_sys_services.c:1138
    }
    
    /* Restore back to original value. */
    SYSREG->ENVM_CR = g_initial_envm_cr;
  d4:	000003db 	.word	0x000003db
asynchronous_event_handler():
  d8:	000003dd 	.word	0x000003dd
C:\Users\kruci_000\Desktop\University\SoC\Marsfinder\Marsfinder\Marsfinder_FW\Debug/../drivers/mss_sys_services/mss_sys_services.c:1139
    SYSREG->MSSDDR_FACC2_CR = g_initial_mssddr_facc2_cr;
  dc:	000003df 	.word	0x000003df
  e0:	000003e1 	.word	0x000003e1
  e4:	000003e3 	.word	0x000003e3
C:\Users\kruci_000\Desktop\University\SoC\Marsfinder\Marsfinder\Marsfinder_FW\Debug/../drivers/mss_sys_services/mss_sys_services.c:1140
    SYSREG->MSSDDR_FACC1_CR = g_initial_mssddr_facc1_cr;
  e8:	000003e5 	.word	0x000003e5
  ec:	000003e7 	.word	0x000003e7
C:\Users\kruci_000\Desktop\University\SoC\Marsfinder\Marsfinder\Marsfinder_FW\Debug/../drivers/mss_sys_services/mss_sys_services.c:1142

    return status;
  f0:	000003e9 	.word	0x000003e9
C:\Users\kruci_000\Desktop\University\SoC\Marsfinder\Marsfinder\Marsfinder_FW\Debug/../drivers/mss_sys_services/mss_sys_services.c:1143
}
  f4:	000003eb 	.word	0x000003eb
  f8:	000003ed 	.word	0x000003ed
  fc:	000003ef 	.word	0x000003ef
 100:	000003f1 	.word	0x000003f1
 104:	000003f3 	.word	0x000003f3
 108:	000003f5 	.word	0x000003f5
MSS_SYS_initiate_iap():
 10c:	000003f7 	.word	0x000003f7
write_nvm():
C:\Users\kruci_000\Desktop\University\SoC\Marsfinder\Marsfinder\Marsfinder_FW\Debug/../drivers/mss_nvm/mss_nvm.c:954
            }
            else
            {
                /* Check offset is in eNVM reserved memory - 16 pages reserved */
                if(((offset >= OO5_NVM_RSV_OFFSET) && (offset <= OO5_UPPER0_PROTECT_TOP_OFFSET)) || \
                    (((offset + length_minus_one) >= OO5_NVM_RSV_OFFSET) && \
 110:	000003f9 	.word	0x000003f9
 114:	000003fb 	.word	0x000003fb
C:\Users\kruci_000\Desktop\University\SoC\Marsfinder\Marsfinder\Marsfinder_FW\Debug/../drivers/mss_nvm/mss_nvm.c:960
                     (offset < OO5_NVM_RSV_OFFSET)))
                {
                    /* Status is protection error if offset or (offset + length) is 
                     * in reserved area of eNVM
                    */
                    status = NVM_PROTECTION_ERROR;
 118:	000003fd 	.word	0x000003fd
 11c:	000003ff 	.word	0x000003ff
C:\Users\kruci_000\Desktop\University\SoC\Marsfinder\Marsfinder\Marsfinder_FW\Debug/../drivers/mss_nvm/mss_nvm.c:967
                else
                {
                    /* Status is success if offset or (offset + length) is 
                     * in RW access of eNVM memory(not protected)
                     */
                    status = NVM_SUCCESS;
 120:	00000401 	.word	0x00000401
 124:	00000403 	.word	0x00000403
NVM_write():
C:\Users\kruci_000\Desktop\University\SoC\Marsfinder\Marsfinder\Marsfinder_FW\Debug/../drivers/mss_nvm/mss_nvm.c:973
                }
            }
        }
    }
    /* 010/025/050 device */
    else if((0xF802u == device_version) || (0xF803u == device_version) || (0xF804u == device_version))
 128:	00000405 	.word	0x00000405
 12c:	00000407 	.word	0x00000407
C:\Users\kruci_000\Desktop\University\SoC\Marsfinder\Marsfinder\Marsfinder_FW\Debug/../drivers/mss_nvm/mss_nvm.c:973 (discriminator 1)
 130:	00000409 	.word	0x00000409
 134:	0000040b 	.word	0x0000040b
 138:	0000040d 	.word	0x0000040d
C:\Users\kruci_000\Desktop\University\SoC\Marsfinder\Marsfinder\Marsfinder_FW\Debug/../drivers/mss_nvm/mss_nvm.c:973 (discriminator 2)
 13c:	0000040f 	.word	0x0000040f
 140:	00000411 	.word	0x00000411
C:\Users\kruci_000\Desktop\University\SoC\Marsfinder\Marsfinder\Marsfinder_FW\Debug/../drivers/mss_nvm/mss_nvm.c:975
    {    
        protection_flag = PROTECTION_OFF;
 144:	00000413 	.word	0x00000413
C:\Users\kruci_000\Desktop\University\SoC\Marsfinder\Marsfinder\Marsfinder_FW\Debug/../drivers/mss_nvm/mss_nvm.c:977
        /* Read eNVM user protect register for lower and upper area protection data */
        protection_data = (SYSREG->ENVM_PROTECT_USER & PROTECT_USER_MASK);
 148:	00000415 	.word	0x00000415
NVM_unlock():
 14c:	00000417 	.word	0x00000417
 150:	00000419 	.word	0x00000419
C:\Users\kruci_000\Desktop\University\SoC\Marsfinder\Marsfinder\Marsfinder_FW\Debug/../drivers/mss_nvm/mss_nvm.c:979
        /* Check whether the eNVM0 lower or upper area is protected or not */        
        if(PROTECT_USER_MASK != protection_data)
 154:	0000041b 	.word	0x0000041b
 158:	0000041d 	.word	0x0000041d
C:\Users\kruci_000\Desktop\University\SoC\Marsfinder\Marsfinder\Marsfinder_FW\Debug/../drivers/mss_nvm/mss_nvm.c:981
        {
            protection_user0 = (protection_data & 0x000Fu) & READ_WRITE_MASK;
 15c:	0000041f 	.word	0x0000041f
 160:	00000421 	.word	0x00000421
C:\Users\kruci_000\Desktop\University\SoC\Marsfinder\Marsfinder\Marsfinder_FW\Debug/../drivers/mss_nvm/mss_nvm.c:982
            protection_user1 = ((protection_data & 0x00F0u) >> 4u) & READ_WRITE_MASK;
 164:	00000423 	.word	0x00000423
 168:	00000425 	.word	0x00000425
 16c:	00000427 	.word	0x00000427
 170:	00000429 	.word	0x00000429
C:\Users\kruci_000\Desktop\University\SoC\Marsfinder\Marsfinder\Marsfinder_FW\Debug/../drivers/mss_nvm/mss_nvm.c:984
            /* Check NVM0 lower protected area is Read or Write or 'No R/W' access */
            if((READ_ONLY == protection_user0) ||(WRITE_ONLY == protection_user0) || \
 174:	0000042b 	.word	0x0000042b
C:\Users\kruci_000\Desktop\University\SoC\Marsfinder\Marsfinder\Marsfinder_FW\Debug/../drivers/mss_nvm/mss_nvm.c:984 (discriminator 1)
 178:	0000042d 	.word	0x0000042d
 17c:	0000042f 	.word	0x0000042f
C:\Users\kruci_000\Desktop\University\SoC\Marsfinder\Marsfinder\Marsfinder_FW\Debug/../drivers/mss_nvm/mss_nvm.c:984 (discriminator 2)
 180:	00000431 	.word	0x00000431
C:\Users\kruci_000\Desktop\University\SoC\Marsfinder\Marsfinder\Marsfinder_FW\Debug/../drivers/mss_nvm/mss_nvm.c:990
               (NO_READ_WRITE == protection_user0))
            {
                /* Check offset is in the range of lower protect memory if it is
                 * then memory protected.
                 */            
                if((offset > LOWER0_PROTECT_BOTTOM_OFFSET) && \
 184:	00000433 	.word	0x00000433
	...

Disassembly of section .boot_code:

00000190 <Reset_Handler>:
C:\Users\kruci_000\Desktop\University\SoC\Marsfinder\Marsfinder\Marsfinder_FW\Debug/../drivers/mss_nvm/mss_nvm.c:990 (discriminator 1)
 190:	f04f 0b00 	mov.w	fp, #0
C:\Users\kruci_000\Desktop\University\SoC\Marsfinder\Marsfinder\Marsfinder_FW\Debug/../drivers/mss_nvm/mss_nvm.c:993
                    (offset <= LOWER0_PROTECT_TOP_OFFSET))
                {
                    protection_flag = protection_check(protection_user0, length);
 194:	f8df 02be 	ldr.w	r0, [pc, #702]	; 456 <SF2_MDDR_MODE_CR>
 198:	6800      	ldr	r0, [r0, #0]
 19a:	f8df 12b6 	ldr.w	r1, [pc, #694]	; 452 <SF2_EDAC_CR>
C:\Users\kruci_000\Desktop\University\SoC\Marsfinder\Marsfinder\Marsfinder_FW\Debug/../drivers/mss_nvm/mss_nvm.c:997
                }
            }
            /* Check NVM0 upper protected area is Read or Write or 'No R/W' access */
            if((READ_ONLY == protection_user1) ||(WRITE_ONLY == protection_user1) || \
 19e:	6809      	ldr	r1, [r1, #0]
 1a0:	f001 0103 	and.w	r1, r1, #3
C:\Users\kruci_000\Desktop\University\SoC\Marsfinder\Marsfinder\Marsfinder_FW\Debug/../drivers/mss_nvm/mss_nvm.c:997 (discriminator 1)
 1a4:	f000 001c 	and.w	r0, r0, #28
C:\Users\kruci_000\Desktop\University\SoC\Marsfinder\Marsfinder\Marsfinder_FW\Debug/../drivers/mss_nvm/mss_nvm.c:997 (discriminator 2)
 1a8:	2814      	cmp	r0, #20
 1aa:	d101      	bne.n	1b0 <check_esram_edac>
 1ac:	f04b 0b02 	orr.w	fp, fp, #2

000001b0 <check_esram_edac>:
C:\Users\kruci_000\Desktop\University\SoC\Marsfinder\Marsfinder\Marsfinder_FW\Debug/../drivers/mss_nvm/mss_nvm.c:1003
               (NO_READ_WRITE == protection_user1))
            {
                /* Check offset or (offset + length) is in the range of upper 
                 * protect memory if it is then memory protected.
                 */
                if(((offset >= UPPER0_PROTECT_BOTTOM_OFFSET) && \
 1b0:	2900      	cmp	r1, #0
 1b2:	d001      	beq.n	1b8 <check_stack_init>
 1b4:	f04b 0b01 	orr.w	fp, fp, #1

000001b8 <check_stack_init>:
C:\Users\kruci_000\Desktop\University\SoC\Marsfinder\Marsfinder\Marsfinder_FW\Debug/../drivers/mss_nvm/mss_nvm.c:1003 (discriminator 1)
 1b8:	f1bb 0f00 	cmp.w	fp, #0
 1bc:	d005      	beq.n	1ca <system_init>

000001be <clear_stack>:
C:\Users\kruci_000\Desktop\University\SoC\Marsfinder\Marsfinder\Marsfinder_FW\Debug/../drivers/mss_nvm/mss_nvm.c:1005
                    (offset <= UPPER0_PROTECT_TOP_OFFSET)) || \
                    (((offset + length_minus_one) >= UPPER0_PROTECT_BOTTOM_OFFSET) && \
 1be:	48a7      	ldr	r0, [pc, #668]	; (45c <SF2_MDDR_MODE_CR+0x6>)
 1c0:	49a7      	ldr	r1, [pc, #668]	; (460 <SF2_MDDR_MODE_CR+0xa>)
 1c2:	f8df 2272 	ldr.w	r2, [pc, #626]	; 436 <RAM_INIT_PATTERN>
C:\Users\kruci_000\Desktop\University\SoC\Marsfinder\Marsfinder\Marsfinder_FW\Debug/../drivers/mss_nvm/mss_nvm.c:1004
            {
                /* Check offset or (offset + length) is in the range of upper 
                 * protect memory if it is then memory protected.
                 */
                if(((offset >= UPPER0_PROTECT_BOTTOM_OFFSET) && \
                    (offset <= UPPER0_PROTECT_TOP_OFFSET)) || \
 1c6:	f000 f89f 	bl	308 <fill_memory>

000001ca <system_init>:
C:\Users\kruci_000\Desktop\University\SoC\Marsfinder\Marsfinder\Marsfinder_FW\Debug/../drivers/mss_nvm/mss_nvm.c:1005
                    (((offset + length_minus_one) >= UPPER0_PROTECT_BOTTOM_OFFSET) && \
 1ca:	48a6      	ldr	r0, [pc, #664]	; (464 <SF2_MDDR_MODE_CR+0xe>)
 1cc:	4780      	blx	r0
 1ce:	f00b 0a02 	and.w	sl, fp, #2
check_protection_reserved_nvm():
C:\Users\kruci_000\Desktop\University\SoC\Marsfinder\Marsfinder\Marsfinder_FW\Debug/../drivers/mss_nvm/mss_nvm.c:1008
                    (offset < UPPER0_PROTECT_BOTTOM_OFFSET)))
                {
                    protection_flag = protection_check(protection_user1, length);
 1d2:	f1ba 0f00 	cmp.w	sl, #0
 1d6:	d00c      	beq.n	1f2 <remap_memory>
 1d8:	f8df 026e 	ldr.w	r0, [pc, #622]	; 44a <SF2_DDRB_NB_SIZE>
C:\Users\kruci_000\Desktop\University\SoC\Marsfinder\Marsfinder\Marsfinder_FW\Debug/../drivers/mss_nvm/mss_nvm.c:1013
                }
            }
        }
        /* Check lower or upper memory is protected or not */
        if(PROTECTION_ON == protection_flag)
 1dc:	f8df 126e 	ldr.w	r1, [pc, #622]	; 44e <SF2_DDRB_CR>
 1e0:	6802      	ldr	r2, [r0, #0]
C:\Users\kruci_000\Desktop\University\SoC\Marsfinder\Marsfinder\Marsfinder_FW\Debug/../drivers/mss_nvm/mss_nvm.c:1016
        {
            /* Status is protection error if lower or upper area of eNVM0 is protected */        
            status = NVM_PROTECTION_ERROR;
 1e2:	680b      	ldr	r3, [r1, #0]
 1e4:	b40f      	push	{r0, r1, r2, r3}
 1e6:	f04f 0200 	mov.w	r2, #0
C:\Users\kruci_000\Desktop\University\SoC\Marsfinder\Marsfinder\Marsfinder_FW\Debug/../drivers/mss_nvm/mss_nvm.c:1021
        }
        else
        {
             /* Check (offset + length) is out of eNVM memory */
            if((offset + length_minus_one) > UPPER0_PROTECT_TOP_OFFSET)
 1ea:	f04f 03ff 	mov.w	r3, #255	; 0xff
 1ee:	6002      	str	r2, [r0, #0]
 1f0:	600b      	str	r3, [r1, #0]

000001f2 <remap_memory>:
 1f2:	489d      	ldr	r0, [pc, #628]	; (468 <SF2_MDDR_MODE_CR+0x12>)
 1f4:	4a9d      	ldr	r2, [pc, #628]	; (46c <SF2_MDDR_MODE_CR+0x16>)
C:\Users\kruci_000\Desktop\University\SoC\Marsfinder\Marsfinder\Marsfinder_FW\Debug/../drivers/mss_nvm/mss_nvm.c:1023
            {
                status = NVM_INVALID_PARAMETER;
 1f6:	4b9e      	ldr	r3, [pc, #632]	; (470 <SF2_MDDR_MODE_CR+0x1a>)
 1f8:	2802      	cmp	r0, #2
 1fa:	d108      	bne.n	20e <check_esram_remap>
 1fc:	f8df 123e 	ldr.w	r1, [pc, #574]	; 43e <SF2_ESRAM_CR>
C:\Users\kruci_000\Desktop\University\SoC\Marsfinder\Marsfinder\Marsfinder_FW\Debug/../drivers/mss_nvm/mss_nvm.c:1028
            }
            else
            {
                /* Check offset is in eNVM reserved memory - 16 pages reserved */
                if(((offset >= NVM0_RSV_OFFSET) && (offset <= UPPER0_PROTECT_TOP_OFFSET)) || \
 200:	600a      	str	r2, [r1, #0]
 202:	f8df 1242 	ldr.w	r1, [pc, #578]	; 446 <SF2_ENVM_REMAP_CR>
C:\Users\kruci_000\Desktop\University\SoC\Marsfinder\Marsfinder\Marsfinder_FW\Debug/../drivers/mss_nvm/mss_nvm.c:1028 (discriminator 1)
 206:	600a      	str	r2, [r1, #0]
 208:	f8df 1236 	ldr.w	r1, [pc, #566]	; 442 <SF2_DDR_CR>
 20c:	600b      	str	r3, [r1, #0]

0000020e <check_esram_remap>:
C:\Users\kruci_000\Desktop\University\SoC\Marsfinder\Marsfinder\Marsfinder_FW\Debug/../drivers/mss_nvm/mss_nvm.c:1029 (discriminator 3)
                    (((offset + length_minus_one) >= NVM0_RSV_OFFSET) && (offset < NVM0_RSV_OFFSET)))
 20e:	2801      	cmp	r0, #1
 210:	d108      	bne.n	224 <check_mirrored_nvm>
 212:	f8df 122e 	ldr.w	r1, [pc, #558]	; 442 <SF2_DDR_CR>
C:\Users\kruci_000\Desktop\University\SoC\Marsfinder\Marsfinder\Marsfinder_FW\Debug/../drivers/mss_nvm/mss_nvm.c:1028 (discriminator 3)
                status = NVM_INVALID_PARAMETER;
            }
            else
            {
                /* Check offset is in eNVM reserved memory - 16 pages reserved */
                if(((offset >= NVM0_RSV_OFFSET) && (offset <= UPPER0_PROTECT_TOP_OFFSET)) || \
 216:	600a      	str	r2, [r1, #0]
 218:	f8df 122a 	ldr.w	r1, [pc, #554]	; 446 <SF2_ENVM_REMAP_CR>
C:\Users\kruci_000\Desktop\University\SoC\Marsfinder\Marsfinder\Marsfinder_FW\Debug/../drivers/mss_nvm/mss_nvm.c:1029
                    (((offset + length_minus_one) >= NVM0_RSV_OFFSET) && (offset < NVM0_RSV_OFFSET)))
 21c:	600a      	str	r2, [r1, #0]
 21e:	f8df 121e 	ldr.w	r1, [pc, #542]	; 43e <SF2_ESRAM_CR>
C:\Users\kruci_000\Desktop\University\SoC\Marsfinder\Marsfinder\Marsfinder_FW\Debug/../drivers/mss_nvm/mss_nvm.c:1034
                {
                    /* Status is protection error if offset or (offset + length) is 
                     * in reserved area of eNVM
                    */
                    status = NVM_PROTECTION_ERROR;
 222:	600b      	str	r3, [r1, #0]

00000224 <check_mirrored_nvm>:
 224:	4893      	ldr	r0, [pc, #588]	; (474 <SF2_MDDR_MODE_CR+0x1e>)
 226:	2800      	cmp	r0, #0
 228:	d109      	bne.n	23e <copy_data>
C:\Users\kruci_000\Desktop\University\SoC\Marsfinder\Marsfinder\Marsfinder_FW\Debug/../drivers/mss_nvm/mss_nvm.c:1041
                else
                {
                    /* Status is success if offset or (offset + length) is 
                     * in RW access of eNVM memory(not protected)
                     */
                    status = NVM_SUCCESS;
 22a:	4893      	ldr	r0, [pc, #588]	; (478 <SF2_MDDR_MODE_CR+0x22>)
 22c:	4993      	ldr	r1, [pc, #588]	; (47c <SF2_MDDR_MODE_CR+0x26>)
 22e:	4a94      	ldr	r2, [pc, #592]	; (480 <SF2_MDDR_MODE_CR+0x2a>)
C:\Users\kruci_000\Desktop\University\SoC\Marsfinder\Marsfinder\Marsfinder_FW\Debug/../drivers/mss_nvm/mss_nvm.c:1013
                    protection_flag = protection_check(protection_user1, length);
                }
            }
        }
        /* Check lower or upper memory is protected or not */
        if(PROTECTION_ON == protection_flag)
 230:	f000 f832 	bl	298 <block_copy>

00000234 <copy_text>:
 234:	4893      	ldr	r0, [pc, #588]	; (484 <SF2_MDDR_MODE_CR+0x2e>)
 236:	4994      	ldr	r1, [pc, #592]	; (488 <SF2_MDDR_MODE_CR+0x32>)
C:\Users\kruci_000\Desktop\University\SoC\Marsfinder\Marsfinder\Marsfinder_FW\Debug/../drivers/mss_nvm/mss_nvm.c:1047
                }
            }
        }
    }
    /* 060 device */
    else if(0xF808u == device_version)
 238:	4a94      	ldr	r2, [pc, #592]	; (48c <SF2_MDDR_MODE_CR+0x36>)
 23a:	f000 f82d 	bl	298 <block_copy>

0000023e <copy_data>:
 23e:	4894      	ldr	r0, [pc, #592]	; (490 <SF2_MDDR_MODE_CR+0x3a>)
 240:	4994      	ldr	r1, [pc, #592]	; (494 <SF2_MDDR_MODE_CR+0x3e>)
 242:	4a95      	ldr	r2, [pc, #596]	; (498 <SF2_MDDR_MODE_CR+0x42>)
C:\Users\kruci_000\Desktop\University\SoC\Marsfinder\Marsfinder\Marsfinder_FW\Debug/../drivers/mss_nvm/mss_nvm.c:1049
    {
        protection_flag = PROTECTION_OFF;
 244:	f000 f828 	bl	298 <block_copy>

00000248 <clear_bss>:
C:\Users\kruci_000\Desktop\University\SoC\Marsfinder\Marsfinder\Marsfinder_FW\Debug/../drivers/mss_nvm/mss_nvm.c:1051
        /* Read eNVM user protect register for lower and upper area protection data */
        protection_data = (SYSREG->ENVM_PROTECT_USER & PROTECT_USER_MASK);
 248:	4894      	ldr	r0, [pc, #592]	; (49c <SF2_MDDR_MODE_CR+0x46>)
 24a:	4995      	ldr	r1, [pc, #596]	; (4a0 <SF2_MDDR_MODE_CR+0x4a>)
 24c:	f8df 21e6 	ldr.w	r2, [pc, #486]	; 436 <RAM_INIT_PATTERN>
 250:	f000 f85a 	bl	308 <fill_memory>

00000254 <clear_heap>:
C:\Users\kruci_000\Desktop\University\SoC\Marsfinder\Marsfinder\Marsfinder_FW\Debug/../drivers/mss_nvm/mss_nvm.c:1053
        /* Check whether the eNVM0 lower0/1 or upper0/1 area is protected or not */
        if(PROTECT_USER_MASK != protection_data)
 254:	f1bb 0f00 	cmp.w	fp, #0
 258:	d012      	beq.n	280 <call_glob_ctor>
 25a:	4892      	ldr	r0, [pc, #584]	; (4a4 <SF2_MDDR_MODE_CR+0x4e>)
C:\Users\kruci_000\Desktop\University\SoC\Marsfinder\Marsfinder\Marsfinder_FW\Debug/../drivers/mss_nvm/mss_nvm.c:1055
        {
            protection_user0 = (protection_data & 0x000Fu) & READ_WRITE_MASK;
 25c:	4992      	ldr	r1, [pc, #584]	; (4a8 <SF2_MDDR_MODE_CR+0x52>)
 25e:	f8df 21da 	ldr.w	r2, [pc, #474]	; 43a <HEAP_INIT_PATTERN>
 262:	f000 f851 	bl	308 <fill_memory>
C:\Users\kruci_000\Desktop\University\SoC\Marsfinder\Marsfinder\Marsfinder_FW\Debug/../drivers/mss_nvm/mss_nvm.c:1056
            protection_user1 = ((protection_data & 0x00F0u) >> 4u) & READ_WRITE_MASK;
 266:	f00b 0a02 	and.w	sl, fp, #2
 26a:	f1ba 0f00 	cmp.w	sl, #0
 26e:	d007      	beq.n	280 <call_glob_ctor>
 270:	bc0f      	pop	{r0, r1, r2, r3}
C:\Users\kruci_000\Desktop\University\SoC\Marsfinder\Marsfinder\Marsfinder_FW\Debug/../drivers/mss_nvm/mss_nvm.c:1057
            protection_user2 = ((protection_data & 0x0F00u) >> 8u) & READ_WRITE_MASK;
 272:	6002      	str	r2, [r0, #0]
 274:	600b      	str	r3, [r1, #0]
 276:	bf00      	nop
 278:	f3af 8000 	nop.w
 27c:	f3af 8000 	nop.w

00000280 <call_glob_ctor>:
C:\Users\kruci_000\Desktop\University\SoC\Marsfinder\Marsfinder\Marsfinder_FW\Debug/../drivers/mss_nvm/mss_nvm.c:1058
            protection_user3 = ((protection_data & 0xF000u) >> 12u) & READ_WRITE_MASK;
 280:	f8df 0228 	ldr.w	r0, [pc, #552]	; 4ac <SF2_MDDR_MODE_CR+0x56>
 284:	f20f 0e03 	addw	lr, pc, #3
 288:	4700      	bx	r0

0000028a <branch_to_main>:
 28a:	f04f 0000 	mov.w	r0, #0
C:\Users\kruci_000\Desktop\University\SoC\Marsfinder\Marsfinder\Marsfinder_FW\Debug/../drivers/mss_nvm/mss_nvm.c:1061
            
            /* Check NVM0 lower0 protected area is Read or Write or 'No R/W' access */
            if((READ_ONLY == protection_user0) ||(WRITE_ONLY == protection_user0) || \
 28e:	f04f 0100 	mov.w	r1, #0
 292:	f8df f21c 	ldr.w	pc, [pc, #540]	; 4b0 <SF2_MDDR_MODE_CR+0x5a>

00000296 <ExitLoop>:
C:\Users\kruci_000\Desktop\University\SoC\Marsfinder\Marsfinder\Marsfinder_FW\Debug/../drivers/mss_nvm/mss_nvm.c:1061 (discriminator 1)
 296:	e7fe      	b.n	296 <ExitLoop>

00000298 <block_copy>:
 298:	e92d 41f8 	stmdb	sp!, {r3, r4, r5, r6, r7, r8, lr}
C:\Users\kruci_000\Desktop\University\SoC\Marsfinder\Marsfinder\Marsfinder_FW\Debug/../drivers/mss_nvm/mss_nvm.c:1061 (discriminator 2)
 29c:	4288      	cmp	r0, r1
 29e:	d025      	beq.n	2ec <block_copy_exit>
C:\Users\kruci_000\Desktop\University\SoC\Marsfinder\Marsfinder\Marsfinder_FW\Debug/../drivers/mss_nvm/mss_nvm.c:1067
               (NO_READ_WRITE == protection_user0))
            {
                /* Check offset is in the range of lower0 protect memory if it is
                 * then memory protected.
                 */
                if((offset > LOWER0_PROTECT_BOTTOM_OFFSET) && \
 2a0:	ebb2 0201 	subs.w	r2, r2, r1
 2a4:	d500      	bpl.n	2a8 <block_copy_address_ok>
C:\Users\kruci_000\Desktop\University\SoC\Marsfinder\Marsfinder\Marsfinder_FW\Debug/../drivers/mss_nvm/mss_nvm.c:1067 (discriminator 1)
 2a6:	e7fe      	b.n	2a6 <block_copy+0xe>

000002a8 <block_copy_address_ok>:
 2a8:	ea40 0301 	orr.w	r3, r0, r1
 2ac:	f013 0303 	ands.w	r3, r3, #3
C:\Users\kruci_000\Desktop\University\SoC\Marsfinder\Marsfinder\Marsfinder_FW\Debug/../drivers/mss_nvm/mss_nvm.c:1070
                    (offset <= LOWER0_PROTECT_TOP_OFFSET))
                {
                    protection_flag = protection_check(protection_user0, length);
 2b0:	d002      	beq.n	2b8 <block_copy_continue>

000002b2 <block_copy_byte_copy>:
 2b2:	f000 f81d 	bl	2f0 <block_copy_byte>
 2b6:	e019      	b.n	2ec <block_copy_exit>

000002b8 <block_copy_continue>:
C:\Users\kruci_000\Desktop\University\SoC\Marsfinder\Marsfinder\Marsfinder_FW\Debug/../drivers/mss_nvm/mss_nvm.c:1074
                }
            }
            /* Check NVM0 upper1 protected area is Read or Write or 'No R/W' access */
            if((READ_ONLY == protection_user3) ||(WRITE_ONLY == protection_user3) || \
 2b8:	f04f 0300 	mov.w	r3, #0
 2bc:	4690      	mov	r8, r2
C:\Users\kruci_000\Desktop\University\SoC\Marsfinder\Marsfinder\Marsfinder_FW\Debug/../drivers/mss_nvm/mss_nvm.c:1074 (discriminator 1)
 2be:	1112      	asrs	r2, r2, #4
 2c0:	d0f7      	beq.n	2b2 <block_copy_byte_copy>

000002c2 <block_copy_loop>:
 2c2:	429a      	cmp	r2, r3
C:\Users\kruci_000\Desktop\University\SoC\Marsfinder\Marsfinder\Marsfinder_FW\Debug/../drivers/mss_nvm/mss_nvm.c:1074 (discriminator 2)
 2c4:	bf1c      	itt	ne
 2c6:	c8f0      	ldmiane	r0!, {r4, r5, r6, r7}
 2c8:	c1f0      	stmiane	r1!, {r4, r5, r6, r7}
C:\Users\kruci_000\Desktop\University\SoC\Marsfinder\Marsfinder\Marsfinder_FW\Debug/../drivers/mss_nvm/mss_nvm.c:1080
               (NO_READ_WRITE == protection_user3))
            {
                /* Check offset or (offset + length) is in the range of upper1 
                 *  protect memory if it is then memory protected.
                 */
                if(((offset >= NVM0_UPPER1_PROTECT_BOTTOM_OFFSET) && \
 2ca:	f103 0301 	add.w	r3, r3, #1
 2ce:	d1f8      	bne.n	2c2 <block_copy_loop>
 2d0:	f008 080f 	and.w	r8, r8, #15
C:\Users\kruci_000\Desktop\University\SoC\Marsfinder\Marsfinder\Marsfinder_FW\Debug/../drivers/mss_nvm/mss_nvm.c:1080 (discriminator 1)
 2d4:	f1b8 0f00 	cmp.w	r8, #0
 2d8:	d008      	beq.n	2ec <block_copy_exit>

000002da <copy_spare_bytes>:
C:\Users\kruci_000\Desktop\University\SoC\Marsfinder\Marsfinder\Marsfinder_FW\Debug/../drivers/mss_nvm/mss_nvm.c:1082
                    (offset <= NVM0_UPPER1_PROTECT_TOP_OFFSET)) || \
                    (((offset + length_minus_one) >= NVM0_UPPER1_PROTECT_BOTTOM_OFFSET) && \
 2da:	7804      	ldrb	r4, [r0, #0]
 2dc:	700c      	strb	r4, [r1, #0]
 2de:	f100 0001 	add.w	r0, r0, #1
C:\Users\kruci_000\Desktop\University\SoC\Marsfinder\Marsfinder\Marsfinder_FW\Debug/../drivers/mss_nvm/mss_nvm.c:1081
            {
                /* Check offset or (offset + length) is in the range of upper1 
                 *  protect memory if it is then memory protected.
                 */
                if(((offset >= NVM0_UPPER1_PROTECT_BOTTOM_OFFSET) && \
                    (offset <= NVM0_UPPER1_PROTECT_TOP_OFFSET)) || \
 2e2:	f101 0101 	add.w	r1, r1, #1
C:\Users\kruci_000\Desktop\University\SoC\Marsfinder\Marsfinder\Marsfinder_FW\Debug/../drivers/mss_nvm/mss_nvm.c:1082
                    (((offset + length_minus_one) >= NVM0_UPPER1_PROTECT_BOTTOM_OFFSET) && \
 2e6:	f1b8 0801 	subs.w	r8, r8, #1
 2ea:	d1f6      	bne.n	2da <copy_spare_bytes>

000002ec <block_copy_exit>:
 2ec:	e8bd 81f8 	ldmia.w	sp!, {r3, r4, r5, r6, r7, r8, pc}

000002f0 <block_copy_byte>:
C:\Users\kruci_000\Desktop\University\SoC\Marsfinder\Marsfinder\Marsfinder_FW\Debug/../drivers/mss_nvm/mss_nvm.c:1085
                    (offset < NVM0_UPPER1_PROTECT_BOTTOM_OFFSET)))
                {
                    protection_flag = protection_check(protection_user3, length);
 2f0:	b508      	push	{r3, lr}
 2f2:	f04f 0300 	mov.w	r3, #0

000002f6 <block_copy_byte_loop>:
 2f6:	7803      	ldrb	r3, [r0, #0]
C:\Users\kruci_000\Desktop\University\SoC\Marsfinder\Marsfinder\Marsfinder_FW\Debug/../drivers/mss_nvm/mss_nvm.c:1093
        }
        /* Check lower0 or upper1 memory is protected or not.
         * No protection check for  0x3F000 - 0x3FFFF and 0x3E000 - 0x3EFFF lower1/upper0 
         * protected area of eNVM0 memory because it's fall under eNVM reserved area    
         */
        if(PROTECTION_ON == protection_flag)
 2f8:	700b      	strb	r3, [r1, #0]
 2fa:	f100 0001 	add.w	r0, r0, #1
C:\Users\kruci_000\Desktop\University\SoC\Marsfinder\Marsfinder\Marsfinder_FW\Debug/../drivers/mss_nvm/mss_nvm.c:1096
        {
            /* Status is protection error if lower0 or upper1 area of eNVM0 is protected */
            status = NVM_PROTECTION_ERROR;
 2fe:	f101 0101 	add.w	r1, r1, #1
 302:	3a01      	subs	r2, #1
 304:	d1f7      	bne.n	2f6 <block_copy_byte_loop>
C:\Users\kruci_000\Desktop\University\SoC\Marsfinder\Marsfinder\Marsfinder_FW\Debug/../drivers/mss_nvm/mss_nvm.c:1101
        }
        else
        {
            /* Check (offset + length) is out of eNVM memory*/
            if((offset + length_minus_one) > UPPER0_PROTECT_TOP_OFFSET)
 306:	bd08      	pop	{r3, pc}

00000308 <fill_memory>:
 308:	4288      	cmp	r0, r1
 30a:	d037      	beq.n	37c <fill_memory_exit>
 30c:	f000 0603 	and.w	r6, r0, #3
 310:	2e00      	cmp	r6, #0
C:\Users\kruci_000\Desktop\University\SoC\Marsfinder\Marsfinder\Marsfinder_FW\Debug/../drivers/mss_nvm/mss_nvm.c:1103
            {
                status = NVM_INVALID_PARAMETER;
 312:	d014      	beq.n	33e <fill_memory_end_start>
 314:	f04f 0504 	mov.w	r5, #4
 318:	eba5 0406 	sub.w	r4, r5, r6
C:\Users\kruci_000\Desktop\University\SoC\Marsfinder\Marsfinder\Marsfinder_FW\Debug/../drivers/mss_nvm/mss_nvm.c:1108
            }
            else
            {
                /* Check offset is in eNVM reserved memory - 64 pages reserved */
                if(((offset >= O60_NVM_RSV_OFFSET) && (offset <= UPPER0_PROTECT_TOP_OFFSET)) || \
 31c:	f04f 0708 	mov.w	r7, #8
 320:	fb07 f806 	mul.w	r8, r7, r6
C:\Users\kruci_000\Desktop\University\SoC\Marsfinder\Marsfinder\Marsfinder_FW\Debug/../drivers/mss_nvm/mss_nvm.c:1108 (discriminator 1)
 324:	4691      	mov	r9, r2
 326:	fa69 f908 	ror.w	r9, r9, r8

0000032a <fill_memory_spare_bytes_start>:
C:\Users\kruci_000\Desktop\University\SoC\Marsfinder\Marsfinder\Marsfinder_FW\Debug/../drivers/mss_nvm/mss_nvm.c:1109 (discriminator 3)
                   (((offset + length_minus_one) >= O60_NVM_RSV_OFFSET) && \
 32a:	2c00      	cmp	r4, #0
 32c:	d007      	beq.n	33e <fill_memory_end_start>
 32e:	f880 9000 	strb.w	r9, [r0]
C:\Users\kruci_000\Desktop\University\SoC\Marsfinder\Marsfinder\Marsfinder_FW\Debug/../drivers/mss_nvm/mss_nvm.c:1108 (discriminator 3)
                status = NVM_INVALID_PARAMETER;
            }
            else
            {
                /* Check offset is in eNVM reserved memory - 64 pages reserved */
                if(((offset >= O60_NVM_RSV_OFFSET) && (offset <= UPPER0_PROTECT_TOP_OFFSET)) || \
 332:	fa69 f907 	ror.w	r9, r9, r7
C:\Users\kruci_000\Desktop\University\SoC\Marsfinder\Marsfinder\Marsfinder_FW\Debug/../drivers/mss_nvm/mss_nvm.c:1109
                   (((offset + length_minus_one) >= O60_NVM_RSV_OFFSET) && \
 336:	f100 0001 	add.w	r0, r0, #1
 33a:	3c01      	subs	r4, #1
 33c:	e7f5      	b.n	32a <fill_memory_spare_bytes_start>

0000033e <fill_memory_end_start>:
C:\Users\kruci_000\Desktop\University\SoC\Marsfinder\Marsfinder\Marsfinder_FW\Debug/../drivers/mss_nvm/mss_nvm.c:1115
                   (offset < O60_NVM_RSV_OFFSET)))
                {
                    /* Status is protection error if offset or (offset + length) is 
                     * in reserved area of eNVM
                     */
                    status = NVM_PROTECTION_ERROR;
 33e:	f04f 0600 	mov.w	r6, #0
 342:	460f      	mov	r7, r1
 344:	1a09      	subs	r1, r1, r0
C:\Users\kruci_000\Desktop\University\SoC\Marsfinder\Marsfinder\Marsfinder_FW\Debug/../drivers/mss_nvm/mss_nvm.c:1119
                }
                else
                {
                    status = NVM_SUCCESS;
 346:	4688      	mov	r8, r1
 348:	1109      	asrs	r1, r1, #4
 34a:	4691      	mov	r9, r2
 34c:	4614      	mov	r4, r2
C:\Users\kruci_000\Desktop\University\SoC\Marsfinder\Marsfinder\Marsfinder_FW\Debug/../drivers/mss_nvm/mss_nvm.c:1125
                }
            }
        }    
    }
    /* 090/150 device */
    else if((0xF807u == device_version) || (0xF806u == device_version))
 34e:	4615      	mov	r5, r2
 350:	42b1      	cmp	r1, r6
 352:	d006      	beq.n	362 <fill_memory_spare_bytes_end>

00000354 <fill_memory_loop>:
 354:	bf18      	it	ne
 356:	e8a0 0234 	stmiane.w	r0!, {r2, r4, r5, r9}
C:\Users\kruci_000\Desktop\University\SoC\Marsfinder\Marsfinder\Marsfinder_FW\Debug/../drivers/mss_nvm/mss_nvm.c:1125 (discriminator 1)
 35a:	f106 0601 	add.w	r6, r6, #1
 35e:	42b1      	cmp	r1, r6
 360:	d1f8      	bne.n	354 <fill_memory_loop>

00000362 <fill_memory_spare_bytes_end>:
 362:	f008 080f 	and.w	r8, r8, #15

00000366 <fill_memory_spare_end_loop>:
C:\Users\kruci_000\Desktop\University\SoC\Marsfinder\Marsfinder\Marsfinder_FW\Debug/../drivers/mss_nvm/mss_nvm.c:1127
    {
        protection_flag = PROTECTION_OFF;
 366:	f1b8 0f00 	cmp.w	r8, #0
C:\Users\kruci_000\Desktop\University\SoC\Marsfinder\Marsfinder\Marsfinder_FW\Debug/../drivers/mss_nvm/mss_nvm.c:1129
        /* Read eNVM user protect register for lower and upper area protection data */
        protection_data = (SYSREG->ENVM_PROTECT_USER & PROTECT_USER_MASK);
 36a:	d007      	beq.n	37c <fill_memory_exit>
 36c:	7002      	strb	r2, [r0, #0]
 36e:	ea4f 2232 	mov.w	r2, r2, ror #8
C:\Users\kruci_000\Desktop\University\SoC\Marsfinder\Marsfinder\Marsfinder_FW\Debug/../drivers/mss_nvm/mss_nvm.c:1131
        /* Check whether the eNVM0 and eNVM1 lower or upper area is protected or not */        
        if(PROTECT_USER_MASK != protection_data)
 372:	f100 0001 	add.w	r0, r0, #1
 376:	f1b8 0801 	subs.w	r8, r8, #1
 37a:	e7f4      	b.n	366 <fill_memory_spare_end_loop>

0000037c <fill_memory_exit>:
 37c:	4770      	bx	lr

0000037e <NMI_Handler>:
C:\Users\kruci_000\Desktop\University\SoC\Marsfinder\Marsfinder\Marsfinder_FW\Debug/../drivers/mss_nvm/mss_nvm.c:1133
        {
            protection_user0 = (protection_data & 0x000Fu) & READ_WRITE_MASK;
 37e:	e7fe      	b.n	37e <NMI_Handler>

00000380 <HardFault_Handler>:
 380:	e7fe      	b.n	380 <HardFault_Handler>

00000382 <MemManage_Handler>:
 382:	e7fe      	b.n	382 <MemManage_Handler>

00000384 <BusFault_Handler>:
 384:	e7fe      	b.n	384 <BusFault_Handler>

00000386 <UsageFault_Handler>:
C:\Users\kruci_000\Desktop\University\SoC\Marsfinder\Marsfinder\Marsfinder_FW\Debug/../drivers/mss_nvm/mss_nvm.c:1134
            protection_user1 = ((protection_data & 0x00F0u) >> 4u) & READ_WRITE_MASK;
 386:	e7fe      	b.n	386 <UsageFault_Handler>

00000388 <SVC_Handler>:
 388:	e7fe      	b.n	388 <SVC_Handler>

0000038a <DebugMon_Handler>:
 38a:	e7fe      	b.n	38a <DebugMon_Handler>

0000038c <PendSV_Handler>:
 38c:	e7fe      	b.n	38c <PendSV_Handler>
 38e:	e7fe      	b.n	38e <PendSV_Handler+0x2>

00000390 <WdogWakeup_IRQHandler>:
 390:	e7fe      	b.n	390 <WdogWakeup_IRQHandler>

00000392 <RTC_Wakeup_IRQHandler>:
 392:	e7fe      	b.n	392 <RTC_Wakeup_IRQHandler>

00000394 <SPI0_IRQHandler>:
C:\Users\kruci_000\Desktop\University\SoC\Marsfinder\Marsfinder\Marsfinder_FW\Debug/../drivers/mss_nvm/mss_nvm.c:1135
            protection_user2 = ((protection_data & 0x0F00u) >> 8u) & READ_WRITE_MASK;
 394:	e7fe      	b.n	394 <SPI0_IRQHandler>

00000396 <SPI1_IRQHandler>:
 396:	e7fe      	b.n	396 <SPI1_IRQHandler>

00000398 <I2C0_IRQHandler>:
 398:	e7fe      	b.n	398 <I2C0_IRQHandler>

0000039a <I2C0_SMBAlert_IRQHandler>:
 39a:	e7fe      	b.n	39a <I2C0_SMBAlert_IRQHandler>

0000039c <I2C0_SMBus_IRQHandler>:
 39c:	e7fe      	b.n	39c <I2C0_SMBus_IRQHandler>

0000039e <I2C1_IRQHandler>:
 39e:	e7fe      	b.n	39e <I2C1_IRQHandler>

000003a0 <I2C1_SMBAlert_IRQHandler>:
 3a0:	e7fe      	b.n	3a0 <I2C1_SMBAlert_IRQHandler>

000003a2 <I2C1_SMBus_IRQHandler>:
C:\Users\kruci_000\Desktop\University\SoC\Marsfinder\Marsfinder\Marsfinder_FW\Debug/../drivers/mss_nvm/mss_nvm.c:1136
            protection_user3 = ((protection_data & 0xF000u) >> 12u) & READ_WRITE_MASK;
 3a2:	e7fe      	b.n	3a2 <I2C1_SMBus_IRQHandler>

000003a4 <UART0_IRQHandler>:
 3a4:	e7fe      	b.n	3a4 <UART0_IRQHandler>

000003a6 <UART1_IRQHandler>:
 3a6:	e7fe      	b.n	3a6 <UART1_IRQHandler>

000003a8 <EthernetMAC_IRQHandler>:
 3a8:	e7fe      	b.n	3a8 <EthernetMAC_IRQHandler>

000003aa <DMA_IRQHandler>:
 3aa:	e7fe      	b.n	3aa <DMA_IRQHandler>
 3ac:	e7fe      	b.n	3ac <DMA_IRQHandler+0x2>

000003ae <Timer2_IRQHandler>:
 3ae:	e7fe      	b.n	3ae <Timer2_IRQHandler>

000003b0 <CAN_IRQHandler>:
C:\Users\kruci_000\Desktop\University\SoC\Marsfinder\Marsfinder\Marsfinder_FW\Debug/../drivers/mss_nvm/mss_nvm.c:1139
            
            /* Check eNVM0 lower0 protected area is Read or Write or 'No R/W' access */
            if((READ_ONLY == protection_user0) ||(WRITE_ONLY == protection_user0) || \
 3b0:	e7fe      	b.n	3b0 <CAN_IRQHandler>

000003b2 <ENVM0_IRQHandler>:
 3b2:	e7fe      	b.n	3b2 <ENVM0_IRQHandler>

000003b4 <ENVM1_IRQHandler>:
 3b4:	e7fe      	b.n	3b4 <ENVM1_IRQHandler>
C:\Users\kruci_000\Desktop\University\SoC\Marsfinder\Marsfinder\Marsfinder_FW\Debug/../drivers/mss_nvm/mss_nvm.c:1139 (discriminator 1)
 3b6:	e7fe      	b.n	3b6 <ENVM1_IRQHandler+0x2>

000003b8 <USB_IRQHandler>:
 3b8:	e7fe      	b.n	3b8 <USB_IRQHandler>

000003ba <USB_DMA_IRQHandler>:
 3ba:	e7fe      	b.n	3ba <USB_DMA_IRQHandler>

000003bc <PLL_Lock_IRQHandler>:
C:\Users\kruci_000\Desktop\University\SoC\Marsfinder\Marsfinder\Marsfinder_FW\Debug/../drivers/mss_nvm/mss_nvm.c:1139 (discriminator 2)
 3bc:	e7fe      	b.n	3bc <PLL_Lock_IRQHandler>

000003be <PLL_LockLost_IRQHandler>:
 3be:	e7fe      	b.n	3be <PLL_LockLost_IRQHandler>

000003c0 <CommSwitchError_IRQHandler>:
 3c0:	e7fe      	b.n	3c0 <CommSwitchError_IRQHandler>

000003c2 <CacheError_IRQHandler>:
C:\Users\kruci_000\Desktop\University\SoC\Marsfinder\Marsfinder\Marsfinder_FW\Debug/../drivers/mss_nvm/mss_nvm.c:1145
               (NO_READ_WRITE == protection_user0))
            {
                /* Check offset is in the range of lower0 protect memory if it is
                 * then memory protected.
                 */
                if((offset > LOWER0_PROTECT_BOTTOM_OFFSET) && \
 3c2:	e7fe      	b.n	3c2 <CacheError_IRQHandler>

000003c4 <DDR_IRQHandler>:
 3c4:	e7fe      	b.n	3c4 <DDR_IRQHandler>
 3c6:	e7fe      	b.n	3c6 <DDR_IRQHandler+0x2>
C:\Users\kruci_000\Desktop\University\SoC\Marsfinder\Marsfinder\Marsfinder_FW\Debug/../drivers/mss_nvm/mss_nvm.c:1145 (discriminator 1)
 3c8:	e7fe      	b.n	3c8 <DDR_IRQHandler+0x4>

000003ca <ECC_Error_IRQHandler>:
 3ca:	e7fe      	b.n	3ca <ECC_Error_IRQHandler>

000003cc <MDDR_IOCalib_IRQHandler>:
 3cc:	e7fe      	b.n	3cc <MDDR_IOCalib_IRQHandler>

000003ce <FAB_PLL_Lock_IRQHandler>:
 3ce:	e7fe      	b.n	3ce <FAB_PLL_Lock_IRQHandler>

000003d0 <FAB_PLL_LockLost_IRQHandler>:
C:\Users\kruci_000\Desktop\University\SoC\Marsfinder\Marsfinder\Marsfinder_FW\Debug/../drivers/mss_nvm/mss_nvm.c:1148
                    (offset <= LOWER0_PROTECT_TOP_OFFSET))
                {
                    protection_flag = protection_check(protection_user0, length);
 3d0:	e7fe      	b.n	3d0 <FAB_PLL_LockLost_IRQHandler>

000003d2 <FIC64_IRQHandler>:
 3d2:	e7fe      	b.n	3d2 <FIC64_IRQHandler>
 3d4:	e7fe      	b.n	3d4 <FIC64_IRQHandler+0x2>

000003d6 <FabricIrq1_IRQHandler>:
 3d6:	e7fe      	b.n	3d6 <FabricIrq1_IRQHandler>

000003d8 <FabricIrq2_IRQHandler>:
 3d8:	e7fe      	b.n	3d8 <FabricIrq2_IRQHandler>

000003da <FabricIrq3_IRQHandler>:
C:\Users\kruci_000\Desktop\University\SoC\Marsfinder\Marsfinder\Marsfinder_FW\Debug/../drivers/mss_nvm/mss_nvm.c:1152
                }
            }
            /* Check eNVM0 upper0 protected area(in eNVM1) is Read or Write or 'No R/W' access */
            if((READ_ONLY == protection_user1) ||(WRITE_ONLY == protection_user1) || \
 3da:	e7fe      	b.n	3da <FabricIrq3_IRQHandler>

000003dc <FabricIrq4_IRQHandler>:
 3dc:	e7fe      	b.n	3dc <FabricIrq4_IRQHandler>

000003de <FabricIrq5_IRQHandler>:
 3de:	e7fe      	b.n	3de <FabricIrq5_IRQHandler>

000003e0 <FabricIrq6_IRQHandler>:
C:\Users\kruci_000\Desktop\University\SoC\Marsfinder\Marsfinder\Marsfinder_FW\Debug/../drivers/mss_nvm/mss_nvm.c:1152 (discriminator 1)
 3e0:	e7fe      	b.n	3e0 <FabricIrq6_IRQHandler>

000003e2 <FabricIrq7_IRQHandler>:
 3e2:	e7fe      	b.n	3e2 <FabricIrq7_IRQHandler>

000003e4 <FabricIrq8_IRQHandler>:
 3e4:	e7fe      	b.n	3e4 <FabricIrq8_IRQHandler>

000003e6 <FabricIrq9_IRQHandler>:
C:\Users\kruci_000\Desktop\University\SoC\Marsfinder\Marsfinder\Marsfinder_FW\Debug/../drivers/mss_nvm/mss_nvm.c:1152 (discriminator 2)
 3e6:	e7fe      	b.n	3e6 <FabricIrq9_IRQHandler>

000003e8 <FabricIrq10_IRQHandler>:
 3e8:	e7fe      	b.n	3e8 <FabricIrq10_IRQHandler>

000003ea <FabricIrq11_IRQHandler>:
 3ea:	e7fe      	b.n	3ea <FabricIrq11_IRQHandler>

000003ec <FabricIrq12_IRQHandler>:
C:\Users\kruci_000\Desktop\University\SoC\Marsfinder\Marsfinder\Marsfinder_FW\Debug/../drivers/mss_nvm/mss_nvm.c:1158
               (NO_READ_WRITE == protection_user1))
            {
                /* Check offset or (offset + length) is in the range of upper0
                 *  protect memory if it is then memory protected.
                 */
                if(((offset >= NVM0_UPPER0_PROTECT_BOTTOM_OFFSET) && \
 3ec:	e7fe      	b.n	3ec <FabricIrq12_IRQHandler>

000003ee <FabricIrq13_IRQHandler>:
 3ee:	e7fe      	b.n	3ee <FabricIrq13_IRQHandler>

000003f0 <FabricIrq14_IRQHandler>:
 3f0:	e7fe      	b.n	3f0 <FabricIrq14_IRQHandler>

000003f2 <FabricIrq15_IRQHandler>:
 3f2:	e7fe      	b.n	3f2 <FabricIrq15_IRQHandler>

000003f4 <GPIO0_IRQHandler>:
C:\Users\kruci_000\Desktop\University\SoC\Marsfinder\Marsfinder\Marsfinder_FW\Debug/../drivers/mss_nvm/mss_nvm.c:1158 (discriminator 1)
 3f4:	e7fe      	b.n	3f4 <GPIO0_IRQHandler>

000003f6 <GPIO1_IRQHandler>:
 3f6:	e7fe      	b.n	3f6 <GPIO1_IRQHandler>

000003f8 <GPIO2_IRQHandler>:
 3f8:	e7fe      	b.n	3f8 <GPIO2_IRQHandler>

000003fa <GPIO3_IRQHandler>:
 3fa:	e7fe      	b.n	3fa <GPIO3_IRQHandler>

000003fc <GPIO4_IRQHandler>:
C:\Users\kruci_000\Desktop\University\SoC\Marsfinder\Marsfinder\Marsfinder_FW\Debug/../drivers/mss_nvm/mss_nvm.c:1160
                    (offset <= NVM0_UPPER0_PROTECT_TOP_OFFSET)) || \
                    (((offset + length_minus_one) >= NVM0_UPPER0_PROTECT_BOTTOM_OFFSET) && \
 3fc:	e7fe      	b.n	3fc <GPIO4_IRQHandler>

000003fe <GPIO5_IRQHandler>:
 3fe:	e7fe      	b.n	3fe <GPIO5_IRQHandler>

00000400 <GPIO6_IRQHandler>:
 400:	e7fe      	b.n	400 <GPIO6_IRQHandler>

00000402 <GPIO7_IRQHandler>:
C:\Users\kruci_000\Desktop\University\SoC\Marsfinder\Marsfinder\Marsfinder_FW\Debug/../drivers/mss_nvm/mss_nvm.c:1159
            {
                /* Check offset or (offset + length) is in the range of upper0
                 *  protect memory if it is then memory protected.
                 */
                if(((offset >= NVM0_UPPER0_PROTECT_BOTTOM_OFFSET) && \
                    (offset <= NVM0_UPPER0_PROTECT_TOP_OFFSET)) || \
 402:	e7fe      	b.n	402 <GPIO7_IRQHandler>

00000404 <GPIO8_IRQHandler>:
 404:	e7fe      	b.n	404 <GPIO8_IRQHandler>

00000406 <GPIO9_IRQHandler>:
 406:	e7fe      	b.n	406 <GPIO9_IRQHandler>

00000408 <GPIO10_IRQHandler>:
C:\Users\kruci_000\Desktop\University\SoC\Marsfinder\Marsfinder\Marsfinder_FW\Debug/../drivers/mss_nvm/mss_nvm.c:1160
                    (((offset + length_minus_one) >= NVM0_UPPER0_PROTECT_BOTTOM_OFFSET) && \
 408:	e7fe      	b.n	408 <GPIO10_IRQHandler>

0000040a <GPIO11_IRQHandler>:
 40a:	e7fe      	b.n	40a <GPIO11_IRQHandler>

0000040c <GPIO12_IRQHandler>:
 40c:	e7fe      	b.n	40c <GPIO12_IRQHandler>

0000040e <GPIO13_IRQHandler>:
 40e:	e7fe      	b.n	40e <GPIO13_IRQHandler>

00000410 <GPIO14_IRQHandler>:
C:\Users\kruci_000\Desktop\University\SoC\Marsfinder\Marsfinder\Marsfinder_FW\Debug/../drivers/mss_nvm/mss_nvm.c:1163
                    (offset < NVM0_UPPER0_PROTECT_BOTTOM_OFFSET)))
                {
                    protection_flag = protection_check(protection_user1, length);
 410:	e7fe      	b.n	410 <GPIO14_IRQHandler>

00000412 <GPIO15_IRQHandler>:
 412:	e7fe      	b.n	412 <GPIO15_IRQHandler>

00000414 <GPIO16_IRQHandler>:
 414:	e7fe      	b.n	414 <GPIO16_IRQHandler>

00000416 <GPIO17_IRQHandler>:
 416:	e7fe      	b.n	416 <GPIO17_IRQHandler>

00000418 <GPIO18_IRQHandler>:
 418:	e7fe      	b.n	418 <GPIO18_IRQHandler>

0000041a <GPIO19_IRQHandler>:
C:\Users\kruci_000\Desktop\University\SoC\Marsfinder\Marsfinder\Marsfinder_FW\Debug/../drivers/mss_nvm/mss_nvm.c:1167
                }
            }
            /* Check NVM1 lower1 protected area is Read or Write or 'No R/W' access */
            if((READ_ONLY == protection_user2) ||(WRITE_ONLY == protection_user2) || \
 41a:	e7fe      	b.n	41a <GPIO19_IRQHandler>

0000041c <GPIO20_IRQHandler>:
 41c:	e7fe      	b.n	41c <GPIO20_IRQHandler>

0000041e <GPIO21_IRQHandler>:
 41e:	e7fe      	b.n	41e <GPIO21_IRQHandler>

00000420 <GPIO22_IRQHandler>:
C:\Users\kruci_000\Desktop\University\SoC\Marsfinder\Marsfinder\Marsfinder_FW\Debug/../drivers/mss_nvm/mss_nvm.c:1167 (discriminator 1)
 420:	e7fe      	b.n	420 <GPIO22_IRQHandler>

00000422 <GPIO23_IRQHandler>:
 422:	e7fe      	b.n	422 <GPIO23_IRQHandler>

00000424 <GPIO24_IRQHandler>:
 424:	e7fe      	b.n	424 <GPIO24_IRQHandler>

00000426 <GPIO25_IRQHandler>:
C:\Users\kruci_000\Desktop\University\SoC\Marsfinder\Marsfinder\Marsfinder_FW\Debug/../drivers/mss_nvm/mss_nvm.c:1167 (discriminator 2)
 426:	e7fe      	b.n	426 <GPIO25_IRQHandler>

00000428 <GPIO26_IRQHandler>:
 428:	e7fe      	b.n	428 <GPIO26_IRQHandler>

0000042a <GPIO27_IRQHandler>:
 42a:	e7fe      	b.n	42a <GPIO27_IRQHandler>

0000042c <GPIO28_IRQHandler>:
C:\Users\kruci_000\Desktop\University\SoC\Marsfinder\Marsfinder\Marsfinder_FW\Debug/../drivers/mss_nvm/mss_nvm.c:1173
               (NO_READ_WRITE == protection_user2))
            {
                /* Check offset or (offset + length)is in the range of lower1 
                 * protect memory if it is then memory protected.
                 */
                if(((offset >= LOWER1_PROTECT_BOTTOM_OFFSET) && \
 42c:	e7fe      	b.n	42c <GPIO28_IRQHandler>

0000042e <GPIO29_IRQHandler>:
 42e:	e7fe      	b.n	42e <GPIO29_IRQHandler>

00000430 <GPIO30_IRQHandler>:
 430:	e7fe      	b.n	430 <GPIO30_IRQHandler>

00000432 <GPIO31_IRQHandler>:
 432:	e7fe      	b.n	432 <GPIO31_IRQHandler>

00000434 <mscc_post_hw_cfg_init>:
C:\Users\kruci_000\Desktop\University\SoC\Marsfinder\Marsfinder\Marsfinder_FW\Debug/../drivers/mss_nvm/mss_nvm.c:1173 (discriminator 1)
 434:	4770      	bx	lr

00000436 <RAM_INIT_PATTERN>:
 436:	0000      	.short	0x0000
	...

0000043a <HEAP_INIT_PATTERN>:
 43a:	a2a2      	.short	0xa2a2
C:\Users\kruci_000\Desktop\University\SoC\Marsfinder\Marsfinder\Marsfinder_FW\Debug/../drivers/mss_nvm/mss_nvm.c:1175
                    (offset <= LOWER1_PROTECT_TOP_OFFSET)) || \
                    (((offset + length_minus_one) >= LOWER1_PROTECT_BOTTOM_OFFSET) && \
 43c:	a2a2      	.short	0xa2a2

0000043e <SF2_ESRAM_CR>:
 43e:	8000      	.short	0x8000
 440:	4003      	.short	0x4003

00000442 <SF2_DDR_CR>:
C:\Users\kruci_000\Desktop\University\SoC\Marsfinder\Marsfinder\Marsfinder_FW\Debug/../drivers/mss_nvm/mss_nvm.c:1174
            {
                /* Check offset or (offset + length)is in the range of lower1 
                 * protect memory if it is then memory protected.
                 */
                if(((offset >= LOWER1_PROTECT_BOTTOM_OFFSET) && \
                    (offset <= LOWER1_PROTECT_TOP_OFFSET)) || \
 442:	8008      	.short	0x8008
 444:	4003      	.short	0x4003

00000446 <SF2_ENVM_REMAP_CR>:
 446:	8010      	.short	0x8010
C:\Users\kruci_000\Desktop\University\SoC\Marsfinder\Marsfinder\Marsfinder_FW\Debug/../drivers/mss_nvm/mss_nvm.c:1175
                    (((offset + length_minus_one) >= LOWER1_PROTECT_BOTTOM_OFFSET) && \
 448:	4003      	.short	0x4003

0000044a <SF2_DDRB_NB_SIZE>:
 44a:	8030      	.short	0x8030
 44c:	4003      	.short	0x4003

0000044e <SF2_DDRB_CR>:
 44e:	8034      	.short	0x8034
C:\Users\kruci_000\Desktop\University\SoC\Marsfinder\Marsfinder\Marsfinder_FW\Debug/../drivers/mss_nvm/mss_nvm.c:1178
                    (offset < LOWER1_PROTECT_BOTTOM_OFFSET)))
                {
                    protection_flag = protection_check(protection_user2, length);
 450:	4003      	.short	0x4003

00000452 <SF2_EDAC_CR>:
 452:	8038      	.short	0x8038
 454:	4003      	.short	0x4003

00000456 <SF2_MDDR_MODE_CR>:
 456:	0818      	.short	0x0818
 458:	00004002 	.word	0x00004002
C:\Users\kruci_000\Desktop\University\SoC\Marsfinder\Marsfinder\Marsfinder_FW\Debug/../drivers/mss_nvm/mss_nvm.c:1182
                }
            }
            /* Checking NVM1 upper protected area for Read or Write or 'No R/W' access */
            if((READ_ONLY == protection_user3) ||(WRITE_ONLY == protection_user3) || \
 45c:	2000f000 	.word	0x2000f000
C:\Users\kruci_000\Desktop\University\SoC\Marsfinder\Marsfinder\Marsfinder_FW\Debug/../drivers/mss_nvm/mss_nvm.c:1182 (discriminator 1)
 460:	20010000 	.word	0x20010000
 464:	000004b5 	.word	0x000004b5
	...
C:\Users\kruci_000\Desktop\University\SoC\Marsfinder\Marsfinder\Marsfinder_FW\Debug/../drivers/mss_nvm/mss_nvm.c:1188
               (NO_READ_WRITE == protection_user3))
            {
                /* Check offset or (offset + length)is in the range of upper1 
                 * protect memory if it is then memory protected.
                 */
                if(((offset >= UPPER1_PROTECT_BOTTOM_OFFSET) && \
 470:	00000001 	.word	0x00000001
C:\Users\kruci_000\Desktop\University\SoC\Marsfinder\Marsfinder\Marsfinder_FW\Debug/../drivers/mss_nvm/mss_nvm.c:1188 (discriminator 1)
 474:	00000001 	.word	0x00000001
 478:	60000000 	.word	0x60000000
C:\Users\kruci_000\Desktop\University\SoC\Marsfinder\Marsfinder\Marsfinder_FW\Debug/../drivers/mss_nvm/mss_nvm.c:1190
                    (offset <= UPPER1_PROTECT_TOP_OFFSET)) || \
                    (((offset + length_minus_one) >= UPPER1_PROTECT_BOTTOM_OFFSET) && \
 47c:	00000000 	.word	0x00000000
 480:	00000190 	.word	0x00000190
C:\Users\kruci_000\Desktop\University\SoC\Marsfinder\Marsfinder\Marsfinder_FW\Debug/../drivers/mss_nvm/mss_nvm.c:1189
            {
                /* Check offset or (offset + length)is in the range of upper1 
                 * protect memory if it is then memory protected.
                 */
                if(((offset >= UPPER1_PROTECT_BOTTOM_OFFSET) && \
                    (offset <= UPPER1_PROTECT_TOP_OFFSET)) || \
 484:	60000570 	.word	0x60000570
C:\Users\kruci_000\Desktop\University\SoC\Marsfinder\Marsfinder\Marsfinder_FW\Debug/../drivers/mss_nvm/mss_nvm.c:1190
                    (((offset + length_minus_one) >= UPPER1_PROTECT_BOTTOM_OFFSET) && \
 488:	00000570 	.word	0x00000570
 48c:	00005710 	.word	0x00005710
C:\Users\kruci_000\Desktop\University\SoC\Marsfinder\Marsfinder\Marsfinder_FW\Debug/../drivers/mss_nvm/mss_nvm.c:1193
                    (offset < UPPER1_PROTECT_BOTTOM_OFFSET)))
                {
                    protection_flag = protection_check(protection_user3, length);
 490:	60005710 	.word	0x60005710
 494:	20000000 	.word	0x20000000
 498:	200000f0 	.word	0x200000f0
C:\Users\kruci_000\Desktop\University\SoC\Marsfinder\Marsfinder\Marsfinder_FW\Debug/../drivers/mss_nvm/mss_nvm.c:1198
                }
            }
        }
        /* Check lower0/1 and upper0/1 memory is protected or not */
        if(PROTECTION_ON == protection_flag)
 49c:	200000f0 	.word	0x200000f0
C:\Users\kruci_000\Desktop\University\SoC\Marsfinder\Marsfinder\Marsfinder_FW\Debug/../drivers/mss_nvm/mss_nvm.c:1203
        {
           /* Status is protection error if lower or upper area of eNVM0 or 
            * eNVM1 is protected 
            */
            status = NVM_PROTECTION_ERROR;
 4a0:	200006a0 	.word	0x200006a0
 4a4:	200006a0 	.word	0x200006a0
C:\Users\kruci_000\Desktop\University\SoC\Marsfinder\Marsfinder\Marsfinder_FW\Debug/../drivers/mss_nvm/mss_nvm.c:1208
        }
        else
        {
            /* Check (offset + length) is out of eNVM memory */
            if((offset + length_minus_one) > NVM1_TOP_OFFSET)
 4a8:	2000f000 	.word	0x2000f000
 4ac:	00005551 	.word	0x00005551
 4b0:	00004341 	.word	0x00004341

000004b4 <SystemInit>:
C:\Users\kruci_000\Desktop\University\SoC\Marsfinder\Marsfinder\Marsfinder_FW\Debug/../drivers/mss_nvm/mss_nvm.c:1210
            {
                status = NVM_INVALID_PARAMETER;
 4b4:	b580      	push	{r7, lr}
 4b6:	af00      	add	r7, sp, #0
 4b8:	f000 f830 	bl	51c <silicon_workarounds>
C:\Users\kruci_000\Desktop\University\SoC\Marsfinder\Marsfinder\Marsfinder_FW\Debug/../drivers/mss_nvm/mss_nvm.c:1215
            }
            else
            {
                /* Check offset is in eNVM reserved memory - 64 pages reserved */
                if(((offset >= NVM1_RSV_OFFSET) && (offset <= NVM1_TOP_OFFSET)) || \
 4bc:	4a04      	ldr	r2, [pc, #16]	; (4d0 <SystemInit+0x1c>)
 4be:	4b04      	ldr	r3, [pc, #16]	; (4d0 <SystemInit+0x1c>)
 4c0:	695b      	ldr	r3, [r3, #20]
 4c2:	f443 7300 	orr.w	r3, r3, #512	; 0x200
C:\Users\kruci_000\Desktop\University\SoC\Marsfinder\Marsfinder\Marsfinder_FW\Debug/../drivers/mss_nvm/mss_nvm.c:1215 (discriminator 1)
 4c6:	6153      	str	r3, [r2, #20]
 4c8:	f7ff ffb4 	bl	434 <mscc_post_hw_cfg_init>
C:\Users\kruci_000\Desktop\University\SoC\Marsfinder\Marsfinder\Marsfinder_FW\Debug/../drivers/mss_nvm/mss_nvm.c:1216 (discriminator 3)
                   (((offset + length_minus_one) >= NVM1_RSV_OFFSET) && \
 4cc:	bd80      	pop	{r7, pc}
 4ce:	bf00      	nop
 4d0:	e000ed00 	.word	0xe000ed00

000004d4 <get_silicon_revision>:
C:\Users\kruci_000\Desktop\University\SoC\Marsfinder\Marsfinder\Marsfinder_FW\Debug/../drivers/mss_nvm/mss_nvm.c:1215 (discriminator 3)
                status = NVM_INVALID_PARAMETER;
            }
            else
            {
                /* Check offset is in eNVM reserved memory - 64 pages reserved */
                if(((offset >= NVM1_RSV_OFFSET) && (offset <= NVM1_TOP_OFFSET)) || \
 4d4:	b480      	push	{r7}
 4d6:	b083      	sub	sp, #12
C:\Users\kruci_000\Desktop\University\SoC\Marsfinder\Marsfinder\Marsfinder_FW\Debug/../drivers/mss_nvm/mss_nvm.c:1216
                   (((offset + length_minus_one) >= NVM1_RSV_OFFSET) && \
 4d8:	af00      	add	r7, sp, #0
 4da:	4b0e      	ldr	r3, [pc, #56]	; (514 <get_silicon_revision+0x40>)
 4dc:	f8d3 314c 	ldr.w	r3, [r3, #332]	; 0x14c
C:\Users\kruci_000\Desktop\University\SoC\Marsfinder\Marsfinder\Marsfinder_FW\Debug/../drivers/mss_nvm/mss_nvm.c:1222
                   (offset < NVM1_RSV_OFFSET)))
                {
                    /* Status is protection error if offset or (offset + length) is 
                     * in reserved area of eNVM
                     */
                    status = NVM_PROTECTION_ERROR;
 4e0:	603b      	str	r3, [r7, #0]
 4e2:	683b      	ldr	r3, [r7, #0]
 4e4:	f64f 0202 	movw	r2, #63490	; 0xf802
C:\Users\kruci_000\Desktop\University\SoC\Marsfinder\Marsfinder\Marsfinder_FW\Debug/../drivers/mss_nvm/mss_nvm.c:1229
                else
                {
                    /* Status is success if offset or (offset + length) is 
                     * in RW access of eNVM memory
                     */
                    status = NVM_SUCCESS;
 4e8:	4293      	cmp	r3, r2
 4ea:	d003      	beq.n	4f4 <get_silicon_revision+0x20>
 4ec:	4a0a      	ldr	r2, [pc, #40]	; (518 <get_silicon_revision+0x44>)
C:\Users\kruci_000\Desktop\University\SoC\Marsfinder\Marsfinder\Marsfinder_FW\Debug/../drivers/mss_nvm/mss_nvm.c:1234
                }
            }
        }
    }
    return status;
 4ee:	4293      	cmp	r3, r2
 4f0:	d003      	beq.n	4fa <get_silicon_revision+0x26>
C:\Users\kruci_000\Desktop\University\SoC\Marsfinder\Marsfinder\Marsfinder_FW\Debug/../drivers/mss_nvm/mss_nvm.c:1235
}
 4f2:	e005      	b.n	500 <get_silicon_revision+0x2c>
 4f4:	2301      	movs	r3, #1
 4f6:	607b      	str	r3, [r7, #4]
 4f8:	e005      	b.n	506 <get_silicon_revision+0x32>
 4fa:	2302      	movs	r3, #2
 4fc:	607b      	str	r3, [r7, #4]
 4fe:	e002      	b.n	506 <get_silicon_revision+0x32>
get_silicon_revision():
C:\Users\kruci_000\Desktop\University\SoC\Marsfinder\Marsfinder\Marsfinder_FW\Debug/../CMSIS/system_m2sxxx.c:932
        case 0x0001F802:
            silicon_revision = M2S050_REV_B_SILICON;
            break;

        default:
            silicon_revision = UNKNOWN_SILICON_REV;
 500:	2300      	movs	r3, #0
 502:	607b      	str	r3, [r7, #4]
C:\Users\kruci_000\Desktop\University\SoC\Marsfinder\Marsfinder\Marsfinder_FW\Debug/../CMSIS/system_m2sxxx.c:933
            break;
 504:	bf00      	nop
C:\Users\kruci_000\Desktop\University\SoC\Marsfinder\Marsfinder\Marsfinder_FW\Debug/../CMSIS/system_m2sxxx.c:936
    }

    return silicon_revision;
 506:	687b      	ldr	r3, [r7, #4]
C:\Users\kruci_000\Desktop\University\SoC\Marsfinder\Marsfinder\Marsfinder_FW\Debug/../CMSIS/system_m2sxxx.c:937
}
 508:	4618      	mov	r0, r3
 50a:	370c      	adds	r7, #12
 50c:	46bd      	mov	sp, r7
 50e:	f85d 7b04 	ldr.w	r7, [sp], #4
 512:	4770      	bx	lr
 514:	40038000 	.word	0x40038000
 518:	0001f802 	.word	0x0001f802

0000051c <silicon_workarounds>:
silicon_workarounds():
C:\Users\kruci_000\Desktop\University\SoC\Marsfinder\Marsfinder\Marsfinder_FW\Debug/../CMSIS/system_m2sxxx.c:943

/*------------------------------------------------------------------------------
  Workarounds for various silicon versions.
 */
static void silicon_workarounds(void)
{
 51c:	b580      	push	{r7, lr}
 51e:	b082      	sub	sp, #8
 520:	af00      	add	r7, sp, #0
C:\Users\kruci_000\Desktop\University\SoC\Marsfinder\Marsfinder\Marsfinder_FW\Debug/../CMSIS/system_m2sxxx.c:946
    uint32_t silicon_revision;

    silicon_revision = get_silicon_revision();
 522:	f7ff ffd7 	bl	4d4 <get_silicon_revision>
 526:	6078      	str	r0, [r7, #4]
C:\Users\kruci_000\Desktop\University\SoC\Marsfinder\Marsfinder\Marsfinder_FW\Debug/../CMSIS/system_m2sxxx.c:948

    switch(silicon_revision)
 528:	687b      	ldr	r3, [r7, #4]
 52a:	2b01      	cmp	r3, #1
 52c:	d000      	beq.n	530 <silicon_workarounds+0x14>
C:\Users\kruci_000\Desktop\University\SoC\Marsfinder\Marsfinder\Marsfinder_FW\Debug/../CMSIS/system_m2sxxx.c:959
        case M2S050_REV_B_SILICON:
            /* Fall through. */
        case UNKNOWN_SILICON_REV:
            /* Fall through. */
        default:
            break;
 52e:	e002      	b.n	536 <silicon_workarounds+0x1a>
C:\Users\kruci_000\Desktop\University\SoC\Marsfinder\Marsfinder\Marsfinder_FW\Debug/../CMSIS/system_m2sxxx.c:951
    silicon_revision = get_silicon_revision();

    switch(silicon_revision)
    {
        case M2S050_REV_A_SILICON:
            m2s050_rev_a_workarounds();
 530:	f000 f804 	bl	53c <m2s050_rev_a_workarounds>
C:\Users\kruci_000\Desktop\University\SoC\Marsfinder\Marsfinder\Marsfinder_FW\Debug/../CMSIS/system_m2sxxx.c:952
            break;
 534:	bf00      	nop
C:\Users\kruci_000\Desktop\University\SoC\Marsfinder\Marsfinder\Marsfinder_FW\Debug/../CMSIS/system_m2sxxx.c:961
        case UNKNOWN_SILICON_REV:
            /* Fall through. */
        default:
            break;
    }
}
 536:	3708      	adds	r7, #8
 538:	46bd      	mov	sp, r7
 53a:	bd80      	pop	{r7, pc}

0000053c <m2s050_rev_a_workarounds>:
m2s050_rev_a_workarounds():
C:\Users\kruci_000\Desktop\University\SoC\Marsfinder\Marsfinder\Marsfinder_FW\Debug/../CMSIS/system_m2sxxx.c:967

/*------------------------------------------------------------------------------
  Silicon workarounds for M2S050 rev A.
 */
static void m2s050_rev_a_workarounds(void)
{
 53c:	b480      	push	{r7}
 53e:	af00      	add	r7, sp, #0
C:\Users\kruci_000\Desktop\University\SoC\Marsfinder\Marsfinder\Marsfinder_FW\Debug/../CMSIS/system_m2sxxx.c:972
    /*--------------------------------------------------------------------------
     * Work around a couple of silicon issues:
     */
    /* DDR_CLK_EN <- 1 */
    SYSREG->MSSDDR_FACC1_CR |= (uint32_t)1 << DDR_CLK_EN_SHIFT;
 540:	4a09      	ldr	r2, [pc, #36]	; (568 <m2s050_rev_a_workarounds+0x2c>)
 542:	4b09      	ldr	r3, [pc, #36]	; (568 <m2s050_rev_a_workarounds+0x2c>)
 544:	f8d3 3098 	ldr.w	r3, [r3, #152]	; 0x98
 548:	f443 7380 	orr.w	r3, r3, #256	; 0x100
 54c:	f8c2 3098 	str.w	r3, [r2, #152]	; 0x98
C:\Users\kruci_000\Desktop\University\SoC\Marsfinder\Marsfinder\Marsfinder_FW\Debug/../CMSIS/system_m2sxxx.c:975

    /* CONTROLLER_PLL_INIT <- 0 */
    SYSREG->MSSDDR_FACC1_CR = SYSREG->MSSDDR_FACC1_CR & ~CONTROLLER_PLL_INIT_MASK;
 550:	4a05      	ldr	r2, [pc, #20]	; (568 <m2s050_rev_a_workarounds+0x2c>)
 552:	4b05      	ldr	r3, [pc, #20]	; (568 <m2s050_rev_a_workarounds+0x2c>)
 554:	f8d3 3098 	ldr.w	r3, [r3, #152]	; 0x98
 558:	f023 6380 	bic.w	r3, r3, #67108864	; 0x4000000
 55c:	f8c2 3098 	str.w	r3, [r2, #152]	; 0x98
C:\Users\kruci_000\Desktop\University\SoC\Marsfinder\Marsfinder\Marsfinder_FW\Debug/../CMSIS/system_m2sxxx.c:976
}
 560:	46bd      	mov	sp, r7
 562:	f85d 7b04 	ldr.w	r7, [sp], #4
 566:	4770      	bx	lr
 568:	40038000 	.word	0x40038000
$d():
 56c:	00000000 	.word	0x00000000

Disassembly of section .text:

00000570 <__do_global_dtors_aux>:
$t():
     570:	b510      	push	{r4, lr}
     572:	4c05      	ldr	r4, [pc, #20]	; (588 <__do_global_dtors_aux+0x18>)
     574:	7823      	ldrb	r3, [r4, #0]
     576:	b933      	cbnz	r3, 586 <__do_global_dtors_aux+0x16>
     578:	4b04      	ldr	r3, [pc, #16]	; (58c <__do_global_dtors_aux+0x1c>)
     57a:	b113      	cbz	r3, 582 <__do_global_dtors_aux+0x12>
     57c:	4804      	ldr	r0, [pc, #16]	; (590 <__do_global_dtors_aux+0x20>)
     57e:	f3af 8000 	nop.w
     582:	2301      	movs	r3, #1
     584:	7023      	strb	r3, [r4, #0]
     586:	bd10      	pop	{r4, pc}
$d():
     588:	200000f0 	.word	0x200000f0
     58c:	00000000 	.word	0x00000000
     590:	000056e4 	.word	0x000056e4

00000594 <frame_dummy>:
$t():
     594:	4b08      	ldr	r3, [pc, #32]	; (5b8 <frame_dummy+0x24>)
     596:	b510      	push	{r4, lr}
     598:	b11b      	cbz	r3, 5a2 <frame_dummy+0xe>
     59a:	4808      	ldr	r0, [pc, #32]	; (5bc <frame_dummy+0x28>)
     59c:	4908      	ldr	r1, [pc, #32]	; (5c0 <frame_dummy+0x2c>)
     59e:	f3af 8000 	nop.w
     5a2:	4808      	ldr	r0, [pc, #32]	; (5c4 <frame_dummy+0x30>)
     5a4:	6803      	ldr	r3, [r0, #0]
     5a6:	b903      	cbnz	r3, 5aa <frame_dummy+0x16>
     5a8:	bd10      	pop	{r4, pc}
     5aa:	4b07      	ldr	r3, [pc, #28]	; (5c8 <frame_dummy+0x34>)
     5ac:	2b00      	cmp	r3, #0
     5ae:	d0fb      	beq.n	5a8 <frame_dummy+0x14>
     5b0:	e8bd 4010 	ldmia.w	sp!, {r4, lr}
     5b4:	4718      	bx	r3
     5b6:	bf00      	nop
$d():
     5b8:	00000000 	.word	0x00000000
     5bc:	000056e4 	.word	0x000056e4
     5c0:	200000f4 	.word	0x200000f4
     5c4:	20000000 	.word	0x20000000
     5c8:	00000000 	.word	0x00000000

000005cc <HAL_disable_interrupts>:
$t():
C:\Users\kruci_000\Desktop\University\SoC\Marsfinder\Marsfinder\Marsfinder_FW\Debug/../hal/CortexM3/GNU/hal.S:20
    .type HAL_restore_interrupts, function
#-------------------------------------------------------------------------------
# 
#
HAL_disable_interrupts:    
    mrs r0, PRIMASK
     5cc:	f3ef 8010 	mrs	r0, PRIMASK
C:\Users\kruci_000\Desktop\University\SoC\Marsfinder\Marsfinder\Marsfinder_FW\Debug/../hal/CortexM3/GNU/hal.S:21
    cpsid I
     5d0:	b672      	cpsid	i
C:\Users\kruci_000\Desktop\University\SoC\Marsfinder\Marsfinder\Marsfinder_FW\Debug/../hal/CortexM3/GNU/hal.S:22
    bx lr
     5d2:	4770      	bx	lr

000005d4 <HAL_restore_interrupts>:
HAL_restore_interrupts():
C:\Users\kruci_000\Desktop\University\SoC\Marsfinder\Marsfinder\Marsfinder_FW\Debug/../hal/CortexM3/GNU/hal.S:28

#-------------------------------------------------------------------------------
#
#
HAL_restore_interrupts:    
    msr PRIMASK, r0
     5d4:	f380 8810 	msr	PRIMASK, r0
C:\Users\kruci_000\Desktop\University\SoC\Marsfinder\Marsfinder\Marsfinder_FW\Debug/../hal/CortexM3/GNU/hal.S:29
    bx lr
     5d8:	4770      	bx	lr

000005da <HW_set_32bit_reg>:
$t():
C:\Users\kruci_000\Desktop\University\SoC\Marsfinder\Marsfinder\Marsfinder_FW\Debug/../hal/CortexM3/GNU/hw_reg_access.S:41
/*------------------------------------------------------------------------------
 * R0:   addr_t reg_addr
 * R1:   uint32_t value
 */
HW_set_32bit_reg:
    STR R1, [R0]
     5da:	6001      	str	r1, [r0, #0]
C:\Users\kruci_000\Desktop\University\SoC\Marsfinder\Marsfinder\Marsfinder_FW\Debug/../hal/CortexM3/GNU/hw_reg_access.S:42
    BX LR
     5dc:	4770      	bx	lr

000005de <HW_get_32bit_reg>:
HW_get_32bit_reg():
C:\Users\kruci_000\Desktop\University\SoC\Marsfinder\Marsfinder\Marsfinder_FW\Debug/../hal/CortexM3/GNU/hw_reg_access.S:48

/*------------------------------------------------------------------------------
 * R0:   addr_t reg_addr
 */      
HW_get_32bit_reg:
    LDR R0, [R0]
     5de:	6800      	ldr	r0, [r0, #0]
C:\Users\kruci_000\Desktop\University\SoC\Marsfinder\Marsfinder\Marsfinder_FW\Debug/../hal/CortexM3/GNU/hw_reg_access.S:49
    BX LR
     5e0:	4770      	bx	lr

000005e2 <HW_set_32bit_reg_field>:
HW_set_32bit_reg_field():
C:\Users\kruci_000\Desktop\University\SoC\Marsfinder\Marsfinder\Marsfinder_FW\Debug/../hal/CortexM3/GNU/hw_reg_access.S:58
 * R1:   int_fast8_t shift
 * R2:   uint32_t mask
 * R3:   uint32_t value
 */
HW_set_32bit_reg_field:
    PUSH {R1,R2,R3,LR}
     5e2:	b50e      	push	{r1, r2, r3, lr}
C:\Users\kruci_000\Desktop\University\SoC\Marsfinder\Marsfinder\Marsfinder_FW\Debug/../hal/CortexM3/GNU/hw_reg_access.S:59
    LSL.W R3, R3, R1
     5e4:	fa03 f301 	lsl.w	r3, r3, r1
C:\Users\kruci_000\Desktop\University\SoC\Marsfinder\Marsfinder\Marsfinder_FW\Debug/../hal/CortexM3/GNU/hw_reg_access.S:60
    AND.W R3, R3, R2
     5e8:	ea03 0302 	and.w	r3, r3, r2
C:\Users\kruci_000\Desktop\University\SoC\Marsfinder\Marsfinder\Marsfinder_FW\Debug/../hal/CortexM3/GNU/hw_reg_access.S:61
    LDR R1, [R0]
     5ec:	6801      	ldr	r1, [r0, #0]
C:\Users\kruci_000\Desktop\University\SoC\Marsfinder\Marsfinder\Marsfinder_FW\Debug/../hal/CortexM3/GNU/hw_reg_access.S:62
    MVN.W R2, R2
     5ee:	ea6f 0202 	mvn.w	r2, r2
C:\Users\kruci_000\Desktop\University\SoC\Marsfinder\Marsfinder\Marsfinder_FW\Debug/../hal/CortexM3/GNU/hw_reg_access.S:63
    AND.W R1, R1, R2
     5f2:	ea01 0102 	and.w	r1, r1, r2
C:\Users\kruci_000\Desktop\University\SoC\Marsfinder\Marsfinder\Marsfinder_FW\Debug/../hal/CortexM3/GNU/hw_reg_access.S:64
    ORR.W R1, R1, R3
     5f6:	ea41 0103 	orr.w	r1, r1, r3
C:\Users\kruci_000\Desktop\University\SoC\Marsfinder\Marsfinder\Marsfinder_FW\Debug/../hal/CortexM3/GNU/hw_reg_access.S:65
    STR R1, [R0]
     5fa:	6001      	str	r1, [r0, #0]
C:\Users\kruci_000\Desktop\University\SoC\Marsfinder\Marsfinder\Marsfinder_FW\Debug/../hal/CortexM3/GNU/hw_reg_access.S:66
    POP {R1,R2,R3,PC}
     5fc:	bd0e      	pop	{r1, r2, r3, pc}

000005fe <HW_get_32bit_reg_field>:
HW_get_32bit_reg_field():
C:\Users\kruci_000\Desktop\University\SoC\Marsfinder\Marsfinder\Marsfinder_FW\Debug/../hal/CortexM3/GNU/hw_reg_access.S:74
 * R0:   addr_t reg_addr
 * R1:   int_fast8_t shift
 * R2:   uint32_t mask
 */
HW_get_32bit_reg_field:
    LDR R0, [R0]
     5fe:	6800      	ldr	r0, [r0, #0]
C:\Users\kruci_000\Desktop\University\SoC\Marsfinder\Marsfinder\Marsfinder_FW\Debug/../hal/CortexM3/GNU/hw_reg_access.S:75
    AND.W R0, R0, R2
     600:	ea00 0002 	and.w	r0, r0, r2
C:\Users\kruci_000\Desktop\University\SoC\Marsfinder\Marsfinder\Marsfinder_FW\Debug/../hal/CortexM3/GNU/hw_reg_access.S:76
    LSR.W R0, R0, R1
     604:	fa20 f001 	lsr.w	r0, r0, r1
C:\Users\kruci_000\Desktop\University\SoC\Marsfinder\Marsfinder\Marsfinder_FW\Debug/../hal/CortexM3/GNU/hw_reg_access.S:77
    BX LR
     608:	4770      	bx	lr

0000060a <HW_set_16bit_reg>:
HW_set_16bit_reg():
C:\Users\kruci_000\Desktop\University\SoC\Marsfinder\Marsfinder\Marsfinder_FW\Debug/../hal/CortexM3/GNU/hw_reg_access.S:84
/*------------------------------------------------------------------------------
 * R0:   addr_t reg_addr
 * R1:   uint_fast16_t value
 */
HW_set_16bit_reg:
    STRH R1, [R0]
     60a:	8001      	strh	r1, [r0, #0]
C:\Users\kruci_000\Desktop\University\SoC\Marsfinder\Marsfinder\Marsfinder_FW\Debug/../hal/CortexM3/GNU/hw_reg_access.S:85
    BX LR
     60c:	4770      	bx	lr

0000060e <HW_get_16bit_reg>:
HW_get_16bit_reg():
C:\Users\kruci_000\Desktop\University\SoC\Marsfinder\Marsfinder\Marsfinder_FW\Debug/../hal/CortexM3/GNU/hw_reg_access.S:91
        
/*------------------------------------------------------------------------------
 * R0:   addr_t reg_addr
 */
HW_get_16bit_reg:
    LDRH R0, [R0]
     60e:	8800      	ldrh	r0, [r0, #0]
C:\Users\kruci_000\Desktop\University\SoC\Marsfinder\Marsfinder\Marsfinder_FW\Debug/../hal/CortexM3/GNU/hw_reg_access.S:92
    BX LR
     610:	4770      	bx	lr

00000612 <HW_set_16bit_reg_field>:
HW_set_16bit_reg_field():
C:\Users\kruci_000\Desktop\University\SoC\Marsfinder\Marsfinder\Marsfinder_FW\Debug/../hal/CortexM3/GNU/hw_reg_access.S:101
 * R1:   int_fast8_t shift
 * R2:   uint_fast16_t mask
 * R3:   uint_fast16_t value
 */
HW_set_16bit_reg_field:
    PUSH {R1,R2,R3,LR}
     612:	b50e      	push	{r1, r2, r3, lr}
C:\Users\kruci_000\Desktop\University\SoC\Marsfinder\Marsfinder\Marsfinder_FW\Debug/../hal/CortexM3/GNU/hw_reg_access.S:102
    LSL.W R3, R3, R1
     614:	fa03 f301 	lsl.w	r3, r3, r1
C:\Users\kruci_000\Desktop\University\SoC\Marsfinder\Marsfinder\Marsfinder_FW\Debug/../hal/CortexM3/GNU/hw_reg_access.S:103
    AND.W R3, R3, R2
     618:	ea03 0302 	and.w	r3, r3, r2
C:\Users\kruci_000\Desktop\University\SoC\Marsfinder\Marsfinder\Marsfinder_FW\Debug/../hal/CortexM3/GNU/hw_reg_access.S:104
    LDRH R1, [R0]
     61c:	8801      	ldrh	r1, [r0, #0]
C:\Users\kruci_000\Desktop\University\SoC\Marsfinder\Marsfinder\Marsfinder_FW\Debug/../hal/CortexM3/GNU/hw_reg_access.S:105
    MVN.W R2, R2
     61e:	ea6f 0202 	mvn.w	r2, r2
C:\Users\kruci_000\Desktop\University\SoC\Marsfinder\Marsfinder\Marsfinder_FW\Debug/../hal/CortexM3/GNU/hw_reg_access.S:106
    AND.W R1, R1, R2
     622:	ea01 0102 	and.w	r1, r1, r2
C:\Users\kruci_000\Desktop\University\SoC\Marsfinder\Marsfinder\Marsfinder_FW\Debug/../hal/CortexM3/GNU/hw_reg_access.S:107
    ORR.W R1, R1, R3
     626:	ea41 0103 	orr.w	r1, r1, r3
C:\Users\kruci_000\Desktop\University\SoC\Marsfinder\Marsfinder\Marsfinder_FW\Debug/../hal/CortexM3/GNU/hw_reg_access.S:108
    STRH R1, [R0]
     62a:	8001      	strh	r1, [r0, #0]
C:\Users\kruci_000\Desktop\University\SoC\Marsfinder\Marsfinder\Marsfinder_FW\Debug/../hal/CortexM3/GNU/hw_reg_access.S:109
    POP {R1,R2,R3,PC}
     62c:	bd0e      	pop	{r1, r2, r3, pc}

0000062e <HW_get_16bit_reg_field>:
HW_get_16bit_reg_field():
C:\Users\kruci_000\Desktop\University\SoC\Marsfinder\Marsfinder\Marsfinder_FW\Debug/../hal/CortexM3/GNU/hw_reg_access.S:117
 * R0:   addr_t reg_addr
 * R1:   int_fast8_t shift
 * R2:   uint_fast16_t mask
 */
HW_get_16bit_reg_field:
    LDRH R0, [R0]
     62e:	8800      	ldrh	r0, [r0, #0]
C:\Users\kruci_000\Desktop\University\SoC\Marsfinder\Marsfinder\Marsfinder_FW\Debug/../hal/CortexM3/GNU/hw_reg_access.S:118
    AND.W R0, R0, R2
     630:	ea00 0002 	and.w	r0, r0, r2
C:\Users\kruci_000\Desktop\University\SoC\Marsfinder\Marsfinder\Marsfinder_FW\Debug/../hal/CortexM3/GNU/hw_reg_access.S:119
    LSR.W R0, R0, R1
     634:	fa20 f001 	lsr.w	r0, r0, r1
C:\Users\kruci_000\Desktop\University\SoC\Marsfinder\Marsfinder\Marsfinder_FW\Debug/../hal/CortexM3/GNU/hw_reg_access.S:120
    BX LR
     638:	4770      	bx	lr

0000063a <HW_set_8bit_reg>:
HW_set_8bit_reg():
C:\Users\kruci_000\Desktop\University\SoC\Marsfinder\Marsfinder\Marsfinder_FW\Debug/../hal/CortexM3/GNU/hw_reg_access.S:127
/*------------------------------------------------------------------------------
 * R0:   addr_t reg_addr
 * R1:   uint_fast8_t value
 */
HW_set_8bit_reg:
    STRB R1, [R0]
     63a:	7001      	strb	r1, [r0, #0]
C:\Users\kruci_000\Desktop\University\SoC\Marsfinder\Marsfinder\Marsfinder_FW\Debug/../hal/CortexM3/GNU/hw_reg_access.S:128
    BX LR
     63c:	4770      	bx	lr

0000063e <HW_get_8bit_reg>:
HW_get_8bit_reg():
C:\Users\kruci_000\Desktop\University\SoC\Marsfinder\Marsfinder\Marsfinder_FW\Debug/../hal/CortexM3/GNU/hw_reg_access.S:134
        
/*------------------------------------------------------------------------------
 * R0:   addr_t reg_addr
 */
HW_get_8bit_reg:
    LDRB R0, [R0]
     63e:	7800      	ldrb	r0, [r0, #0]
C:\Users\kruci_000\Desktop\University\SoC\Marsfinder\Marsfinder\Marsfinder_FW\Debug/../hal/CortexM3/GNU/hw_reg_access.S:135
    BX LR
     640:	4770      	bx	lr

00000642 <HW_set_8bit_reg_field>:
HW_set_8bit_reg_field():
C:\Users\kruci_000\Desktop\University\SoC\Marsfinder\Marsfinder\Marsfinder_FW\Debug/../hal/CortexM3/GNU/hw_reg_access.S:144
 * R1:   int_fast8_t shift
 * R2:   uint_fast8_t mask
 * R3:   uint_fast8_t value
 */
HW_set_8bit_reg_field:
    PUSH {R1,R2,R3,LR}
     642:	b50e      	push	{r1, r2, r3, lr}
C:\Users\kruci_000\Desktop\University\SoC\Marsfinder\Marsfinder\Marsfinder_FW\Debug/../hal/CortexM3/GNU/hw_reg_access.S:145
    LSL.W R3, R3, R1
     644:	fa03 f301 	lsl.w	r3, r3, r1
C:\Users\kruci_000\Desktop\University\SoC\Marsfinder\Marsfinder\Marsfinder_FW\Debug/../hal/CortexM3/GNU/hw_reg_access.S:146
    AND.W R3, R3, R2
     648:	ea03 0302 	and.w	r3, r3, r2
C:\Users\kruci_000\Desktop\University\SoC\Marsfinder\Marsfinder\Marsfinder_FW\Debug/../hal/CortexM3/GNU/hw_reg_access.S:147
    LDRB R1, [R0]
     64c:	7801      	ldrb	r1, [r0, #0]
C:\Users\kruci_000\Desktop\University\SoC\Marsfinder\Marsfinder\Marsfinder_FW\Debug/../hal/CortexM3/GNU/hw_reg_access.S:148
    MVN.W R2, R2
     64e:	ea6f 0202 	mvn.w	r2, r2
C:\Users\kruci_000\Desktop\University\SoC\Marsfinder\Marsfinder\Marsfinder_FW\Debug/../hal/CortexM3/GNU/hw_reg_access.S:149
    AND.W R1, R1, R2
     652:	ea01 0102 	and.w	r1, r1, r2
C:\Users\kruci_000\Desktop\University\SoC\Marsfinder\Marsfinder\Marsfinder_FW\Debug/../hal/CortexM3/GNU/hw_reg_access.S:150
    ORR.W R1, R1, R3
     656:	ea41 0103 	orr.w	r1, r1, r3
C:\Users\kruci_000\Desktop\University\SoC\Marsfinder\Marsfinder\Marsfinder_FW\Debug/../hal/CortexM3/GNU/hw_reg_access.S:151
    STRB R1, [R0]
     65a:	7001      	strb	r1, [r0, #0]
C:\Users\kruci_000\Desktop\University\SoC\Marsfinder\Marsfinder\Marsfinder_FW\Debug/../hal/CortexM3/GNU/hw_reg_access.S:152
    POP {R1,R2,R3,PC}
     65c:	bd0e      	pop	{r1, r2, r3, pc}

0000065e <HW_get_8bit_reg_field>:
HW_get_8bit_reg_field():
C:\Users\kruci_000\Desktop\University\SoC\Marsfinder\Marsfinder\Marsfinder_FW\Debug/../hal/CortexM3/GNU/hw_reg_access.S:160
 * R0:   addr_t reg_addr
 * R1:   int_fast8_t shift
 * R2:   uint_fast8_t mask
 */
HW_get_8bit_reg_field:
    LDRB R0, [R0]
     65e:	7800      	ldrb	r0, [r0, #0]
C:\Users\kruci_000\Desktop\University\SoC\Marsfinder\Marsfinder\Marsfinder_FW\Debug/../hal/CortexM3/GNU/hw_reg_access.S:161
    AND.W R0, R0, R2
     660:	ea00 0002 	and.w	r0, r0, r2
C:\Users\kruci_000\Desktop\University\SoC\Marsfinder\Marsfinder\Marsfinder_FW\Debug/../hal/CortexM3/GNU/hw_reg_access.S:162
    LSR.W R0, R0, R1
     664:	fa20 f001 	lsr.w	r0, r0, r1
C:\Users\kruci_000\Desktop\University\SoC\Marsfinder\Marsfinder\Marsfinder_FW\Debug/../hal/CortexM3/GNU/hw_reg_access.S:163
    BX LR
     668:	4770      	bx	lr
	...

0000066c <ComBlk_IRQHandler>:
ComBlk_IRQHandler():
C:\Users\kruci_000\Desktop\University\SoC\Marsfinder\Marsfinder\Marsfinder_FW\Debug/../drivers/mss_sys_services/mss_comblk.c:360

/*==============================================================================
 * COMBLK interrupt handler.
 */
void ComBlk_IRQHandler(void)
{
     66c:	b580      	push	{r7, lr}
     66e:	b082      	sub	sp, #8
     670:	af00      	add	r7, sp, #0
C:\Users\kruci_000\Desktop\University\SoC\Marsfinder\Marsfinder\Marsfinder_FW\Debug/../drivers/mss_sys_services/mss_comblk.c:365
    uint8_t status;
    uint8_t tx_okay;
    uint8_t rcv_okay;
    
    status = (uint8_t)COMBLK->STATUS;
     672:	4b0f      	ldr	r3, [pc, #60]	; (6b0 <ComBlk_IRQHandler+0x44>)
     674:	685b      	ldr	r3, [r3, #4]
     676:	71fb      	strb	r3, [r7, #7]
C:\Users\kruci_000\Desktop\University\SoC\Marsfinder\Marsfinder\Marsfinder_FW\Debug/../drivers/mss_sys_services/mss_comblk.c:368
    
    /* Mask off interrupt that are not enabled.*/
    status &= COMBLK->INT_ENABLE;
     678:	4b0d      	ldr	r3, [pc, #52]	; (6b0 <ComBlk_IRQHandler+0x44>)
     67a:	689b      	ldr	r3, [r3, #8]
     67c:	b2da      	uxtb	r2, r3
     67e:	79fb      	ldrb	r3, [r7, #7]
     680:	4013      	ands	r3, r2
     682:	71fb      	strb	r3, [r7, #7]
C:\Users\kruci_000\Desktop\University\SoC\Marsfinder\Marsfinder\Marsfinder_FW\Debug/../drivers/mss_sys_services/mss_comblk.c:370
    
    rcv_okay = status & RCVOKAY_MASK;
     684:	79fb      	ldrb	r3, [r7, #7]
     686:	f003 0302 	and.w	r3, r3, #2
     68a:	71bb      	strb	r3, [r7, #6]
C:\Users\kruci_000\Desktop\University\SoC\Marsfinder\Marsfinder\Marsfinder_FW\Debug/../drivers/mss_sys_services/mss_comblk.c:372
    
    if(rcv_okay)
     68c:	79bb      	ldrb	r3, [r7, #6]
     68e:	2b00      	cmp	r3, #0
     690:	d001      	beq.n	696 <ComBlk_IRQHandler+0x2a>
C:\Users\kruci_000\Desktop\University\SoC\Marsfinder\Marsfinder\Marsfinder_FW\Debug/../drivers/mss_sys_services/mss_comblk.c:374
    {
        handle_rx_okay_irq();
     692:	f000 f8e7 	bl	864 <handle_rx_okay_irq>
C:\Users\kruci_000\Desktop\University\SoC\Marsfinder\Marsfinder\Marsfinder_FW\Debug/../drivers/mss_sys_services/mss_comblk.c:377
    }
        
    tx_okay = status & TXTOKAY_MASK;
     696:	79fb      	ldrb	r3, [r7, #7]
     698:	f003 0301 	and.w	r3, r3, #1
     69c:	717b      	strb	r3, [r7, #5]
C:\Users\kruci_000\Desktop\University\SoC\Marsfinder\Marsfinder\Marsfinder_FW\Debug/../drivers/mss_sys_services/mss_comblk.c:378
    if(tx_okay)
     69e:	797b      	ldrb	r3, [r7, #5]
     6a0:	2b00      	cmp	r3, #0
     6a2:	d001      	beq.n	6a8 <ComBlk_IRQHandler+0x3c>
C:\Users\kruci_000\Desktop\University\SoC\Marsfinder\Marsfinder\Marsfinder_FW\Debug/../drivers/mss_sys_services/mss_comblk.c:380
    {
        handle_tx_okay_irq();
     6a4:	f000 f806 	bl	6b4 <handle_tx_okay_irq>
C:\Users\kruci_000\Desktop\University\SoC\Marsfinder\Marsfinder\Marsfinder_FW\Debug/../drivers/mss_sys_services/mss_comblk.c:382
    }
}
     6a8:	3708      	adds	r7, #8
     6aa:	46bd      	mov	sp, r7
     6ac:	bd80      	pop	{r7, pc}
     6ae:	bf00      	nop
     6b0:	40016000 	.word	0x40016000

000006b4 <handle_tx_okay_irq>:
handle_tx_okay_irq():
C:\Users\kruci_000\Desktop\University\SoC\Marsfinder\Marsfinder\Marsfinder_FW\Debug/../drivers/mss_sys_services/mss_comblk.c:388

/*==============================================================================
 *
 */
static void handle_tx_okay_irq(void)
{
     6b4:	b580      	push	{r7, lr}
     6b6:	b084      	sub	sp, #16
     6b8:	af00      	add	r7, sp, #0
C:\Users\kruci_000\Desktop\University\SoC\Marsfinder\Marsfinder\Marsfinder_FW\Debug/../drivers/mss_sys_services/mss_comblk.c:389
    switch(g_comblk_state)
     6ba:	4b63      	ldr	r3, [pc, #396]	; (848 <handle_tx_okay_irq+0x194>)
     6bc:	781b      	ldrb	r3, [r3, #0]
     6be:	2b02      	cmp	r3, #2
     6c0:	d03f      	beq.n	742 <handle_tx_okay_irq+0x8e>
     6c2:	2b05      	cmp	r3, #5
     6c4:	d06b      	beq.n	79e <handle_tx_okay_irq+0xea>
     6c6:	2b01      	cmp	r3, #1
     6c8:	f040 80ad 	bne.w	826 <handle_tx_okay_irq+0x172>
C:\Users\kruci_000\Desktop\University\SoC\Marsfinder\Marsfinder\Marsfinder_FW\Debug/../drivers/mss_sys_services/mss_comblk.c:396
        /*----------------------------------------------------------------------
         * The TX_OKAY interrupt should only be enabled for states COMBLK_TX_CMD
         * and COMBLK_TX_DATA.
         */
        case COMBLK_TX_CMD:
            if(g_comblk_cmd_size > 0u)
     6cc:	4b5f      	ldr	r3, [pc, #380]	; (84c <handle_tx_okay_irq+0x198>)
     6ce:	881b      	ldrh	r3, [r3, #0]
     6d0:	b29b      	uxth	r3, r3
     6d2:	2b00      	cmp	r3, #0
     6d4:	d030      	beq.n	738 <handle_tx_okay_irq+0x84>
C:\Users\kruci_000\Desktop\University\SoC\Marsfinder\Marsfinder\Marsfinder_FW\Debug/../drivers/mss_sys_services/mss_comblk.c:399
            {
                uint32_t size_sent;
                size_sent = fill_tx_fifo(g_comblk_p_cmd, g_comblk_cmd_size);
     6d6:	4b5e      	ldr	r3, [pc, #376]	; (850 <handle_tx_okay_irq+0x19c>)
     6d8:	681a      	ldr	r2, [r3, #0]
     6da:	4b5c      	ldr	r3, [pc, #368]	; (84c <handle_tx_okay_irq+0x198>)
     6dc:	881b      	ldrh	r3, [r3, #0]
     6de:	b29b      	uxth	r3, r3
     6e0:	4610      	mov	r0, r2
     6e2:	4619      	mov	r1, r3
     6e4:	f000 fa04 	bl	af0 <fill_tx_fifo>
     6e8:	60f8      	str	r0, [r7, #12]
C:\Users\kruci_000\Desktop\University\SoC\Marsfinder\Marsfinder\Marsfinder_FW\Debug/../drivers/mss_sys_services/mss_comblk.c:400
                if(size_sent < g_comblk_cmd_size)
     6ea:	4b58      	ldr	r3, [pc, #352]	; (84c <handle_tx_okay_irq+0x198>)
     6ec:	881b      	ldrh	r3, [r3, #0]
     6ee:	b29b      	uxth	r3, r3
     6f0:	461a      	mov	r2, r3
     6f2:	68fb      	ldr	r3, [r7, #12]
     6f4:	429a      	cmp	r2, r3
     6f6:	d90f      	bls.n	718 <handle_tx_okay_irq+0x64>
C:\Users\kruci_000\Desktop\University\SoC\Marsfinder\Marsfinder\Marsfinder_FW\Debug/../drivers/mss_sys_services/mss_comblk.c:402
                {
                    g_comblk_cmd_size = g_comblk_cmd_size - (uint16_t)size_sent;
     6f8:	4b54      	ldr	r3, [pc, #336]	; (84c <handle_tx_okay_irq+0x198>)
     6fa:	881b      	ldrh	r3, [r3, #0]
     6fc:	b29a      	uxth	r2, r3
     6fe:	68fb      	ldr	r3, [r7, #12]
     700:	b29b      	uxth	r3, r3
     702:	1ad3      	subs	r3, r2, r3
     704:	b29a      	uxth	r2, r3
     706:	4b51      	ldr	r3, [pc, #324]	; (84c <handle_tx_okay_irq+0x198>)
     708:	801a      	strh	r2, [r3, #0]
C:\Users\kruci_000\Desktop\University\SoC\Marsfinder\Marsfinder\Marsfinder_FW\Debug/../drivers/mss_sys_services/mss_comblk.c:403
                    g_comblk_p_cmd = &g_comblk_p_cmd[size_sent];
     70a:	4b51      	ldr	r3, [pc, #324]	; (850 <handle_tx_okay_irq+0x19c>)
     70c:	681a      	ldr	r2, [r3, #0]
     70e:	68fb      	ldr	r3, [r7, #12]
     710:	4413      	add	r3, r2
     712:	4a4f      	ldr	r2, [pc, #316]	; (850 <handle_tx_okay_irq+0x19c>)
     714:	6013      	str	r3, [r2, #0]
     716:	e00e      	b.n	736 <handle_tx_okay_irq+0x82>
C:\Users\kruci_000\Desktop\University\SoC\Marsfinder\Marsfinder\Marsfinder_FW\Debug/../drivers/mss_sys_services/mss_comblk.c:407
                }
                else
                {
                    g_comblk_cmd_size = 0u;
     718:	4b4c      	ldr	r3, [pc, #304]	; (84c <handle_tx_okay_irq+0x198>)
     71a:	2200      	movs	r2, #0
     71c:	801a      	strh	r2, [r3, #0]
C:\Users\kruci_000\Desktop\University\SoC\Marsfinder\Marsfinder\Marsfinder_FW\Debug/../drivers/mss_sys_services/mss_comblk.c:408
                    if(g_comblk_data_size > 0u)
     71e:	4b4d      	ldr	r3, [pc, #308]	; (854 <handle_tx_okay_irq+0x1a0>)
     720:	681b      	ldr	r3, [r3, #0]
     722:	2b00      	cmp	r3, #0
     724:	d003      	beq.n	72e <handle_tx_okay_irq+0x7a>
C:\Users\kruci_000\Desktop\University\SoC\Marsfinder\Marsfinder\Marsfinder_FW\Debug/../drivers/mss_sys_services/mss_comblk.c:410
                    {
                        g_comblk_state = COMBLK_TX_DATA;
     726:	4b48      	ldr	r3, [pc, #288]	; (848 <handle_tx_okay_irq+0x194>)
     728:	2202      	movs	r2, #2
     72a:	701a      	strb	r2, [r3, #0]
     72c:	e003      	b.n	736 <handle_tx_okay_irq+0x82>
C:\Users\kruci_000\Desktop\University\SoC\Marsfinder\Marsfinder\Marsfinder_FW\Debug/../drivers/mss_sys_services/mss_comblk.c:414
                    }
                    else
                    {
                        g_comblk_state = COMBLK_WAIT_RESPONSE;
     72e:	4b46      	ldr	r3, [pc, #280]	; (848 <handle_tx_okay_irq+0x194>)
     730:	2203      	movs	r2, #3
     732:	701a      	strb	r2, [r3, #0]
     734:	e004      	b.n	740 <handle_tx_okay_irq+0x8c>
     736:	e003      	b.n	740 <handle_tx_okay_irq+0x8c>
C:\Users\kruci_000\Desktop\University\SoC\Marsfinder\Marsfinder\Marsfinder_FW\Debug/../drivers/mss_sys_services/mss_comblk.c:424 (discriminator 1)
            {
                /*
                 * This is an invalid situation indicating a bug in the driver
                 * or corrupted memory.
                 */
                ASSERT(0);
     738:	be00      	bkpt	0x0000
C:\Users\kruci_000\Desktop\University\SoC\Marsfinder\Marsfinder\Marsfinder_FW\Debug/../drivers/mss_sys_services/mss_comblk.c:425 (discriminator 1)
                abort_current_cmd();
     73a:	f000 f9b5 	bl	aa8 <abort_current_cmd>
C:\Users\kruci_000\Desktop\University\SoC\Marsfinder\Marsfinder\Marsfinder_FW\Debug/../drivers/mss_sys_services/mss_comblk.c:427 (discriminator 1)
            }
        break;
     73e:	e07f      	b.n	840 <handle_tx_okay_irq+0x18c>
     740:	e07e      	b.n	840 <handle_tx_okay_irq+0x18c>
C:\Users\kruci_000\Desktop\University\SoC\Marsfinder\Marsfinder\Marsfinder_FW\Debug/../drivers/mss_sys_services/mss_comblk.c:430
            
        case COMBLK_TX_DATA:
            if(g_comblk_data_size > 0u)
     742:	4b44      	ldr	r3, [pc, #272]	; (854 <handle_tx_okay_irq+0x1a0>)
     744:	681b      	ldr	r3, [r3, #0]
     746:	2b00      	cmp	r3, #0
     748:	d024      	beq.n	794 <handle_tx_okay_irq+0xe0>
C:\Users\kruci_000\Desktop\University\SoC\Marsfinder\Marsfinder\Marsfinder_FW\Debug/../drivers/mss_sys_services/mss_comblk.c:433
            {
                uint32_t size_sent;
                size_sent = fill_tx_fifo(g_comblk_p_data, g_comblk_data_size);
     74a:	4b43      	ldr	r3, [pc, #268]	; (858 <handle_tx_okay_irq+0x1a4>)
     74c:	681a      	ldr	r2, [r3, #0]
     74e:	4b41      	ldr	r3, [pc, #260]	; (854 <handle_tx_okay_irq+0x1a0>)
     750:	681b      	ldr	r3, [r3, #0]
     752:	4610      	mov	r0, r2
     754:	4619      	mov	r1, r3
     756:	f000 f9cb 	bl	af0 <fill_tx_fifo>
     75a:	60b8      	str	r0, [r7, #8]
C:\Users\kruci_000\Desktop\University\SoC\Marsfinder\Marsfinder\Marsfinder_FW\Debug/../drivers/mss_sys_services/mss_comblk.c:434
                if(size_sent < g_comblk_data_size)
     75c:	4b3d      	ldr	r3, [pc, #244]	; (854 <handle_tx_okay_irq+0x1a0>)
     75e:	681b      	ldr	r3, [r3, #0]
     760:	68ba      	ldr	r2, [r7, #8]
     762:	429a      	cmp	r2, r3
     764:	d20c      	bcs.n	780 <handle_tx_okay_irq+0xcc>
C:\Users\kruci_000\Desktop\University\SoC\Marsfinder\Marsfinder\Marsfinder_FW\Debug/../drivers/mss_sys_services/mss_comblk.c:436
                {
                    g_comblk_data_size = g_comblk_data_size - size_sent;
     766:	4b3b      	ldr	r3, [pc, #236]	; (854 <handle_tx_okay_irq+0x1a0>)
     768:	681a      	ldr	r2, [r3, #0]
     76a:	68bb      	ldr	r3, [r7, #8]
     76c:	1ad3      	subs	r3, r2, r3
     76e:	4a39      	ldr	r2, [pc, #228]	; (854 <handle_tx_okay_irq+0x1a0>)
     770:	6013      	str	r3, [r2, #0]
C:\Users\kruci_000\Desktop\University\SoC\Marsfinder\Marsfinder\Marsfinder_FW\Debug/../drivers/mss_sys_services/mss_comblk.c:437
                    g_comblk_p_data = &g_comblk_p_data[size_sent];
     772:	4b39      	ldr	r3, [pc, #228]	; (858 <handle_tx_okay_irq+0x1a4>)
     774:	681a      	ldr	r2, [r3, #0]
     776:	68bb      	ldr	r3, [r7, #8]
     778:	4413      	add	r3, r2
     77a:	4a37      	ldr	r2, [pc, #220]	; (858 <handle_tx_okay_irq+0x1a4>)
     77c:	6013      	str	r3, [r2, #0]
     77e:	e00d      	b.n	79c <handle_tx_okay_irq+0xe8>
C:\Users\kruci_000\Desktop\University\SoC\Marsfinder\Marsfinder\Marsfinder_FW\Debug/../drivers/mss_sys_services/mss_comblk.c:441
                }
                else
                {
                    COMBLK->INT_ENABLE &= ~TXTOKAY_MASK;
     780:	4a36      	ldr	r2, [pc, #216]	; (85c <handle_tx_okay_irq+0x1a8>)
     782:	4b36      	ldr	r3, [pc, #216]	; (85c <handle_tx_okay_irq+0x1a8>)
     784:	689b      	ldr	r3, [r3, #8]
     786:	f023 0301 	bic.w	r3, r3, #1
     78a:	6093      	str	r3, [r2, #8]
C:\Users\kruci_000\Desktop\University\SoC\Marsfinder\Marsfinder\Marsfinder_FW\Debug/../drivers/mss_sys_services/mss_comblk.c:442
                    g_comblk_state = COMBLK_WAIT_RESPONSE;
     78c:	4b2e      	ldr	r3, [pc, #184]	; (848 <handle_tx_okay_irq+0x194>)
     78e:	2203      	movs	r2, #3
     790:	701a      	strb	r2, [r3, #0]
     792:	e003      	b.n	79c <handle_tx_okay_irq+0xe8>
C:\Users\kruci_000\Desktop\University\SoC\Marsfinder\Marsfinder\Marsfinder_FW\Debug/../drivers/mss_sys_services/mss_comblk.c:451 (discriminator 1)
            {
                /*
                 * This is an invalid situation indicating a bug in the driver
                 * or corrupted memory.
                 */
                ASSERT(0);
     794:	be00      	bkpt	0x0000
C:\Users\kruci_000\Desktop\University\SoC\Marsfinder\Marsfinder\Marsfinder_FW\Debug/../drivers/mss_sys_services/mss_comblk.c:452 (discriminator 1)
                abort_current_cmd();
     796:	f000 f987 	bl	aa8 <abort_current_cmd>
C:\Users\kruci_000\Desktop\University\SoC\Marsfinder\Marsfinder\Marsfinder_FW\Debug/../drivers/mss_sys_services/mss_comblk.c:454 (discriminator 1)
            }
        break;
     79a:	e051      	b.n	840 <handle_tx_okay_irq+0x18c>
C:\Users\kruci_000\Desktop\University\SoC\Marsfinder\Marsfinder\Marsfinder_FW\Debug/../drivers/mss_sys_services/mss_comblk.c:454 (discriminator 2)
     79c:	e050      	b.n	840 <handle_tx_okay_irq+0x18c>
C:\Users\kruci_000\Desktop\University\SoC\Marsfinder\Marsfinder\Marsfinder_FW\Debug/../drivers/mss_sys_services/mss_comblk.c:460
           
        case COMBLK_TX_PAGED_DATA:
            /*
             * Read a page of data if required.
             */
            if(0u == g_comblk_data_size)
     79e:	4b2d      	ldr	r3, [pc, #180]	; (854 <handle_tx_okay_irq+0x1a0>)
     7a0:	681b      	ldr	r3, [r3, #0]
     7a2:	2b00      	cmp	r3, #0
     7a4:	d11b      	bne.n	7de <handle_tx_okay_irq+0x12a>
C:\Users\kruci_000\Desktop\University\SoC\Marsfinder\Marsfinder\Marsfinder_FW\Debug/../drivers/mss_sys_services/mss_comblk.c:462
            {
                if(g_comblk_page_handler != 0)
     7a6:	4b2e      	ldr	r3, [pc, #184]	; (860 <handle_tx_okay_irq+0x1ac>)
     7a8:	681b      	ldr	r3, [r3, #0]
     7aa:	2b00      	cmp	r3, #0
     7ac:	d014      	beq.n	7d8 <handle_tx_okay_irq+0x124>
C:\Users\kruci_000\Desktop\University\SoC\Marsfinder\Marsfinder\Marsfinder_FW\Debug/../drivers/mss_sys_services/mss_comblk.c:464
                {
                    g_comblk_data_size = g_comblk_page_handler(&g_comblk_p_data);
     7ae:	4b2c      	ldr	r3, [pc, #176]	; (860 <handle_tx_okay_irq+0x1ac>)
     7b0:	681b      	ldr	r3, [r3, #0]
     7b2:	4829      	ldr	r0, [pc, #164]	; (858 <handle_tx_okay_irq+0x1a4>)
     7b4:	4798      	blx	r3
     7b6:	4602      	mov	r2, r0
     7b8:	4b26      	ldr	r3, [pc, #152]	; (854 <handle_tx_okay_irq+0x1a0>)
     7ba:	601a      	str	r2, [r3, #0]
C:\Users\kruci_000\Desktop\University\SoC\Marsfinder\Marsfinder\Marsfinder_FW\Debug/../drivers/mss_sys_services/mss_comblk.c:465
                    if(0u == g_comblk_data_size)
     7bc:	4b25      	ldr	r3, [pc, #148]	; (854 <handle_tx_okay_irq+0x1a0>)
     7be:	681b      	ldr	r3, [r3, #0]
     7c0:	2b00      	cmp	r3, #0
     7c2:	d10c      	bne.n	7de <handle_tx_okay_irq+0x12a>
C:\Users\kruci_000\Desktop\University\SoC\Marsfinder\Marsfinder\Marsfinder_FW\Debug/../drivers/mss_sys_services/mss_comblk.c:467
                    {
                        COMBLK->INT_ENABLE &= ~TXTOKAY_MASK;
     7c4:	4a25      	ldr	r2, [pc, #148]	; (85c <handle_tx_okay_irq+0x1a8>)
     7c6:	4b25      	ldr	r3, [pc, #148]	; (85c <handle_tx_okay_irq+0x1a8>)
     7c8:	689b      	ldr	r3, [r3, #8]
     7ca:	f023 0301 	bic.w	r3, r3, #1
     7ce:	6093      	str	r3, [r2, #8]
C:\Users\kruci_000\Desktop\University\SoC\Marsfinder\Marsfinder\Marsfinder_FW\Debug/../drivers/mss_sys_services/mss_comblk.c:468
                        g_comblk_state = COMBLK_WAIT_RESPONSE;
     7d0:	4b1d      	ldr	r3, [pc, #116]	; (848 <handle_tx_okay_irq+0x194>)
     7d2:	2203      	movs	r2, #3
     7d4:	701a      	strb	r2, [r3, #0]
     7d6:	e002      	b.n	7de <handle_tx_okay_irq+0x12a>
C:\Users\kruci_000\Desktop\University\SoC\Marsfinder\Marsfinder\Marsfinder_FW\Debug/../drivers/mss_sys_services/mss_comblk.c:473 (discriminator 1)
                    }
                }
                else
                {
                    ASSERT(0);
     7d8:	be00      	bkpt	0x0000
C:\Users\kruci_000\Desktop\University\SoC\Marsfinder\Marsfinder\Marsfinder_FW\Debug/../drivers/mss_sys_services/mss_comblk.c:474 (discriminator 1)
                    abort_current_cmd();
     7da:	f000 f965 	bl	aa8 <abort_current_cmd>
C:\Users\kruci_000\Desktop\University\SoC\Marsfinder\Marsfinder\Marsfinder_FW\Debug/../drivers/mss_sys_services/mss_comblk.c:483
            /*
             * Transmit the page data or move to COMBLK_WAIT_RESPONSE state if
             * no further page data could be obtained by the call to the page
             * handler above.
             */
            if(0u == g_comblk_data_size)
     7de:	4b1d      	ldr	r3, [pc, #116]	; (854 <handle_tx_okay_irq+0x1a0>)
     7e0:	681b      	ldr	r3, [r3, #0]
     7e2:	2b00      	cmp	r3, #0
     7e4:	d109      	bne.n	7fa <handle_tx_okay_irq+0x146>
C:\Users\kruci_000\Desktop\University\SoC\Marsfinder\Marsfinder\Marsfinder_FW\Debug/../drivers/mss_sys_services/mss_comblk.c:485
            {
                COMBLK->INT_ENABLE &= ~TXTOKAY_MASK;
     7e6:	4a1d      	ldr	r2, [pc, #116]	; (85c <handle_tx_okay_irq+0x1a8>)
     7e8:	4b1c      	ldr	r3, [pc, #112]	; (85c <handle_tx_okay_irq+0x1a8>)
     7ea:	689b      	ldr	r3, [r3, #8]
     7ec:	f023 0301 	bic.w	r3, r3, #1
     7f0:	6093      	str	r3, [r2, #8]
C:\Users\kruci_000\Desktop\University\SoC\Marsfinder\Marsfinder\Marsfinder_FW\Debug/../drivers/mss_sys_services/mss_comblk.c:486
                g_comblk_state = COMBLK_WAIT_RESPONSE;
     7f2:	4b15      	ldr	r3, [pc, #84]	; (848 <handle_tx_okay_irq+0x194>)
     7f4:	2203      	movs	r2, #3
     7f6:	701a      	strb	r2, [r3, #0]
C:\Users\kruci_000\Desktop\University\SoC\Marsfinder\Marsfinder\Marsfinder_FW\Debug/../drivers/mss_sys_services/mss_comblk.c:495
                uint32_t size_sent;
                size_sent = fill_tx_fifo(g_comblk_p_data, g_comblk_data_size);
                g_comblk_data_size = g_comblk_data_size - size_sent;
                g_comblk_p_data = &g_comblk_p_data[size_sent];
            }
        break;
     7f8:	e022      	b.n	840 <handle_tx_okay_irq+0x18c>
C:\Users\kruci_000\Desktop\University\SoC\Marsfinder\Marsfinder\Marsfinder_FW\Debug/../drivers/mss_sys_services/mss_comblk.c:491
                g_comblk_state = COMBLK_WAIT_RESPONSE;
            }
            else
            {
                uint32_t size_sent;
                size_sent = fill_tx_fifo(g_comblk_p_data, g_comblk_data_size);
     7fa:	4b17      	ldr	r3, [pc, #92]	; (858 <handle_tx_okay_irq+0x1a4>)
     7fc:	681a      	ldr	r2, [r3, #0]
     7fe:	4b15      	ldr	r3, [pc, #84]	; (854 <handle_tx_okay_irq+0x1a0>)
     800:	681b      	ldr	r3, [r3, #0]
     802:	4610      	mov	r0, r2
     804:	4619      	mov	r1, r3
     806:	f000 f973 	bl	af0 <fill_tx_fifo>
     80a:	6078      	str	r0, [r7, #4]
C:\Users\kruci_000\Desktop\University\SoC\Marsfinder\Marsfinder\Marsfinder_FW\Debug/../drivers/mss_sys_services/mss_comblk.c:492
                g_comblk_data_size = g_comblk_data_size - size_sent;
     80c:	4b11      	ldr	r3, [pc, #68]	; (854 <handle_tx_okay_irq+0x1a0>)
     80e:	681a      	ldr	r2, [r3, #0]
     810:	687b      	ldr	r3, [r7, #4]
     812:	1ad3      	subs	r3, r2, r3
     814:	4a0f      	ldr	r2, [pc, #60]	; (854 <handle_tx_okay_irq+0x1a0>)
     816:	6013      	str	r3, [r2, #0]
C:\Users\kruci_000\Desktop\University\SoC\Marsfinder\Marsfinder\Marsfinder_FW\Debug/../drivers/mss_sys_services/mss_comblk.c:493
                g_comblk_p_data = &g_comblk_p_data[size_sent];
     818:	4b0f      	ldr	r3, [pc, #60]	; (858 <handle_tx_okay_irq+0x1a4>)
     81a:	681a      	ldr	r2, [r3, #0]
     81c:	687b      	ldr	r3, [r7, #4]
     81e:	4413      	add	r3, r2
     820:	4a0d      	ldr	r2, [pc, #52]	; (858 <handle_tx_okay_irq+0x1a4>)
     822:	6013      	str	r3, [r2, #0]
C:\Users\kruci_000\Desktop\University\SoC\Marsfinder\Marsfinder\Marsfinder_FW\Debug/../drivers/mss_sys_services/mss_comblk.c:495
            }
        break;
     824:	e00c      	b.n	840 <handle_tx_okay_irq+0x18c>
C:\Users\kruci_000\Desktop\University\SoC\Marsfinder\Marsfinder\Marsfinder_FW\Debug/../drivers/mss_sys_services/mss_comblk.c:508
        case COMBLK_WAIT_RESPONSE:
            /* Fall through */
        case COMBLK_RX_RESPONSE:
            /* Fall through */
        default:
            COMBLK->INT_ENABLE &= ~TXTOKAY_MASK;
     826:	4a0d      	ldr	r2, [pc, #52]	; (85c <handle_tx_okay_irq+0x1a8>)
     828:	4b0c      	ldr	r3, [pc, #48]	; (85c <handle_tx_okay_irq+0x1a8>)
     82a:	689b      	ldr	r3, [r3, #8]
     82c:	f023 0301 	bic.w	r3, r3, #1
     830:	6093      	str	r3, [r2, #8]
C:\Users\kruci_000\Desktop\University\SoC\Marsfinder\Marsfinder\Marsfinder_FW\Debug/../drivers/mss_sys_services/mss_comblk.c:509
            complete_request(0u);
     832:	2000      	movs	r0, #0
     834:	f000 f918 	bl	a68 <complete_request>
C:\Users\kruci_000\Desktop\University\SoC\Marsfinder\Marsfinder\Marsfinder_FW\Debug/../drivers/mss_sys_services/mss_comblk.c:510
            g_comblk_state = COMBLK_IDLE;
     838:	4b03      	ldr	r3, [pc, #12]	; (848 <handle_tx_okay_irq+0x194>)
     83a:	2200      	movs	r2, #0
     83c:	701a      	strb	r2, [r3, #0]
C:\Users\kruci_000\Desktop\University\SoC\Marsfinder\Marsfinder\Marsfinder_FW\Debug/../drivers/mss_sys_services/mss_comblk.c:511
        break;
     83e:	bf00      	nop
C:\Users\kruci_000\Desktop\University\SoC\Marsfinder\Marsfinder\Marsfinder_FW\Debug/../drivers/mss_sys_services/mss_comblk.c:513
    }
}
     840:	3710      	adds	r7, #16
     842:	46bd      	mov	sp, r7
     844:	bd80      	pop	{r7, pc}
     846:	bf00      	nop
     848:	20000131 	.word	0x20000131
     84c:	20000114 	.word	0x20000114
     850:	20000110 	.word	0x20000110
     854:	2000011c 	.word	0x2000011c
     858:	20000118 	.word	0x20000118
     85c:	40016000 	.word	0x40016000
     860:	2000012c 	.word	0x2000012c

00000864 <handle_rx_okay_irq>:
handle_rx_okay_irq():
C:\Users\kruci_000\Desktop\University\SoC\Marsfinder\Marsfinder\Marsfinder_FW\Debug/../drivers/mss_sys_services/mss_comblk.c:519

/*==============================================================================
 *
 */
static void handle_rx_okay_irq(void)
{
     864:	b580      	push	{r7, lr}
     866:	b084      	sub	sp, #16
     868:	af00      	add	r7, sp, #0
C:\Users\kruci_000\Desktop\University\SoC\Marsfinder\Marsfinder\Marsfinder_FW\Debug/../drivers/mss_sys_services/mss_comblk.c:524
    uint16_t data16;
    uint16_t is_command;
    uint8_t data8;
    
    data16 = (uint16_t)COMBLK->DATA8;
     86a:	4b79      	ldr	r3, [pc, #484]	; (a50 <handle_rx_okay_irq+0x1ec>)
     86c:	691b      	ldr	r3, [r3, #16]
     86e:	81fb      	strh	r3, [r7, #14]
C:\Users\kruci_000\Desktop\University\SoC\Marsfinder\Marsfinder\Marsfinder_FW\Debug/../drivers/mss_sys_services/mss_comblk.c:525
    is_command = data16 & DATA8_COMMAND_MASK;
     870:	89fb      	ldrh	r3, [r7, #14]
     872:	f423 43ff 	bic.w	r3, r3, #32640	; 0x7f80
     876:	f023 037f 	bic.w	r3, r3, #127	; 0x7f
     87a:	81bb      	strh	r3, [r7, #12]
C:\Users\kruci_000\Desktop\University\SoC\Marsfinder\Marsfinder\Marsfinder_FW\Debug/../drivers/mss_sys_services/mss_comblk.c:526
    data8 = (uint8_t)data16;
     87c:	89fb      	ldrh	r3, [r7, #14]
     87e:	72fb      	strb	r3, [r7, #11]
C:\Users\kruci_000\Desktop\University\SoC\Marsfinder\Marsfinder\Marsfinder_FW\Debug/../drivers/mss_sys_services/mss_comblk.c:528
            
    switch(g_comblk_state)
     880:	4b74      	ldr	r3, [pc, #464]	; (a54 <handle_rx_okay_irq+0x1f0>)
     882:	781b      	ldrb	r3, [r3, #0]
     884:	2b05      	cmp	r3, #5
     886:	f200 80d8 	bhi.w	a3a <handle_rx_okay_irq+0x1d6>
     88a:	a201      	add	r2, pc, #4	; (adr r2, 890 <handle_rx_okay_irq+0x2c>)
     88c:	f852 f023 	ldr.w	pc, [r2, r3, lsl #2]
     890:	000008a9 	.word	0x000008a9
     894:	00000a25 	.word	0x00000a25
     898:	00000a25 	.word	0x00000a25
     89c:	00000901 	.word	0x00000901
     8a0:	0000094f 	.word	0x0000094f
     8a4:	000009f9 	.word	0x000009f9
C:\Users\kruci_000\Desktop\University\SoC\Marsfinder\Marsfinder\Marsfinder_FW\Debug/../drivers/mss_sys_services/mss_comblk.c:536
        * MSS_COMBLK_init() enables the RCV_OKAY interrupt for the COMBLK_IDLE
        * state to receive the asynchronous power-on-reset from the system
        * controller.
        */
        case COMBLK_IDLE:
            if(is_command)
     8a8:	89bb      	ldrh	r3, [r7, #12]
     8aa:	2b00      	cmp	r3, #0
     8ac:	d027      	beq.n	8fe <handle_rx_okay_irq+0x9a>
C:\Users\kruci_000\Desktop\University\SoC\Marsfinder\Marsfinder\Marsfinder_FW\Debug/../drivers/mss_sys_services/mss_comblk.c:538
            {
                if(data8 != POR_DIGEST_ERROR_OPCODE)
     8ae:	7afb      	ldrb	r3, [r7, #11]
     8b0:	2bf1      	cmp	r3, #241	; 0xf1
     8b2:	d006      	beq.n	8c2 <handle_rx_okay_irq+0x5e>
C:\Users\kruci_000\Desktop\University\SoC\Marsfinder\Marsfinder\Marsfinder_FW\Debug/../drivers/mss_sys_services/mss_comblk.c:541
                {
                    uint8_t rxed_opcode;
                    rxed_opcode = data8;
     8b4:	7afb      	ldrb	r3, [r7, #11]
     8b6:	72bb      	strb	r3, [r7, #10]
C:\Users\kruci_000\Desktop\University\SoC\Marsfinder\Marsfinder\Marsfinder_FW\Debug/../drivers/mss_sys_services/mss_comblk.c:542
                    process_sys_ctrl_command(rxed_opcode);
     8b8:	7abb      	ldrb	r3, [r7, #10]
     8ba:	4618      	mov	r0, r3
     8bc:	f000 f94a 	bl	b54 <process_sys_ctrl_command>
     8c0:	e01d      	b.n	8fe <handle_rx_okay_irq+0x9a>
C:\Users\kruci_000\Desktop\University\SoC\Marsfinder\Marsfinder\Marsfinder_FW\Debug/../drivers/mss_sys_services/mss_comblk.c:546
                }
                else
                {  
                    g_comblk_response_idx = 0;
     8c2:	4b65      	ldr	r3, [pc, #404]	; (a58 <handle_rx_okay_irq+0x1f4>)
     8c4:	2200      	movs	r2, #0
     8c6:	801a      	strh	r2, [r3, #0]
C:\Users\kruci_000\Desktop\University\SoC\Marsfinder\Marsfinder\Marsfinder_FW\Debug/../drivers/mss_sys_services/mss_comblk.c:547
                    g_comblk_p_response[g_comblk_response_idx] = data8;
     8c8:	4b64      	ldr	r3, [pc, #400]	; (a5c <handle_rx_okay_irq+0x1f8>)
     8ca:	681b      	ldr	r3, [r3, #0]
     8cc:	4a62      	ldr	r2, [pc, #392]	; (a58 <handle_rx_okay_irq+0x1f4>)
     8ce:	8812      	ldrh	r2, [r2, #0]
     8d0:	b292      	uxth	r2, r2
     8d2:	4413      	add	r3, r2
     8d4:	7afa      	ldrb	r2, [r7, #11]
     8d6:	701a      	strb	r2, [r3, #0]
C:\Users\kruci_000\Desktop\University\SoC\Marsfinder\Marsfinder\Marsfinder_FW\Debug/../drivers/mss_sys_services/mss_comblk.c:548
                    g_comblk_response_idx++;
     8d8:	4b5f      	ldr	r3, [pc, #380]	; (a58 <handle_rx_okay_irq+0x1f4>)
     8da:	881b      	ldrh	r3, [r3, #0]
     8dc:	b29b      	uxth	r3, r3
     8de:	3301      	adds	r3, #1
     8e0:	b29a      	uxth	r2, r3
     8e2:	4b5d      	ldr	r3, [pc, #372]	; (a58 <handle_rx_okay_irq+0x1f4>)
     8e4:	801a      	strh	r2, [r3, #0]
C:\Users\kruci_000\Desktop\University\SoC\Marsfinder\Marsfinder\Marsfinder_FW\Debug/../drivers/mss_sys_services/mss_comblk.c:549
                    g_comblk_p_response[g_comblk_response_idx] = 0x00u;                
     8e6:	4b5d      	ldr	r3, [pc, #372]	; (a5c <handle_rx_okay_irq+0x1f8>)
     8e8:	681b      	ldr	r3, [r3, #0]
     8ea:	4a5b      	ldr	r2, [pc, #364]	; (a58 <handle_rx_okay_irq+0x1f4>)
     8ec:	8812      	ldrh	r2, [r2, #0]
     8ee:	b292      	uxth	r2, r2
     8f0:	4413      	add	r3, r2
     8f2:	2200      	movs	r2, #0
     8f4:	701a      	strb	r2, [r3, #0]
C:\Users\kruci_000\Desktop\University\SoC\Marsfinder\Marsfinder\Marsfinder_FW\Debug/../drivers/mss_sys_services/mss_comblk.c:550
                    g_comblk_state = COMBLK_RX_RESPONSE;
     8f6:	4b57      	ldr	r3, [pc, #348]	; (a54 <handle_rx_okay_irq+0x1f0>)
     8f8:	2204      	movs	r2, #4
     8fa:	701a      	strb	r2, [r3, #0]
C:\Users\kruci_000\Desktop\University\SoC\Marsfinder\Marsfinder\Marsfinder_FW\Debug/../drivers/mss_sys_services/mss_comblk.c:553
                }
            }
        break;
     8fc:	e0a4      	b.n	a48 <handle_rx_okay_irq+0x1e4>
     8fe:	e0a3      	b.n	a48 <handle_rx_okay_irq+0x1e4>
C:\Users\kruci_000\Desktop\University\SoC\Marsfinder\Marsfinder\Marsfinder_FW\Debug/../drivers/mss_sys_services/mss_comblk.c:560
        /*----------------------------------------------------------------------
         * The RCV_OKAY interrupt should only be enabled for states
         * COMBLK_WAIT_RESPONSE and COMBLK_RX_RESPONSE. 
         */
        case COMBLK_WAIT_RESPONSE:
            if(is_command)
     900:	89bb      	ldrh	r3, [r7, #12]
     902:	2b00      	cmp	r3, #0
     904:	d022      	beq.n	94c <handle_rx_okay_irq+0xe8>
C:\Users\kruci_000\Desktop\University\SoC\Marsfinder\Marsfinder\Marsfinder_FW\Debug/../drivers/mss_sys_services/mss_comblk.c:563
            {
                uint8_t rxed_opcode;
                rxed_opcode = data8;
     906:	7afb      	ldrb	r3, [r7, #11]
     908:	727b      	strb	r3, [r7, #9]
C:\Users\kruci_000\Desktop\University\SoC\Marsfinder\Marsfinder\Marsfinder_FW\Debug/../drivers/mss_sys_services/mss_comblk.c:564
                if(rxed_opcode == g_comblk_cmd_opcode)
     90a:	4b55      	ldr	r3, [pc, #340]	; (a60 <handle_rx_okay_irq+0x1fc>)
     90c:	781b      	ldrb	r3, [r3, #0]
     90e:	b2db      	uxtb	r3, r3
     910:	7a7a      	ldrb	r2, [r7, #9]
     912:	429a      	cmp	r2, r3
     914:	d115      	bne.n	942 <handle_rx_okay_irq+0xde>
C:\Users\kruci_000\Desktop\University\SoC\Marsfinder\Marsfinder\Marsfinder_FW\Debug/../drivers/mss_sys_services/mss_comblk.c:566
                {
                    g_comblk_response_idx = 0u;
     916:	4b50      	ldr	r3, [pc, #320]	; (a58 <handle_rx_okay_irq+0x1f4>)
     918:	2200      	movs	r2, #0
     91a:	801a      	strh	r2, [r3, #0]
C:\Users\kruci_000\Desktop\University\SoC\Marsfinder\Marsfinder\Marsfinder_FW\Debug/../drivers/mss_sys_services/mss_comblk.c:567
                    g_comblk_p_response[g_comblk_response_idx] = rxed_opcode;
     91c:	4b4f      	ldr	r3, [pc, #316]	; (a5c <handle_rx_okay_irq+0x1f8>)
     91e:	681b      	ldr	r3, [r3, #0]
     920:	4a4d      	ldr	r2, [pc, #308]	; (a58 <handle_rx_okay_irq+0x1f4>)
     922:	8812      	ldrh	r2, [r2, #0]
     924:	b292      	uxth	r2, r2
     926:	4413      	add	r3, r2
     928:	7a7a      	ldrb	r2, [r7, #9]
     92a:	701a      	strb	r2, [r3, #0]
C:\Users\kruci_000\Desktop\University\SoC\Marsfinder\Marsfinder\Marsfinder_FW\Debug/../drivers/mss_sys_services/mss_comblk.c:568
                    ++g_comblk_response_idx;
     92c:	4b4a      	ldr	r3, [pc, #296]	; (a58 <handle_rx_okay_irq+0x1f4>)
     92e:	881b      	ldrh	r3, [r3, #0]
     930:	b29b      	uxth	r3, r3
     932:	3301      	adds	r3, #1
     934:	b29a      	uxth	r2, r3
     936:	4b48      	ldr	r3, [pc, #288]	; (a58 <handle_rx_okay_irq+0x1f4>)
     938:	801a      	strh	r2, [r3, #0]
C:\Users\kruci_000\Desktop\University\SoC\Marsfinder\Marsfinder\Marsfinder_FW\Debug/../drivers/mss_sys_services/mss_comblk.c:569
                    g_comblk_state = COMBLK_RX_RESPONSE;
     93a:	4b46      	ldr	r3, [pc, #280]	; (a54 <handle_rx_okay_irq+0x1f0>)
     93c:	2204      	movs	r2, #4
     93e:	701a      	strb	r2, [r3, #0]
     940:	e004      	b.n	94c <handle_rx_okay_irq+0xe8>
C:\Users\kruci_000\Desktop\University\SoC\Marsfinder\Marsfinder\Marsfinder_FW\Debug/../drivers/mss_sys_services/mss_comblk.c:573
                }
                else
                {
                    process_sys_ctrl_command(rxed_opcode);
     942:	7a7b      	ldrb	r3, [r7, #9]
     944:	4618      	mov	r0, r3
     946:	f000 f905 	bl	b54 <process_sys_ctrl_command>
C:\Users\kruci_000\Desktop\University\SoC\Marsfinder\Marsfinder\Marsfinder_FW\Debug/../drivers/mss_sys_services/mss_comblk.c:576
                }
            }
        break;
     94a:	e07d      	b.n	a48 <handle_rx_okay_irq+0x1e4>
     94c:	e07c      	b.n	a48 <handle_rx_okay_irq+0x1e4>
C:\Users\kruci_000\Desktop\University\SoC\Marsfinder\Marsfinder\Marsfinder_FW\Debug/../drivers/mss_sys_services/mss_comblk.c:579
            
        case COMBLK_RX_RESPONSE:
            if(is_command)
     94e:	89bb      	ldrh	r3, [r7, #12]
     950:	2b00      	cmp	r3, #0
     952:	d006      	beq.n	962 <handle_rx_okay_irq+0xfe>
C:\Users\kruci_000\Desktop\University\SoC\Marsfinder\Marsfinder\Marsfinder_FW\Debug/../drivers/mss_sys_services/mss_comblk.c:582
            {
                uint8_t rxed_opcode;
                rxed_opcode = data8;
     954:	7afb      	ldrb	r3, [r7, #11]
     956:	723b      	strb	r3, [r7, #8]
C:\Users\kruci_000\Desktop\University\SoC\Marsfinder\Marsfinder\Marsfinder_FW\Debug/../drivers/mss_sys_services/mss_comblk.c:583
                process_sys_ctrl_command(rxed_opcode);
     958:	7a3b      	ldrb	r3, [r7, #8]
     95a:	4618      	mov	r0, r3
     95c:	f000 f8fa 	bl	b54 <process_sys_ctrl_command>
     960:	e049      	b.n	9f6 <handle_rx_okay_irq+0x192>
C:\Users\kruci_000\Desktop\University\SoC\Marsfinder\Marsfinder\Marsfinder_FW\Debug/../drivers/mss_sys_services/mss_comblk.c:587
            }
            else
            {
                if( g_comblk_p_response[g_comblk_response_idx-1] == POR_DIGEST_ERROR_OPCODE)
     962:	4b3e      	ldr	r3, [pc, #248]	; (a5c <handle_rx_okay_irq+0x1f8>)
     964:	681a      	ldr	r2, [r3, #0]
     966:	4b3c      	ldr	r3, [pc, #240]	; (a58 <handle_rx_okay_irq+0x1f4>)
     968:	881b      	ldrh	r3, [r3, #0]
     96a:	b29b      	uxth	r3, r3
     96c:	3b01      	subs	r3, #1
     96e:	4413      	add	r3, r2
     970:	781b      	ldrb	r3, [r3, #0]
     972:	2bf1      	cmp	r3, #241	; 0xf1
     974:	d116      	bne.n	9a4 <handle_rx_okay_irq+0x140>
C:\Users\kruci_000\Desktop\University\SoC\Marsfinder\Marsfinder\Marsfinder_FW\Debug/../drivers/mss_sys_services/mss_comblk.c:589
                {
                    g_comblk_p_response[g_comblk_response_idx] = data8;
     976:	4b39      	ldr	r3, [pc, #228]	; (a5c <handle_rx_okay_irq+0x1f8>)
     978:	681b      	ldr	r3, [r3, #0]
     97a:	4a37      	ldr	r2, [pc, #220]	; (a58 <handle_rx_okay_irq+0x1f4>)
     97c:	8812      	ldrh	r2, [r2, #0]
     97e:	b292      	uxth	r2, r2
     980:	4413      	add	r3, r2
     982:	7afa      	ldrb	r2, [r7, #11]
     984:	701a      	strb	r2, [r3, #0]
C:\Users\kruci_000\Desktop\University\SoC\Marsfinder\Marsfinder\Marsfinder_FW\Debug/../drivers/mss_sys_services/mss_comblk.c:590
                    process_sys_ctrl_command(g_comblk_p_response[g_comblk_response_idx-1]);
     986:	4b35      	ldr	r3, [pc, #212]	; (a5c <handle_rx_okay_irq+0x1f8>)
     988:	681a      	ldr	r2, [r3, #0]
     98a:	4b33      	ldr	r3, [pc, #204]	; (a58 <handle_rx_okay_irq+0x1f4>)
     98c:	881b      	ldrh	r3, [r3, #0]
     98e:	b29b      	uxth	r3, r3
     990:	3b01      	subs	r3, #1
     992:	4413      	add	r3, r2
     994:	781b      	ldrb	r3, [r3, #0]
     996:	4618      	mov	r0, r3
     998:	f000 f8dc 	bl	b54 <process_sys_ctrl_command>
C:\Users\kruci_000\Desktop\University\SoC\Marsfinder\Marsfinder\Marsfinder_FW\Debug/../drivers/mss_sys_services/mss_comblk.c:591
                    g_comblk_state = COMBLK_IDLE;
     99c:	4b2d      	ldr	r3, [pc, #180]	; (a54 <handle_rx_okay_irq+0x1f0>)
     99e:	2200      	movs	r2, #0
     9a0:	701a      	strb	r2, [r3, #0]
     9a2:	e028      	b.n	9f6 <handle_rx_okay_irq+0x192>
C:\Users\kruci_000\Desktop\University\SoC\Marsfinder\Marsfinder\Marsfinder_FW\Debug/../drivers/mss_sys_services/mss_comblk.c:595
                }
                else
                {
                    if(g_comblk_response_idx < g_comblk_response_size)
     9a4:	4b2c      	ldr	r3, [pc, #176]	; (a58 <handle_rx_okay_irq+0x1f4>)
     9a6:	881b      	ldrh	r3, [r3, #0]
     9a8:	b29a      	uxth	r2, r3
     9aa:	4b2e      	ldr	r3, [pc, #184]	; (a64 <handle_rx_okay_irq+0x200>)
     9ac:	881b      	ldrh	r3, [r3, #0]
     9ae:	429a      	cmp	r2, r3
     9b0:	d210      	bcs.n	9d4 <handle_rx_okay_irq+0x170>
C:\Users\kruci_000\Desktop\University\SoC\Marsfinder\Marsfinder\Marsfinder_FW\Debug/../drivers/mss_sys_services/mss_comblk.c:599
                    {
                        uint8_t rxed_data;
                        
                        rxed_data = data8;
     9b2:	7afb      	ldrb	r3, [r7, #11]
     9b4:	71fb      	strb	r3, [r7, #7]
C:\Users\kruci_000\Desktop\University\SoC\Marsfinder\Marsfinder\Marsfinder_FW\Debug/../drivers/mss_sys_services/mss_comblk.c:600
                        g_comblk_p_response[g_comblk_response_idx] = rxed_data;
     9b6:	4b29      	ldr	r3, [pc, #164]	; (a5c <handle_rx_okay_irq+0x1f8>)
     9b8:	681b      	ldr	r3, [r3, #0]
     9ba:	4a27      	ldr	r2, [pc, #156]	; (a58 <handle_rx_okay_irq+0x1f4>)
     9bc:	8812      	ldrh	r2, [r2, #0]
     9be:	b292      	uxth	r2, r2
     9c0:	4413      	add	r3, r2
     9c2:	79fa      	ldrb	r2, [r7, #7]
     9c4:	701a      	strb	r2, [r3, #0]
C:\Users\kruci_000\Desktop\University\SoC\Marsfinder\Marsfinder\Marsfinder_FW\Debug/../drivers/mss_sys_services/mss_comblk.c:601
                        ++g_comblk_response_idx;
     9c6:	4b24      	ldr	r3, [pc, #144]	; (a58 <handle_rx_okay_irq+0x1f4>)
     9c8:	881b      	ldrh	r3, [r3, #0]
     9ca:	b29b      	uxth	r3, r3
     9cc:	3301      	adds	r3, #1
     9ce:	b29a      	uxth	r2, r3
     9d0:	4b21      	ldr	r3, [pc, #132]	; (a58 <handle_rx_okay_irq+0x1f4>)
     9d2:	801a      	strh	r2, [r3, #0]
C:\Users\kruci_000\Desktop\University\SoC\Marsfinder\Marsfinder\Marsfinder_FW\Debug/../drivers/mss_sys_services/mss_comblk.c:604
                    }
                    
                    if(g_comblk_response_idx == g_comblk_response_size)
     9d4:	4b20      	ldr	r3, [pc, #128]	; (a58 <handle_rx_okay_irq+0x1f4>)
     9d6:	881b      	ldrh	r3, [r3, #0]
     9d8:	b29a      	uxth	r2, r3
     9da:	4b22      	ldr	r3, [pc, #136]	; (a64 <handle_rx_okay_irq+0x200>)
     9dc:	881b      	ldrh	r3, [r3, #0]
     9de:	429a      	cmp	r2, r3
     9e0:	d109      	bne.n	9f6 <handle_rx_okay_irq+0x192>
C:\Users\kruci_000\Desktop\University\SoC\Marsfinder\Marsfinder\Marsfinder_FW\Debug/../drivers/mss_sys_services/mss_comblk.c:606
                    {
                        complete_request(g_comblk_response_idx);
     9e2:	4b1d      	ldr	r3, [pc, #116]	; (a58 <handle_rx_okay_irq+0x1f4>)
     9e4:	881b      	ldrh	r3, [r3, #0]
     9e6:	b29b      	uxth	r3, r3
     9e8:	4618      	mov	r0, r3
     9ea:	f000 f83d 	bl	a68 <complete_request>
C:\Users\kruci_000\Desktop\University\SoC\Marsfinder\Marsfinder\Marsfinder_FW\Debug/../drivers/mss_sys_services/mss_comblk.c:607
                        g_comblk_state = COMBLK_IDLE;
     9ee:	4b19      	ldr	r3, [pc, #100]	; (a54 <handle_rx_okay_irq+0x1f0>)
     9f0:	2200      	movs	r2, #0
     9f2:	701a      	strb	r2, [r3, #0]
C:\Users\kruci_000\Desktop\University\SoC\Marsfinder\Marsfinder\Marsfinder_FW\Debug/../drivers/mss_sys_services/mss_comblk.c:611
                    }
                }
            }
        break;
     9f4:	e028      	b.n	a48 <handle_rx_okay_irq+0x1e4>
     9f6:	e027      	b.n	a48 <handle_rx_okay_irq+0x1e4>
C:\Users\kruci_000\Desktop\University\SoC\Marsfinder\Marsfinder\Marsfinder_FW\Debug/../drivers/mss_sys_services/mss_comblk.c:619
         * The RCV_OKAY interrupt should NOT be enabled for states
         * COMBLK_IDLE, COMBLK_TX_CMD and COMBLK_TX_DATA.
         */
        case COMBLK_TX_PAGED_DATA:
            /* This is needed because when there is an error, we need to terminate loading the data */
            if(!is_command)
     9f8:	89bb      	ldrh	r3, [r7, #12]
     9fa:	2b00      	cmp	r3, #0
     9fc:	d10b      	bne.n	a16 <handle_rx_okay_irq+0x1b2>
C:\Users\kruci_000\Desktop\University\SoC\Marsfinder\Marsfinder\Marsfinder_FW\Debug/../drivers/mss_sys_services/mss_comblk.c:621
            {
                g_comblk_p_response[1] = data8;
     9fe:	4b17      	ldr	r3, [pc, #92]	; (a5c <handle_rx_okay_irq+0x1f8>)
     a00:	681b      	ldr	r3, [r3, #0]
     a02:	3301      	adds	r3, #1
     a04:	7afa      	ldrb	r2, [r7, #11]
     a06:	701a      	strb	r2, [r3, #0]
C:\Users\kruci_000\Desktop\University\SoC\Marsfinder\Marsfinder\Marsfinder_FW\Debug/../drivers/mss_sys_services/mss_comblk.c:622
                complete_request(2u);
     a08:	2002      	movs	r0, #2
     a0a:	f000 f82d 	bl	a68 <complete_request>
C:\Users\kruci_000\Desktop\University\SoC\Marsfinder\Marsfinder\Marsfinder_FW\Debug/../drivers/mss_sys_services/mss_comblk.c:623
                g_comblk_state = COMBLK_IDLE;
     a0e:	4b11      	ldr	r3, [pc, #68]	; (a54 <handle_rx_okay_irq+0x1f0>)
     a10:	2200      	movs	r2, #0
     a12:	701a      	strb	r2, [r3, #0]
C:\Users\kruci_000\Desktop\University\SoC\Marsfinder\Marsfinder\Marsfinder_FW\Debug/../drivers/mss_sys_services/mss_comblk.c:631
            {
                uint8_t rxed_opcode;
                rxed_opcode = data8;
                process_sys_ctrl_command(rxed_opcode);
            }
        break;
     a14:	e018      	b.n	a48 <handle_rx_okay_irq+0x1e4>
C:\Users\kruci_000\Desktop\University\SoC\Marsfinder\Marsfinder\Marsfinder_FW\Debug/../drivers/mss_sys_services/mss_comblk.c:628
                g_comblk_state = COMBLK_IDLE;
            }
            else
            {
                uint8_t rxed_opcode;
                rxed_opcode = data8;
     a16:	7afb      	ldrb	r3, [r7, #11]
     a18:	71bb      	strb	r3, [r7, #6]
C:\Users\kruci_000\Desktop\University\SoC\Marsfinder\Marsfinder\Marsfinder_FW\Debug/../drivers/mss_sys_services/mss_comblk.c:629
                process_sys_ctrl_command(rxed_opcode);
     a1a:	79bb      	ldrb	r3, [r7, #6]
     a1c:	4618      	mov	r0, r3
     a1e:	f000 f899 	bl	b54 <process_sys_ctrl_command>
C:\Users\kruci_000\Desktop\University\SoC\Marsfinder\Marsfinder\Marsfinder_FW\Debug/../drivers/mss_sys_services/mss_comblk.c:631
            }
        break;
     a22:	e011      	b.n	a48 <handle_rx_okay_irq+0x1e4>
C:\Users\kruci_000\Desktop\University\SoC\Marsfinder\Marsfinder\Marsfinder_FW\Debug/../drivers/mss_sys_services/mss_comblk.c:637
        
        case COMBLK_TX_CMD:
            /* Fall through */
        case COMBLK_TX_DATA:
            /* Fall through */
            if(is_command)
     a24:	89bb      	ldrh	r3, [r7, #12]
     a26:	2b00      	cmp	r3, #0
     a28:	d006      	beq.n	a38 <handle_rx_okay_irq+0x1d4>
C:\Users\kruci_000\Desktop\University\SoC\Marsfinder\Marsfinder\Marsfinder_FW\Debug/../drivers/mss_sys_services/mss_comblk.c:640
            {
                uint8_t rxed_opcode;
                rxed_opcode = data8;
     a2a:	7afb      	ldrb	r3, [r7, #11]
     a2c:	717b      	strb	r3, [r7, #5]
C:\Users\kruci_000\Desktop\University\SoC\Marsfinder\Marsfinder\Marsfinder_FW\Debug/../drivers/mss_sys_services/mss_comblk.c:641
                process_sys_ctrl_command(rxed_opcode);
     a2e:	797b      	ldrb	r3, [r7, #5]
     a30:	4618      	mov	r0, r3
     a32:	f000 f88f 	bl	b54 <process_sys_ctrl_command>
C:\Users\kruci_000\Desktop\University\SoC\Marsfinder\Marsfinder\Marsfinder_FW\Debug/../drivers/mss_sys_services/mss_comblk.c:643
            }
        break;
     a36:	e007      	b.n	a48 <handle_rx_okay_irq+0x1e4>
     a38:	e006      	b.n	a48 <handle_rx_okay_irq+0x1e4>
C:\Users\kruci_000\Desktop\University\SoC\Marsfinder\Marsfinder\Marsfinder_FW\Debug/../drivers/mss_sys_services/mss_comblk.c:646
        
        default:
            complete_request(0u);
     a3a:	2000      	movs	r0, #0
     a3c:	f000 f814 	bl	a68 <complete_request>
C:\Users\kruci_000\Desktop\University\SoC\Marsfinder\Marsfinder\Marsfinder_FW\Debug/../drivers/mss_sys_services/mss_comblk.c:647
            g_comblk_state = COMBLK_IDLE;
     a40:	4b04      	ldr	r3, [pc, #16]	; (a54 <handle_rx_okay_irq+0x1f0>)
     a42:	2200      	movs	r2, #0
     a44:	701a      	strb	r2, [r3, #0]
C:\Users\kruci_000\Desktop\University\SoC\Marsfinder\Marsfinder\Marsfinder_FW\Debug/../drivers/mss_sys_services/mss_comblk.c:648
        break;
     a46:	bf00      	nop
C:\Users\kruci_000\Desktop\University\SoC\Marsfinder\Marsfinder\Marsfinder_FW\Debug/../drivers/mss_sys_services/mss_comblk.c:650
    }
}
     a48:	3710      	adds	r7, #16
     a4a:	46bd      	mov	sp, r7
     a4c:	bd80      	pop	{r7, pc}
     a4e:	bf00      	nop
     a50:	40016000 	.word	0x40016000
     a54:	20000131 	.word	0x20000131
     a58:	20000126 	.word	0x20000126
     a5c:	20000120 	.word	0x20000120
     a60:	2000010c 	.word	0x2000010c
     a64:	20000124 	.word	0x20000124

00000a68 <complete_request>:
complete_request():
C:\Users\kruci_000\Desktop\University\SoC\Marsfinder\Marsfinder\Marsfinder_FW\Debug/../drivers/mss_sys_services/mss_comblk.c:659
 */
static void complete_request
(
    uint16_t response_length
)
{
     a68:	b580      	push	{r7, lr}
     a6a:	b082      	sub	sp, #8
     a6c:	af00      	add	r7, sp, #0
     a6e:	4603      	mov	r3, r0
     a70:	80fb      	strh	r3, [r7, #6]
C:\Users\kruci_000\Desktop\University\SoC\Marsfinder\Marsfinder\Marsfinder_FW\Debug/../drivers/mss_sys_services/mss_comblk.c:660
    if(g_comblk_completion_handler != 0)
     a72:	4b0a      	ldr	r3, [pc, #40]	; (a9c <complete_request+0x34>)
     a74:	681b      	ldr	r3, [r3, #0]
     a76:	2b00      	cmp	r3, #0
     a78:	d00d      	beq.n	a96 <complete_request+0x2e>
C:\Users\kruci_000\Desktop\University\SoC\Marsfinder\Marsfinder\Marsfinder_FW\Debug/../drivers/mss_sys_services/mss_comblk.c:662
    {
        g_comblk_completion_handler(g_comblk_p_response, response_length);
     a7a:	4b08      	ldr	r3, [pc, #32]	; (a9c <complete_request+0x34>)
     a7c:	681b      	ldr	r3, [r3, #0]
     a7e:	4a08      	ldr	r2, [pc, #32]	; (aa0 <complete_request+0x38>)
     a80:	6811      	ldr	r1, [r2, #0]
     a82:	88fa      	ldrh	r2, [r7, #6]
     a84:	4608      	mov	r0, r1
     a86:	4611      	mov	r1, r2
     a88:	4798      	blx	r3
C:\Users\kruci_000\Desktop\University\SoC\Marsfinder\Marsfinder\Marsfinder_FW\Debug/../drivers/mss_sys_services/mss_comblk.c:663
        g_comblk_completion_handler = 0;
     a8a:	4b04      	ldr	r3, [pc, #16]	; (a9c <complete_request+0x34>)
     a8c:	2200      	movs	r2, #0
     a8e:	601a      	str	r2, [r3, #0]
C:\Users\kruci_000\Desktop\University\SoC\Marsfinder\Marsfinder\Marsfinder_FW\Debug/../drivers/mss_sys_services/mss_comblk.c:664
        g_request_in_progress = 0u;
     a90:	4b04      	ldr	r3, [pc, #16]	; (aa4 <complete_request+0x3c>)
     a92:	2200      	movs	r2, #0
     a94:	701a      	strb	r2, [r3, #0]
C:\Users\kruci_000\Desktop\University\SoC\Marsfinder\Marsfinder\Marsfinder_FW\Debug/../drivers/mss_sys_services/mss_comblk.c:666
    }
}
     a96:	3708      	adds	r7, #8
     a98:	46bd      	mov	sp, r7
     a9a:	bd80      	pop	{r7, pc}
     a9c:	20000128 	.word	0x20000128
     aa0:	20000120 	.word	0x20000120
     aa4:	20000130 	.word	0x20000130

00000aa8 <abort_current_cmd>:
abort_current_cmd():
C:\Users\kruci_000\Desktop\University\SoC\Marsfinder\Marsfinder\Marsfinder_FW\Debug/../drivers/mss_sys_services/mss_comblk.c:672

/*==============================================================================
 *
 */
static void abort_current_cmd(void)
{
     aa8:	b580      	push	{r7, lr}
     aaa:	b082      	sub	sp, #8
     aac:	af00      	add	r7, sp, #0
C:\Users\kruci_000\Desktop\University\SoC\Marsfinder\Marsfinder\Marsfinder_FW\Debug/../drivers/mss_sys_services/mss_comblk.c:673
    if(g_request_in_progress)
     aae:	4b0d      	ldr	r3, [pc, #52]	; (ae4 <abort_current_cmd+0x3c>)
     ab0:	781b      	ldrb	r3, [r3, #0]
     ab2:	2b00      	cmp	r3, #0
     ab4:	d013      	beq.n	ade <abort_current_cmd+0x36>
C:\Users\kruci_000\Desktop\University\SoC\Marsfinder\Marsfinder\Marsfinder_FW\Debug/../drivers/mss_sys_services/mss_comblk.c:681
        
        /*
         * Call completion handler just in case we are in a multi threaded system
         * to avoid a task lockup.
         */
        complete_request(g_comblk_response_idx);
     ab6:	4b0c      	ldr	r3, [pc, #48]	; (ae8 <abort_current_cmd+0x40>)
     ab8:	881b      	ldrh	r3, [r3, #0]
     aba:	b29b      	uxth	r3, r3
     abc:	4618      	mov	r0, r3
     abe:	f7ff ffd3 	bl	a68 <complete_request>
C:\Users\kruci_000\Desktop\University\SoC\Marsfinder\Marsfinder\Marsfinder_FW\Debug/../drivers/mss_sys_services/mss_comblk.c:686
        
        /*
         * Flush the FIFOs
         */
        COMBLK->CONTROL |= CR_FLUSHOUT_MASK;
     ac2:	4a0a      	ldr	r2, [pc, #40]	; (aec <abort_current_cmd+0x44>)
     ac4:	4b09      	ldr	r3, [pc, #36]	; (aec <abort_current_cmd+0x44>)
     ac6:	681b      	ldr	r3, [r3, #0]
     ac8:	f043 0301 	orr.w	r3, r3, #1
     acc:	6013      	str	r3, [r2, #0]
C:\Users\kruci_000\Desktop\University\SoC\Marsfinder\Marsfinder\Marsfinder_FW\Debug/../drivers/mss_sys_services/mss_comblk.c:688 (discriminator 1)
        do {
            flush_in_progress = COMBLK->CONTROL & CR_FLUSHOUT_MASK;
     ace:	4b07      	ldr	r3, [pc, #28]	; (aec <abort_current_cmd+0x44>)
     ad0:	681b      	ldr	r3, [r3, #0]
     ad2:	f003 0301 	and.w	r3, r3, #1
     ad6:	607b      	str	r3, [r7, #4]
C:\Users\kruci_000\Desktop\University\SoC\Marsfinder\Marsfinder\Marsfinder_FW\Debug/../drivers/mss_sys_services/mss_comblk.c:689 (discriminator 1)
        } while(flush_in_progress);
     ad8:	687b      	ldr	r3, [r7, #4]
     ada:	2b00      	cmp	r3, #0
     adc:	d1f7      	bne.n	ace <abort_current_cmd+0x26>
C:\Users\kruci_000\Desktop\University\SoC\Marsfinder\Marsfinder\Marsfinder_FW\Debug/../drivers/mss_sys_services/mss_comblk.c:691
    }
}
     ade:	3708      	adds	r7, #8
     ae0:	46bd      	mov	sp, r7
     ae2:	bd80      	pop	{r7, pc}
     ae4:	20000130 	.word	0x20000130
     ae8:	20000126 	.word	0x20000126
     aec:	40016000 	.word	0x40016000

00000af0 <fill_tx_fifo>:
fill_tx_fifo():
C:\Users\kruci_000\Desktop\University\SoC\Marsfinder\Marsfinder\Marsfinder_FW\Debug/../drivers/mss_sys_services/mss_comblk.c:723
static uint32_t fill_tx_fifo
(
    const uint8_t * p_cmd,
    uint32_t cmd_size
)
{
     af0:	b480      	push	{r7}
     af2:	b085      	sub	sp, #20
     af4:	af00      	add	r7, sp, #0
     af6:	6078      	str	r0, [r7, #4]
     af8:	6039      	str	r1, [r7, #0]
C:\Users\kruci_000\Desktop\University\SoC\Marsfinder\Marsfinder\Marsfinder_FW\Debug/../drivers/mss_sys_services/mss_comblk.c:728
    volatile uint32_t tx_okay;
    uint32_t size_sent;

    /* Set transmit FIFO to transfer bytes. */
    COMBLK->CONTROL &= ~CR_SIZETX_MASK;
     afa:	4a15      	ldr	r2, [pc, #84]	; (b50 <fill_tx_fifo+0x60>)
     afc:	4b14      	ldr	r3, [pc, #80]	; (b50 <fill_tx_fifo+0x60>)
     afe:	681b      	ldr	r3, [r3, #0]
     b00:	f023 0304 	bic.w	r3, r3, #4
     b04:	6013      	str	r3, [r2, #0]
C:\Users\kruci_000\Desktop\University\SoC\Marsfinder\Marsfinder\Marsfinder_FW\Debug/../drivers/mss_sys_services/mss_comblk.c:730
    
    size_sent = 0u;
     b06:	2300      	movs	r3, #0
     b08:	60fb      	str	r3, [r7, #12]
C:\Users\kruci_000\Desktop\University\SoC\Marsfinder\Marsfinder\Marsfinder_FW\Debug/../drivers/mss_sys_services/mss_comblk.c:731
    tx_okay = COMBLK->STATUS & TXTOKAY_MASK;
     b0a:	4b11      	ldr	r3, [pc, #68]	; (b50 <fill_tx_fifo+0x60>)
     b0c:	685b      	ldr	r3, [r3, #4]
     b0e:	f003 0301 	and.w	r3, r3, #1
     b12:	60bb      	str	r3, [r7, #8]
C:\Users\kruci_000\Desktop\University\SoC\Marsfinder\Marsfinder\Marsfinder_FW\Debug/../drivers/mss_sys_services/mss_comblk.c:732
    while((tx_okay != 0u) && (size_sent < cmd_size))
     b14:	e00d      	b.n	b32 <fill_tx_fifo+0x42>
C:\Users\kruci_000\Desktop\University\SoC\Marsfinder\Marsfinder\Marsfinder_FW\Debug/../drivers/mss_sys_services/mss_comblk.c:734
    {
        COMBLK->DATA8 = p_cmd[size_sent];
     b16:	490e      	ldr	r1, [pc, #56]	; (b50 <fill_tx_fifo+0x60>)
     b18:	687a      	ldr	r2, [r7, #4]
     b1a:	68fb      	ldr	r3, [r7, #12]
     b1c:	4413      	add	r3, r2
     b1e:	781b      	ldrb	r3, [r3, #0]
     b20:	610b      	str	r3, [r1, #16]
C:\Users\kruci_000\Desktop\University\SoC\Marsfinder\Marsfinder\Marsfinder_FW\Debug/../drivers/mss_sys_services/mss_comblk.c:735
        ++size_sent;
     b22:	68fb      	ldr	r3, [r7, #12]
     b24:	3301      	adds	r3, #1
     b26:	60fb      	str	r3, [r7, #12]
C:\Users\kruci_000\Desktop\University\SoC\Marsfinder\Marsfinder\Marsfinder_FW\Debug/../drivers/mss_sys_services/mss_comblk.c:736
        tx_okay = COMBLK->STATUS & TXTOKAY_MASK;
     b28:	4b09      	ldr	r3, [pc, #36]	; (b50 <fill_tx_fifo+0x60>)
     b2a:	685b      	ldr	r3, [r3, #4]
     b2c:	f003 0301 	and.w	r3, r3, #1
     b30:	60bb      	str	r3, [r7, #8]
C:\Users\kruci_000\Desktop\University\SoC\Marsfinder\Marsfinder\Marsfinder_FW\Debug/../drivers/mss_sys_services/mss_comblk.c:732
    /* Set transmit FIFO to transfer bytes. */
    COMBLK->CONTROL &= ~CR_SIZETX_MASK;
    
    size_sent = 0u;
    tx_okay = COMBLK->STATUS & TXTOKAY_MASK;
    while((tx_okay != 0u) && (size_sent < cmd_size))
     b32:	68bb      	ldr	r3, [r7, #8]
     b34:	2b00      	cmp	r3, #0
     b36:	d003      	beq.n	b40 <fill_tx_fifo+0x50>
C:\Users\kruci_000\Desktop\University\SoC\Marsfinder\Marsfinder\Marsfinder_FW\Debug/../drivers/mss_sys_services/mss_comblk.c:732 (discriminator 1)
     b38:	68fa      	ldr	r2, [r7, #12]
     b3a:	683b      	ldr	r3, [r7, #0]
     b3c:	429a      	cmp	r2, r3
     b3e:	d3ea      	bcc.n	b16 <fill_tx_fifo+0x26>
C:\Users\kruci_000\Desktop\University\SoC\Marsfinder\Marsfinder\Marsfinder_FW\Debug/../drivers/mss_sys_services/mss_comblk.c:739
        COMBLK->DATA8 = p_cmd[size_sent];
        ++size_sent;
        tx_okay = COMBLK->STATUS & TXTOKAY_MASK;
    }
    
    return size_sent;
     b40:	68fb      	ldr	r3, [r7, #12]
C:\Users\kruci_000\Desktop\University\SoC\Marsfinder\Marsfinder\Marsfinder_FW\Debug/../drivers/mss_sys_services/mss_comblk.c:740
}
     b42:	4618      	mov	r0, r3
     b44:	3714      	adds	r7, #20
     b46:	46bd      	mov	sp, r7
     b48:	f85d 7b04 	ldr.w	r7, [sp], #4
     b4c:	4770      	bx	lr
     b4e:	bf00      	nop
     b50:	40016000 	.word	0x40016000

00000b54 <process_sys_ctrl_command>:
process_sys_ctrl_command():
C:\Users\kruci_000\Desktop\University\SoC\Marsfinder\Marsfinder\Marsfinder_FW\Debug/../drivers/mss_sys_services/mss_comblk.c:746

/*==============================================================================
 *
 */
static void process_sys_ctrl_command(uint8_t cmd_opcode)
{
     b54:	b580      	push	{r7, lr}
     b56:	b082      	sub	sp, #8
     b58:	af00      	add	r7, sp, #0
     b5a:	4603      	mov	r3, r0
     b5c:	71fb      	strb	r3, [r7, #7]
C:\Users\kruci_000\Desktop\University\SoC\Marsfinder\Marsfinder\Marsfinder_FW\Debug/../drivers/mss_sys_services/mss_comblk.c:747
    if(g_async_event_handler != 0)
     b5e:	4b06      	ldr	r3, [pc, #24]	; (b78 <process_sys_ctrl_command+0x24>)
     b60:	681b      	ldr	r3, [r3, #0]
     b62:	2b00      	cmp	r3, #0
     b64:	d004      	beq.n	b70 <process_sys_ctrl_command+0x1c>
C:\Users\kruci_000\Desktop\University\SoC\Marsfinder\Marsfinder\Marsfinder_FW\Debug/../drivers/mss_sys_services/mss_comblk.c:749
    {
        g_async_event_handler(cmd_opcode);
     b66:	4b04      	ldr	r3, [pc, #16]	; (b78 <process_sys_ctrl_command+0x24>)
     b68:	681b      	ldr	r3, [r3, #0]
     b6a:	79fa      	ldrb	r2, [r7, #7]
     b6c:	4610      	mov	r0, r2
     b6e:	4798      	blx	r3
C:\Users\kruci_000\Desktop\University\SoC\Marsfinder\Marsfinder\Marsfinder_FW\Debug/../drivers/mss_sys_services/mss_comblk.c:751
    }
}
     b70:	3708      	adds	r7, #8
     b72:	46bd      	mov	sp, r7
     b74:	bd80      	pop	{r7, pc}
     b76:	bf00      	nop
     b78:	20000134 	.word	0x20000134

00000b7c <start_transfer>:
start_transfer():
C:\Users\kruci_000\Desktop\University\SoC\Marsfinder\Marsfinder\Marsfinder_FW\Debug/../drivers/mss_hpdma/mss_hpdma.c:197
    uint32_t src_addr,
    uint32_t dest_addr,
    uint32_t transfer_size,
    uint8_t transfer_dir
)
{
     b7c:	b490      	push	{r4, r7}
     b7e:	b084      	sub	sp, #16
     b80:	af00      	add	r7, sp, #0
     b82:	60f8      	str	r0, [r7, #12]
     b84:	60b9      	str	r1, [r7, #8]
     b86:	607a      	str	r2, [r7, #4]
     b88:	70fb      	strb	r3, [r7, #3]
C:\Users\kruci_000\Desktop\University\SoC\Marsfinder\Marsfinder\Marsfinder_FW\Debug/../drivers/mss_hpdma/mss_hpdma.c:199
    /* Set descriptor transfer direction */
    HPDMA_BITBAND->Descriptor[g_hpdma_end_desc].HPDMACR_DCP_XFR_DIR = transfer_dir;
     b8a:	484b      	ldr	r0, [pc, #300]	; (cb8 <start_transfer+0x13c>)
     b8c:	4b4b      	ldr	r3, [pc, #300]	; (cbc <start_transfer+0x140>)
     b8e:	681a      	ldr	r2, [r3, #0]
     b90:	78f9      	ldrb	r1, [r7, #3]
     b92:	4613      	mov	r3, r2
     b94:	009b      	lsls	r3, r3, #2
     b96:	4413      	add	r3, r2
     b98:	01db      	lsls	r3, r3, #7
     b9a:	4403      	add	r3, r0
     b9c:	f503 73e0 	add.w	r3, r3, #448	; 0x1c0
     ba0:	6059      	str	r1, [r3, #4]
C:\Users\kruci_000\Desktop\University\SoC\Marsfinder\Marsfinder\Marsfinder_FW\Debug/../drivers/mss_hpdma/mss_hpdma.c:202
    
    /* Store Source and destination Address */
    HPDMA->Descriptor[g_hpdma_end_desc].HPDMASAR_REG = src_addr;
     ba2:	4947      	ldr	r1, [pc, #284]	; (cc0 <start_transfer+0x144>)
     ba4:	4b45      	ldr	r3, [pc, #276]	; (cbc <start_transfer+0x140>)
     ba6:	681a      	ldr	r2, [r3, #0]
     ba8:	4613      	mov	r3, r2
     baa:	009b      	lsls	r3, r3, #2
     bac:	4413      	add	r3, r2
     bae:	009b      	lsls	r3, r3, #2
     bb0:	440b      	add	r3, r1
     bb2:	68fa      	ldr	r2, [r7, #12]
     bb4:	605a      	str	r2, [r3, #4]
C:\Users\kruci_000\Desktop\University\SoC\Marsfinder\Marsfinder\Marsfinder_FW\Debug/../drivers/mss_hpdma/mss_hpdma.c:203
    HPDMA->Descriptor[g_hpdma_end_desc].HPDMADAR_REG = dest_addr;
     bb6:	4942      	ldr	r1, [pc, #264]	; (cc0 <start_transfer+0x144>)
     bb8:	4b40      	ldr	r3, [pc, #256]	; (cbc <start_transfer+0x140>)
     bba:	681a      	ldr	r2, [r3, #0]
     bbc:	4613      	mov	r3, r2
     bbe:	009b      	lsls	r3, r3, #2
     bc0:	4413      	add	r3, r2
     bc2:	009b      	lsls	r3, r3, #2
     bc4:	440b      	add	r3, r1
     bc6:	68ba      	ldr	r2, [r7, #8]
     bc8:	609a      	str	r2, [r3, #8]
C:\Users\kruci_000\Desktop\University\SoC\Marsfinder\Marsfinder\Marsfinder_FW\Debug/../drivers/mss_hpdma/mss_hpdma.c:206
    
    /* Set the transfer size to 64K */
    HPDMA->Descriptor[g_hpdma_end_desc].HPDMACR_REG &= HPDMA_XFR_SIZE_MASK;
     bca:	483d      	ldr	r0, [pc, #244]	; (cc0 <start_transfer+0x144>)
     bcc:	4b3b      	ldr	r3, [pc, #236]	; (cbc <start_transfer+0x140>)
     bce:	6819      	ldr	r1, [r3, #0]
     bd0:	4c3b      	ldr	r4, [pc, #236]	; (cc0 <start_transfer+0x144>)
     bd2:	4b3a      	ldr	r3, [pc, #232]	; (cbc <start_transfer+0x140>)
     bd4:	681a      	ldr	r2, [r3, #0]
     bd6:	4613      	mov	r3, r2
     bd8:	009b      	lsls	r3, r3, #2
     bda:	4413      	add	r3, r2
     bdc:	009b      	lsls	r3, r3, #2
     bde:	4423      	add	r3, r4
     be0:	3308      	adds	r3, #8
     be2:	685b      	ldr	r3, [r3, #4]
     be4:	0c1a      	lsrs	r2, r3, #16
     be6:	0412      	lsls	r2, r2, #16
     be8:	460b      	mov	r3, r1
     bea:	009b      	lsls	r3, r3, #2
     bec:	440b      	add	r3, r1
     bee:	009b      	lsls	r3, r3, #2
     bf0:	4403      	add	r3, r0
     bf2:	3308      	adds	r3, #8
     bf4:	605a      	str	r2, [r3, #4]
C:\Users\kruci_000\Desktop\University\SoC\Marsfinder\Marsfinder\Marsfinder_FW\Debug/../drivers/mss_hpdma/mss_hpdma.c:208
    
    if(transfer_size > MAX_SIZE_PER_DMA_XFR)
     bf6:	687b      	ldr	r3, [r7, #4]
     bf8:	f5b3 3f80 	cmp.w	r3, #65536	; 0x10000
     bfc:	d90f      	bls.n	c1e <start_transfer+0xa2>
C:\Users\kruci_000\Desktop\University\SoC\Marsfinder\Marsfinder\Marsfinder_FW\Debug/../drivers/mss_hpdma/mss_hpdma.c:210
    {
        g_transfer.xfr_size = transfer_size - MAX_SIZE_PER_DMA_XFR;
     bfe:	687b      	ldr	r3, [r7, #4]
     c00:	f5a3 3380 	sub.w	r3, r3, #65536	; 0x10000
     c04:	4a2f      	ldr	r2, [pc, #188]	; (cc4 <start_transfer+0x148>)
     c06:	6113      	str	r3, [r2, #16]
C:\Users\kruci_000\Desktop\University\SoC\Marsfinder\Marsfinder\Marsfinder_FW\Debug/../drivers/mss_hpdma/mss_hpdma.c:211
        g_transfer.des_addr = dest_addr + MAX_SIZE_PER_DMA_XFR;
     c08:	68bb      	ldr	r3, [r7, #8]
     c0a:	f503 3380 	add.w	r3, r3, #65536	; 0x10000
     c0e:	4a2d      	ldr	r2, [pc, #180]	; (cc4 <start_transfer+0x148>)
     c10:	60d3      	str	r3, [r2, #12]
C:\Users\kruci_000\Desktop\University\SoC\Marsfinder\Marsfinder\Marsfinder_FW\Debug/../drivers/mss_hpdma/mss_hpdma.c:212
        g_transfer.src_addr = src_addr + MAX_SIZE_PER_DMA_XFR; 
     c12:	68fb      	ldr	r3, [r7, #12]
     c14:	f503 3380 	add.w	r3, r3, #65536	; 0x10000
     c18:	4a2a      	ldr	r2, [pc, #168]	; (cc4 <start_transfer+0x148>)
     c1a:	6093      	str	r3, [r2, #8]
     c1c:	e019      	b.n	c52 <start_transfer+0xd6>
C:\Users\kruci_000\Desktop\University\SoC\Marsfinder\Marsfinder\Marsfinder_FW\Debug/../drivers/mss_hpdma/mss_hpdma.c:217
    }
    else
    {
        /* Set descriptor transfer size */
        HPDMA->Descriptor[g_hpdma_end_desc].HPDMACR_REG |= (uint16_t)transfer_size;
     c1e:	4828      	ldr	r0, [pc, #160]	; (cc0 <start_transfer+0x144>)
     c20:	4b26      	ldr	r3, [pc, #152]	; (cbc <start_transfer+0x140>)
     c22:	681a      	ldr	r2, [r3, #0]
     c24:	4c26      	ldr	r4, [pc, #152]	; (cc0 <start_transfer+0x144>)
     c26:	4b25      	ldr	r3, [pc, #148]	; (cbc <start_transfer+0x140>)
     c28:	6819      	ldr	r1, [r3, #0]
     c2a:	460b      	mov	r3, r1
     c2c:	009b      	lsls	r3, r3, #2
     c2e:	440b      	add	r3, r1
     c30:	009b      	lsls	r3, r3, #2
     c32:	4423      	add	r3, r4
     c34:	3308      	adds	r3, #8
     c36:	685b      	ldr	r3, [r3, #4]
     c38:	6879      	ldr	r1, [r7, #4]
     c3a:	b289      	uxth	r1, r1
     c3c:	4319      	orrs	r1, r3
     c3e:	4613      	mov	r3, r2
     c40:	009b      	lsls	r3, r3, #2
     c42:	4413      	add	r3, r2
     c44:	009b      	lsls	r3, r3, #2
     c46:	4403      	add	r3, r0
     c48:	3308      	adds	r3, #8
     c4a:	6059      	str	r1, [r3, #4]
C:\Users\kruci_000\Desktop\University\SoC\Marsfinder\Marsfinder\Marsfinder_FW\Debug/../drivers/mss_hpdma/mss_hpdma.c:218
        g_transfer.xfr_size = 0u;     
     c4c:	4b1d      	ldr	r3, [pc, #116]	; (cc4 <start_transfer+0x148>)
     c4e:	2200      	movs	r2, #0
     c50:	611a      	str	r2, [r3, #16]
C:\Users\kruci_000\Desktop\University\SoC\Marsfinder\Marsfinder\Marsfinder_FW\Debug/../drivers/mss_hpdma/mss_hpdma.c:221
    }    
    /* Enable interrupts for the requested descriptor. */
    HPDMA->Descriptor[g_hpdma_end_desc].HPDMACR_REG |= HPDMACR_ALL_IRQ_ENABLE_MASK;       
     c52:	481b      	ldr	r0, [pc, #108]	; (cc0 <start_transfer+0x144>)
     c54:	4b19      	ldr	r3, [pc, #100]	; (cbc <start_transfer+0x140>)
     c56:	681a      	ldr	r2, [r3, #0]
     c58:	4c19      	ldr	r4, [pc, #100]	; (cc0 <start_transfer+0x144>)
     c5a:	4b18      	ldr	r3, [pc, #96]	; (cbc <start_transfer+0x140>)
     c5c:	6819      	ldr	r1, [r3, #0]
     c5e:	460b      	mov	r3, r1
     c60:	009b      	lsls	r3, r3, #2
     c62:	440b      	add	r3, r1
     c64:	009b      	lsls	r3, r3, #2
     c66:	4423      	add	r3, r4
     c68:	3308      	adds	r3, #8
     c6a:	685b      	ldr	r3, [r3, #4]
     c6c:	f443 01e0 	orr.w	r1, r3, #7340032	; 0x700000
     c70:	4613      	mov	r3, r2
     c72:	009b      	lsls	r3, r3, #2
     c74:	4413      	add	r3, r2
     c76:	009b      	lsls	r3, r3, #2
     c78:	4403      	add	r3, r0
     c7a:	3308      	adds	r3, #8
     c7c:	6059      	str	r1, [r3, #4]
C:\Users\kruci_000\Desktop\University\SoC\Marsfinder\Marsfinder\Marsfinder_FW\Debug/../drivers/mss_hpdma/mss_hpdma.c:223
    /* Set valid descriptor to start transfer */
    HPDMA_BITBAND->Descriptor[g_hpdma_end_desc].HPDMACR_DCP_VALID = HPDMA_ENABLE;  
     c7e:	490e      	ldr	r1, [pc, #56]	; (cb8 <start_transfer+0x13c>)
     c80:	4b0e      	ldr	r3, [pc, #56]	; (cbc <start_transfer+0x140>)
     c82:	681a      	ldr	r2, [r3, #0]
     c84:	4613      	mov	r3, r2
     c86:	009b      	lsls	r3, r3, #2
     c88:	4413      	add	r3, r2
     c8a:	01db      	lsls	r3, r3, #7
     c8c:	440b      	add	r3, r1
     c8e:	f503 73e0 	add.w	r3, r3, #448	; 0x1c0
     c92:	2201      	movs	r2, #1
     c94:	601a      	str	r2, [r3, #0]
C:\Users\kruci_000\Desktop\University\SoC\Marsfinder\Marsfinder\Marsfinder_FW\Debug/../drivers/mss_hpdma/mss_hpdma.c:225
    /* Start transfer */
    HPDMA_BITBAND->Descriptor[g_hpdma_end_desc].HPDMACR_DCP_PAUSE = HPDMA_DISABLE;        
     c96:	4908      	ldr	r1, [pc, #32]	; (cb8 <start_transfer+0x13c>)
     c98:	4b08      	ldr	r3, [pc, #32]	; (cbc <start_transfer+0x140>)
     c9a:	681a      	ldr	r2, [r3, #0]
     c9c:	4613      	mov	r3, r2
     c9e:	009b      	lsls	r3, r3, #2
     ca0:	4413      	add	r3, r2
     ca2:	01db      	lsls	r3, r3, #7
     ca4:	440b      	add	r3, r1
     ca6:	f503 73e4 	add.w	r3, r3, #456	; 0x1c8
     caa:	2200      	movs	r2, #0
     cac:	605a      	str	r2, [r3, #4]
C:\Users\kruci_000\Desktop\University\SoC\Marsfinder\Marsfinder\Marsfinder_FW\Debug/../drivers/mss_hpdma/mss_hpdma.c:226
}
     cae:	3710      	adds	r7, #16
     cb0:	46bd      	mov	sp, r7
     cb2:	bc90      	pop	{r4, r7}
     cb4:	4770      	bx	lr
     cb6:	bf00      	nop
     cb8:	42280000 	.word	0x42280000
     cbc:	20000150 	.word	0x20000150
     cc0:	40014000 	.word	0x40014000
     cc4:	20000138 	.word	0x20000138

00000cc8 <HPDMA_Complete_IRQHandler>:
HPDMA_Complete_IRQHandler():
C:\Users\kruci_000\Desktop\University\SoC\Marsfinder\Marsfinder\Marsfinder_FW\Debug/../drivers/mss_hpdma/mss_hpdma.c:313
#if defined(__GNUC__)
__attribute__((__interrupt__)) void HPDMA_Complete_IRQHandler(void)
#else
void HPDMA_Complete_IRQHandler(void)
#endif 
{
     cc8:	4668      	mov	r0, sp
     cca:	f020 0107 	bic.w	r1, r0, #7
     cce:	468d      	mov	sp, r1
     cd0:	b591      	push	{r0, r4, r7, lr}
     cd2:	af00      	add	r7, sp, #0
C:\Users\kruci_000\Desktop\University\SoC\Marsfinder\Marsfinder\Marsfinder_FW\Debug/../drivers/mss_hpdma/mss_hpdma.c:315
    /* Clear interrupt */
    HPDMA_BITBAND->HPDMAICR_CLR_XFR_INT[g_hpdma_current_desc] = HPDMA_ENABLE;
     cd4:	4a34      	ldr	r2, [pc, #208]	; (da8 <HPDMA_Complete_IRQHandler+0xe0>)
     cd6:	4b35      	ldr	r3, [pc, #212]	; (dac <HPDMA_Complete_IRQHandler+0xe4>)
     cd8:	681b      	ldr	r3, [r3, #0]
     cda:	f503 7328 	add.w	r3, r3, #672	; 0x2a0
     cde:	2101      	movs	r1, #1
     ce0:	f842 1023 	str.w	r1, [r2, r3, lsl #2]
C:\Users\kruci_000\Desktop\University\SoC\Marsfinder\Marsfinder\Marsfinder_FW\Debug/../drivers/mss_hpdma/mss_hpdma.c:317
    /* Disable interrupts */
    HPDMA->Descriptor[g_hpdma_current_desc].HPDMACR_REG &= ~HPDMACR_ALL_IRQ_ENABLE_MASK;
     ce4:	4832      	ldr	r0, [pc, #200]	; (db0 <HPDMA_Complete_IRQHandler+0xe8>)
     ce6:	4b31      	ldr	r3, [pc, #196]	; (dac <HPDMA_Complete_IRQHandler+0xe4>)
     ce8:	681a      	ldr	r2, [r3, #0]
     cea:	4c31      	ldr	r4, [pc, #196]	; (db0 <HPDMA_Complete_IRQHandler+0xe8>)
     cec:	4b2f      	ldr	r3, [pc, #188]	; (dac <HPDMA_Complete_IRQHandler+0xe4>)
     cee:	6819      	ldr	r1, [r3, #0]
     cf0:	460b      	mov	r3, r1
     cf2:	009b      	lsls	r3, r3, #2
     cf4:	440b      	add	r3, r1
     cf6:	009b      	lsls	r3, r3, #2
     cf8:	4423      	add	r3, r4
     cfa:	3308      	adds	r3, #8
     cfc:	685b      	ldr	r3, [r3, #4]
     cfe:	f423 01e0 	bic.w	r1, r3, #7340032	; 0x700000
     d02:	4613      	mov	r3, r2
     d04:	009b      	lsls	r3, r3, #2
     d06:	4413      	add	r3, r2
     d08:	009b      	lsls	r3, r3, #2
     d0a:	4403      	add	r3, r0
     d0c:	3308      	adds	r3, #8
     d0e:	6059      	str	r1, [r3, #4]
C:\Users\kruci_000\Desktop\University\SoC\Marsfinder\Marsfinder\Marsfinder_FW\Debug/../drivers/mss_hpdma/mss_hpdma.c:319
    
    ++g_hpdma_current_desc;
     d10:	4b26      	ldr	r3, [pc, #152]	; (dac <HPDMA_Complete_IRQHandler+0xe4>)
     d12:	681b      	ldr	r3, [r3, #0]
     d14:	3301      	adds	r3, #1
     d16:	4a25      	ldr	r2, [pc, #148]	; (dac <HPDMA_Complete_IRQHandler+0xe4>)
     d18:	6013      	str	r3, [r2, #0]
C:\Users\kruci_000\Desktop\University\SoC\Marsfinder\Marsfinder\Marsfinder_FW\Debug/../drivers/mss_hpdma/mss_hpdma.c:321
    
    if(NO_OF_HPDMA_DESCRIPTORS == g_hpdma_current_desc)
     d1a:	4b24      	ldr	r3, [pc, #144]	; (dac <HPDMA_Complete_IRQHandler+0xe4>)
     d1c:	681b      	ldr	r3, [r3, #0]
     d1e:	2b04      	cmp	r3, #4
     d20:	d102      	bne.n	d28 <HPDMA_Complete_IRQHandler+0x60>
C:\Users\kruci_000\Desktop\University\SoC\Marsfinder\Marsfinder\Marsfinder_FW\Debug/../drivers/mss_hpdma/mss_hpdma.c:323
    {
        g_hpdma_current_desc = 0u;
     d22:	4b22      	ldr	r3, [pc, #136]	; (dac <HPDMA_Complete_IRQHandler+0xe4>)
     d24:	2200      	movs	r2, #0
     d26:	601a      	str	r2, [r3, #0]
C:\Users\kruci_000\Desktop\University\SoC\Marsfinder\Marsfinder\Marsfinder_FW\Debug/../drivers/mss_hpdma/mss_hpdma.c:326
    } 
    
    if(g_transfer.xfr_size > 0u)
     d28:	4b22      	ldr	r3, [pc, #136]	; (db4 <HPDMA_Complete_IRQHandler+0xec>)
     d2a:	691b      	ldr	r3, [r3, #16]
     d2c:	2b00      	cmp	r3, #0
     d2e:	d017      	beq.n	d60 <HPDMA_Complete_IRQHandler+0x98>
C:\Users\kruci_000\Desktop\University\SoC\Marsfinder\Marsfinder\Marsfinder_FW\Debug/../drivers/mss_hpdma/mss_hpdma.c:328
    {
        if(NO_OF_HPDMA_DESCRIPTORS == g_hpdma_end_desc)
     d30:	4b21      	ldr	r3, [pc, #132]	; (db8 <HPDMA_Complete_IRQHandler+0xf0>)
     d32:	681b      	ldr	r3, [r3, #0]
     d34:	2b04      	cmp	r3, #4
     d36:	d103      	bne.n	d40 <HPDMA_Complete_IRQHandler+0x78>
C:\Users\kruci_000\Desktop\University\SoC\Marsfinder\Marsfinder\Marsfinder_FW\Debug/../drivers/mss_hpdma/mss_hpdma.c:330
        {
            g_hpdma_end_desc = 0u;
     d38:	4b1f      	ldr	r3, [pc, #124]	; (db8 <HPDMA_Complete_IRQHandler+0xf0>)
     d3a:	2200      	movs	r2, #0
     d3c:	601a      	str	r2, [r3, #0]
     d3e:	e004      	b.n	d4a <HPDMA_Complete_IRQHandler+0x82>
C:\Users\kruci_000\Desktop\University\SoC\Marsfinder\Marsfinder\Marsfinder_FW\Debug/../drivers/mss_hpdma/mss_hpdma.c:334
        }
        else
        {
            ++g_hpdma_end_desc;
     d40:	4b1d      	ldr	r3, [pc, #116]	; (db8 <HPDMA_Complete_IRQHandler+0xf0>)
     d42:	681b      	ldr	r3, [r3, #0]
     d44:	3301      	adds	r3, #1
     d46:	4a1c      	ldr	r2, [pc, #112]	; (db8 <HPDMA_Complete_IRQHandler+0xf0>)
     d48:	6013      	str	r3, [r2, #0]
C:\Users\kruci_000\Desktop\University\SoC\Marsfinder\Marsfinder\Marsfinder_FW\Debug/../drivers/mss_hpdma/mss_hpdma.c:336
        }
        start_transfer(g_transfer.src_addr,
     d4a:	4b1a      	ldr	r3, [pc, #104]	; (db4 <HPDMA_Complete_IRQHandler+0xec>)
     d4c:	6898      	ldr	r0, [r3, #8]
     d4e:	4b19      	ldr	r3, [pc, #100]	; (db4 <HPDMA_Complete_IRQHandler+0xec>)
     d50:	68d9      	ldr	r1, [r3, #12]
     d52:	4b18      	ldr	r3, [pc, #96]	; (db4 <HPDMA_Complete_IRQHandler+0xec>)
     d54:	691a      	ldr	r2, [r3, #16]
     d56:	4b17      	ldr	r3, [pc, #92]	; (db4 <HPDMA_Complete_IRQHandler+0xec>)
     d58:	7d1b      	ldrb	r3, [r3, #20]
     d5a:	f7ff ff0f 	bl	b7c <start_transfer>
     d5e:	e01e      	b.n	d9e <HPDMA_Complete_IRQHandler+0xd6>
C:\Users\kruci_000\Desktop\University\SoC\Marsfinder\Marsfinder\Marsfinder_FW\Debug/../drivers/mss_hpdma/mss_hpdma.c:343
                        g_transfer.xfr_size,
                        g_transfer.xfr_dir);
    }
    else
    {
        if(((HPDMA->Descriptor[g_hpdma_current_desc].HPDMACR_REG) & HPDMACR_ALL_IRQ_ENABLE_MASK) == 0u)  
     d60:	4913      	ldr	r1, [pc, #76]	; (db0 <HPDMA_Complete_IRQHandler+0xe8>)
     d62:	4b12      	ldr	r3, [pc, #72]	; (dac <HPDMA_Complete_IRQHandler+0xe4>)
     d64:	681a      	ldr	r2, [r3, #0]
     d66:	4613      	mov	r3, r2
     d68:	009b      	lsls	r3, r3, #2
     d6a:	4413      	add	r3, r2
     d6c:	009b      	lsls	r3, r3, #2
     d6e:	440b      	add	r3, r1
     d70:	3308      	adds	r3, #8
     d72:	685b      	ldr	r3, [r3, #4]
     d74:	f403 03e0 	and.w	r3, r3, #7340032	; 0x700000
     d78:	2b00      	cmp	r3, #0
     d7a:	d110      	bne.n	d9e <HPDMA_Complete_IRQHandler+0xd6>
C:\Users\kruci_000\Desktop\University\SoC\Marsfinder\Marsfinder\Marsfinder_FW\Debug/../drivers/mss_hpdma/mss_hpdma.c:345
        {
            g_hpdma_current_desc = 0u;
     d7c:	4b0b      	ldr	r3, [pc, #44]	; (dac <HPDMA_Complete_IRQHandler+0xe4>)
     d7e:	2200      	movs	r2, #0
     d80:	601a      	str	r2, [r3, #0]
C:\Users\kruci_000\Desktop\University\SoC\Marsfinder\Marsfinder\Marsfinder_FW\Debug/../drivers/mss_hpdma/mss_hpdma.c:346
            g_hpdma_end_desc = 0u;
     d82:	4b0d      	ldr	r3, [pc, #52]	; (db8 <HPDMA_Complete_IRQHandler+0xf0>)
     d84:	2200      	movs	r2, #0
     d86:	601a      	str	r2, [r3, #0]
C:\Users\kruci_000\Desktop\University\SoC\Marsfinder\Marsfinder\Marsfinder_FW\Debug/../drivers/mss_hpdma/mss_hpdma.c:348
        
            g_transfer.state = HPDMA_COMPLETED;
     d88:	4b0a      	ldr	r3, [pc, #40]	; (db4 <HPDMA_Complete_IRQHandler+0xec>)
     d8a:	2201      	movs	r2, #1
     d8c:	701a      	strb	r2, [r3, #0]
C:\Users\kruci_000\Desktop\University\SoC\Marsfinder\Marsfinder\Marsfinder_FW\Debug/../drivers/mss_hpdma/mss_hpdma.c:349
            if(g_transfer.completion_handler != NULL_HANDLER)
     d8e:	4b09      	ldr	r3, [pc, #36]	; (db4 <HPDMA_Complete_IRQHandler+0xec>)
     d90:	685b      	ldr	r3, [r3, #4]
     d92:	2b00      	cmp	r3, #0
     d94:	d003      	beq.n	d9e <HPDMA_Complete_IRQHandler+0xd6>
C:\Users\kruci_000\Desktop\University\SoC\Marsfinder\Marsfinder\Marsfinder_FW\Debug/../drivers/mss_hpdma/mss_hpdma.c:351
            {
                (*(g_transfer.completion_handler))(HPDMA_COMPLETED);
     d96:	4b07      	ldr	r3, [pc, #28]	; (db4 <HPDMA_Complete_IRQHandler+0xec>)
     d98:	685b      	ldr	r3, [r3, #4]
     d9a:	2001      	movs	r0, #1
     d9c:	4798      	blx	r3
C:\Users\kruci_000\Desktop\University\SoC\Marsfinder\Marsfinder\Marsfinder_FW\Debug/../drivers/mss_hpdma/mss_hpdma.c:355
            }  
        }
    }
}
     d9e:	46bd      	mov	sp, r7
     da0:	e8bd 4091 	ldmia.w	sp!, {r0, r4, r7, lr}
     da4:	4685      	mov	sp, r0
     da6:	4770      	bx	lr
     da8:	42280000 	.word	0x42280000
     dac:	20000154 	.word	0x20000154
     db0:	40014000 	.word	0x40014000
     db4:	20000138 	.word	0x20000138
     db8:	20000150 	.word	0x20000150

00000dbc <HPDMA_Error_IRQHandler>:
HPDMA_Error_IRQHandler():
C:\Users\kruci_000\Desktop\University\SoC\Marsfinder\Marsfinder\Marsfinder_FW\Debug/../drivers/mss_hpdma/mss_hpdma.c:367
#if defined(__GNUC__)
__attribute__((__interrupt__)) void HPDMA_Error_IRQHandler(void)
#else
void HPDMA_Error_IRQHandler(void)
#endif 
{
     dbc:	4668      	mov	r0, sp
     dbe:	f020 0107 	bic.w	r1, r0, #7
     dc2:	468d      	mov	sp, r1
     dc4:	b581      	push	{r0, r7, lr}
     dc6:	b083      	sub	sp, #12
     dc8:	af00      	add	r7, sp, #0
C:\Users\kruci_000\Desktop\University\SoC\Marsfinder\Marsfinder\Marsfinder_FW\Debug/../drivers/mss_hpdma/mss_hpdma.c:374
    uint32_t inc;

    /*
     * Handle source/destination errors.
     */
    error_bits = HPDMA->HPDMAEDR_REG;
     dca:	4b38      	ldr	r3, [pc, #224]	; (eac <HPDMA_Error_IRQHandler+0xf0>)
     dcc:	681b      	ldr	r3, [r3, #0]
     dce:	603b      	str	r3, [r7, #0]
C:\Users\kruci_000\Desktop\University\SoC\Marsfinder\Marsfinder\Marsfinder_FW\Debug/../drivers/mss_hpdma/mss_hpdma.c:375
    error_bits = error_bits & HPDMAEDR_DCP_ERR_MASK;
     dd0:	683b      	ldr	r3, [r7, #0]
     dd2:	f403 6370 	and.w	r3, r3, #3840	; 0xf00
     dd6:	603b      	str	r3, [r7, #0]
C:\Users\kruci_000\Desktop\University\SoC\Marsfinder\Marsfinder\Marsfinder_FW\Debug/../drivers/mss_hpdma/mss_hpdma.c:377
    
    if(error_bits != 0u)
     dd8:	683b      	ldr	r3, [r7, #0]
     dda:	2b00      	cmp	r3, #0
     ddc:	d02f      	beq.n	e3e <HPDMA_Error_IRQHandler+0x82>
C:\Users\kruci_000\Desktop\University\SoC\Marsfinder\Marsfinder\Marsfinder_FW\Debug/../drivers/mss_hpdma/mss_hpdma.c:379
    {
        if(HPDMA_BITBAND->Descriptor[g_hpdma_current_desc].HPDMASR_DCP_SERR != 0u)
     dde:	4934      	ldr	r1, [pc, #208]	; (eb0 <HPDMA_Error_IRQHandler+0xf4>)
     de0:	4b34      	ldr	r3, [pc, #208]	; (eb4 <HPDMA_Error_IRQHandler+0xf8>)
     de2:	681a      	ldr	r2, [r3, #0]
     de4:	4613      	mov	r3, r2
     de6:	009b      	lsls	r3, r3, #2
     de8:	4413      	add	r3, r2
     dea:	01db      	lsls	r3, r3, #7
     dec:	440b      	add	r3, r1
     dee:	f503 7302 	add.w	r3, r3, #520	; 0x208
     df2:	681b      	ldr	r3, [r3, #0]
     df4:	2b00      	cmp	r3, #0
     df6:	d00a      	beq.n	e0e <HPDMA_Error_IRQHandler+0x52>
C:\Users\kruci_000\Desktop\University\SoC\Marsfinder\Marsfinder\Marsfinder_FW\Debug/../drivers/mss_hpdma/mss_hpdma.c:381
        {
            g_transfer.state = HPDMA_SOURCE_ERROR;
     df8:	4b2f      	ldr	r3, [pc, #188]	; (eb8 <HPDMA_Error_IRQHandler+0xfc>)
     dfa:	2202      	movs	r2, #2
     dfc:	701a      	strb	r2, [r3, #0]
C:\Users\kruci_000\Desktop\University\SoC\Marsfinder\Marsfinder\Marsfinder_FW\Debug/../drivers/mss_hpdma/mss_hpdma.c:382
            if(g_transfer.completion_handler != NULL_HANDLER)
     dfe:	4b2e      	ldr	r3, [pc, #184]	; (eb8 <HPDMA_Error_IRQHandler+0xfc>)
     e00:	685b      	ldr	r3, [r3, #4]
     e02:	2b00      	cmp	r3, #0
     e04:	d003      	beq.n	e0e <HPDMA_Error_IRQHandler+0x52>
C:\Users\kruci_000\Desktop\University\SoC\Marsfinder\Marsfinder\Marsfinder_FW\Debug/../drivers/mss_hpdma/mss_hpdma.c:384
            {                        
                (*(g_transfer.completion_handler))(HPDMA_SOURCE_ERROR);
     e06:	4b2c      	ldr	r3, [pc, #176]	; (eb8 <HPDMA_Error_IRQHandler+0xfc>)
     e08:	685b      	ldr	r3, [r3, #4]
     e0a:	2002      	movs	r0, #2
     e0c:	4798      	blx	r3
C:\Users\kruci_000\Desktop\University\SoC\Marsfinder\Marsfinder\Marsfinder_FW\Debug/../drivers/mss_hpdma/mss_hpdma.c:388
            }
        }
        
        if(HPDMA_BITBAND->Descriptor[g_hpdma_current_desc].HPDMASR_DCP_DERR != 0u)
     e0e:	4928      	ldr	r1, [pc, #160]	; (eb0 <HPDMA_Error_IRQHandler+0xf4>)
     e10:	4b28      	ldr	r3, [pc, #160]	; (eb4 <HPDMA_Error_IRQHandler+0xf8>)
     e12:	681a      	ldr	r2, [r3, #0]
     e14:	4613      	mov	r3, r2
     e16:	009b      	lsls	r3, r3, #2
     e18:	4413      	add	r3, r2
     e1a:	01db      	lsls	r3, r3, #7
     e1c:	440b      	add	r3, r1
     e1e:	f503 7302 	add.w	r3, r3, #520	; 0x208
     e22:	685b      	ldr	r3, [r3, #4]
     e24:	2b00      	cmp	r3, #0
     e26:	d00a      	beq.n	e3e <HPDMA_Error_IRQHandler+0x82>
C:\Users\kruci_000\Desktop\University\SoC\Marsfinder\Marsfinder\Marsfinder_FW\Debug/../drivers/mss_hpdma/mss_hpdma.c:390
        {
            g_transfer.state = HPDMA_DESTINATION_ERROR;
     e28:	4b23      	ldr	r3, [pc, #140]	; (eb8 <HPDMA_Error_IRQHandler+0xfc>)
     e2a:	2203      	movs	r2, #3
     e2c:	701a      	strb	r2, [r3, #0]
C:\Users\kruci_000\Desktop\University\SoC\Marsfinder\Marsfinder\Marsfinder_FW\Debug/../drivers/mss_hpdma/mss_hpdma.c:391
            if(g_transfer.completion_handler != NULL_HANDLER)
     e2e:	4b22      	ldr	r3, [pc, #136]	; (eb8 <HPDMA_Error_IRQHandler+0xfc>)
     e30:	685b      	ldr	r3, [r3, #4]
     e32:	2b00      	cmp	r3, #0
     e34:	d003      	beq.n	e3e <HPDMA_Error_IRQHandler+0x82>
C:\Users\kruci_000\Desktop\University\SoC\Marsfinder\Marsfinder\Marsfinder_FW\Debug/../drivers/mss_hpdma/mss_hpdma.c:393
            {                        
                (*(g_transfer.completion_handler))(HPDMA_DESTINATION_ERROR);
     e36:	4b20      	ldr	r3, [pc, #128]	; (eb8 <HPDMA_Error_IRQHandler+0xfc>)
     e38:	685b      	ldr	r3, [r3, #4]
     e3a:	2003      	movs	r0, #3
     e3c:	4798      	blx	r3
C:\Users\kruci_000\Desktop\University\SoC\Marsfinder\Marsfinder\Marsfinder_FW\Debug/../drivers/mss_hpdma/mss_hpdma.c:401
    }
    
    /*
     * Handle non word aligned errors.
     */
    error_bits = HPDMA->HPDMAEDR_REG;
     e3e:	4b1b      	ldr	r3, [pc, #108]	; (eac <HPDMA_Error_IRQHandler+0xf0>)
     e40:	681b      	ldr	r3, [r3, #0]
     e42:	603b      	str	r3, [r7, #0]
C:\Users\kruci_000\Desktop\University\SoC\Marsfinder\Marsfinder\Marsfinder_FW\Debug/../drivers/mss_hpdma/mss_hpdma.c:402
    error_bits = error_bits & HPDMAEDR_NON_WORD_ERR_MASK;
     e44:	683b      	ldr	r3, [r7, #0]
     e46:	f403 4370 	and.w	r3, r3, #61440	; 0xf000
     e4a:	603b      	str	r3, [r7, #0]
C:\Users\kruci_000\Desktop\University\SoC\Marsfinder\Marsfinder\Marsfinder_FW\Debug/../drivers/mss_hpdma/mss_hpdma.c:404
    
    if(error_bits != 0u)
     e4c:	683b      	ldr	r3, [r7, #0]
     e4e:	2b00      	cmp	r3, #0
     e50:	d00a      	beq.n	e68 <HPDMA_Error_IRQHandler+0xac>
C:\Users\kruci_000\Desktop\University\SoC\Marsfinder\Marsfinder\Marsfinder_FW\Debug/../drivers/mss_hpdma/mss_hpdma.c:406
    {
        g_transfer.state = HPDMA_WORD_ALIGN_ERROR;
     e52:	4b19      	ldr	r3, [pc, #100]	; (eb8 <HPDMA_Error_IRQHandler+0xfc>)
     e54:	2204      	movs	r2, #4
     e56:	701a      	strb	r2, [r3, #0]
C:\Users\kruci_000\Desktop\University\SoC\Marsfinder\Marsfinder\Marsfinder_FW\Debug/../drivers/mss_hpdma/mss_hpdma.c:408
        /* Call handler. */
        if(g_transfer.completion_handler != NULL_HANDLER)
     e58:	4b17      	ldr	r3, [pc, #92]	; (eb8 <HPDMA_Error_IRQHandler+0xfc>)
     e5a:	685b      	ldr	r3, [r3, #4]
     e5c:	2b00      	cmp	r3, #0
     e5e:	d003      	beq.n	e68 <HPDMA_Error_IRQHandler+0xac>
C:\Users\kruci_000\Desktop\University\SoC\Marsfinder\Marsfinder\Marsfinder_FW\Debug/../drivers/mss_hpdma/mss_hpdma.c:410
        {
            (*(g_transfer.completion_handler))(HPDMA_WORD_ALIGN_ERROR);
     e60:	4b15      	ldr	r3, [pc, #84]	; (eb8 <HPDMA_Error_IRQHandler+0xfc>)
     e62:	685b      	ldr	r3, [r3, #4]
     e64:	2004      	movs	r0, #4
     e66:	4798      	blx	r3
C:\Users\kruci_000\Desktop\University\SoC\Marsfinder\Marsfinder\Marsfinder_FW\Debug/../drivers/mss_hpdma/mss_hpdma.c:414
        }
    }
    
    for(inc = 0u; inc < NO_OF_HPDMA_DESCRIPTORS; inc++)
     e68:	2300      	movs	r3, #0
     e6a:	607b      	str	r3, [r7, #4]
     e6c:	e014      	b.n	e98 <HPDMA_Error_IRQHandler+0xdc>
C:\Users\kruci_000\Desktop\University\SoC\Marsfinder\Marsfinder\Marsfinder_FW\Debug/../drivers/mss_hpdma/mss_hpdma.c:417 (discriminator 3)
    {
        /* Abort transfer. */
        HPDMA_BITBAND->Descriptor[inc].HPDMACR_DCP_CLR = HPDMA_ENABLE;
     e6e:	4910      	ldr	r1, [pc, #64]	; (eb0 <HPDMA_Error_IRQHandler+0xf4>)
     e70:	687a      	ldr	r2, [r7, #4]
     e72:	4613      	mov	r3, r2
     e74:	009b      	lsls	r3, r3, #2
     e76:	4413      	add	r3, r2
     e78:	01db      	lsls	r3, r3, #7
     e7a:	440b      	add	r3, r1
     e7c:	f503 73e4 	add.w	r3, r3, #456	; 0x1c8
     e80:	2201      	movs	r2, #1
     e82:	601a      	str	r2, [r3, #0]
C:\Users\kruci_000\Desktop\University\SoC\Marsfinder\Marsfinder\Marsfinder_FW\Debug/../drivers/mss_hpdma/mss_hpdma.c:419 (discriminator 3)
        /* Clear interrupt. */
        HPDMA_BITBAND->HPDMAICR_CLR_XFR_INT[inc] = HPDMA_ENABLE;
     e84:	4a0a      	ldr	r2, [pc, #40]	; (eb0 <HPDMA_Error_IRQHandler+0xf4>)
     e86:	687b      	ldr	r3, [r7, #4]
     e88:	f503 7328 	add.w	r3, r3, #672	; 0x2a0
     e8c:	2101      	movs	r1, #1
     e8e:	f842 1023 	str.w	r1, [r2, r3, lsl #2]
C:\Users\kruci_000\Desktop\University\SoC\Marsfinder\Marsfinder\Marsfinder_FW\Debug/../drivers/mss_hpdma/mss_hpdma.c:414 (discriminator 3)
        {
            (*(g_transfer.completion_handler))(HPDMA_WORD_ALIGN_ERROR);
        }
    }
    
    for(inc = 0u; inc < NO_OF_HPDMA_DESCRIPTORS; inc++)
     e92:	687b      	ldr	r3, [r7, #4]
     e94:	3301      	adds	r3, #1
     e96:	607b      	str	r3, [r7, #4]
C:\Users\kruci_000\Desktop\University\SoC\Marsfinder\Marsfinder\Marsfinder_FW\Debug/../drivers/mss_hpdma/mss_hpdma.c:414 (discriminator 1)
     e98:	687b      	ldr	r3, [r7, #4]
     e9a:	2b03      	cmp	r3, #3
     e9c:	d9e7      	bls.n	e6e <HPDMA_Error_IRQHandler+0xb2>
C:\Users\kruci_000\Desktop\University\SoC\Marsfinder\Marsfinder\Marsfinder_FW\Debug/../drivers/mss_hpdma/mss_hpdma.c:421
        /* Abort transfer. */
        HPDMA_BITBAND->Descriptor[inc].HPDMACR_DCP_CLR = HPDMA_ENABLE;
        /* Clear interrupt. */
        HPDMA_BITBAND->HPDMAICR_CLR_XFR_INT[inc] = HPDMA_ENABLE;
    }
}
     e9e:	370c      	adds	r7, #12
     ea0:	46bd      	mov	sp, r7
     ea2:	e8bd 4081 	ldmia.w	sp!, {r0, r7, lr}
     ea6:	4685      	mov	sp, r0
     ea8:	4770      	bx	lr
     eaa:	bf00      	nop
     eac:	40014000 	.word	0x40014000
     eb0:	42280000 	.word	0x42280000
     eb4:	20000154 	.word	0x20000154
     eb8:	20000138 	.word	0x20000138

00000ebc <UART_init>:
UART_init():
C:\Users\kruci_000\Desktop\University\SoC\Marsfinder\Marsfinder\Marsfinder_FW\Debug/../drivers/CoreUARTapb/core_uart_apb.c:45
    UART_instance_t * this_uart,
    addr_t base_addr,
    uint16_t baud_value,
    uint8_t line_config
)
{
     ebc:	b580      	push	{r7, lr}
     ebe:	b086      	sub	sp, #24
     ec0:	af00      	add	r7, sp, #0
     ec2:	60f8      	str	r0, [r7, #12]
     ec4:	60b9      	str	r1, [r7, #8]
     ec6:	4611      	mov	r1, r2
     ec8:	461a      	mov	r2, r3
     eca:	460b      	mov	r3, r1
     ecc:	80fb      	strh	r3, [r7, #6]
     ece:	4613      	mov	r3, r2
     ed0:	717b      	strb	r3, [r7, #5]
C:\Users\kruci_000\Desktop\University\SoC\Marsfinder\Marsfinder\Marsfinder_FW\Debug/../drivers/CoreUARTapb/core_uart_apb.c:48
    uint8_t rx_full;
    
    HAL_ASSERT( this_uart != NULL_INSTANCE )
     ed2:	68fb      	ldr	r3, [r7, #12]
     ed4:	2b00      	cmp	r3, #0
     ed6:	d100      	bne.n	eda <UART_init+0x1e>
C:\Users\kruci_000\Desktop\University\SoC\Marsfinder\Marsfinder\Marsfinder_FW\Debug/../drivers/CoreUARTapb/core_uart_apb.c:48 (discriminator 1)
     ed8:	be00      	bkpt	0x0000
C:\Users\kruci_000\Desktop\University\SoC\Marsfinder\Marsfinder\Marsfinder_FW\Debug/../drivers/CoreUARTapb/core_uart_apb.c:49
    HAL_ASSERT( line_config <= MAX_LINE_CONFIG )
     eda:	797b      	ldrb	r3, [r7, #5]
     edc:	2b07      	cmp	r3, #7
     ede:	d900      	bls.n	ee2 <UART_init+0x26>
C:\Users\kruci_000\Desktop\University\SoC\Marsfinder\Marsfinder\Marsfinder_FW\Debug/../drivers/CoreUARTapb/core_uart_apb.c:49 (discriminator 1)
     ee0:	be00      	bkpt	0x0000
C:\Users\kruci_000\Desktop\University\SoC\Marsfinder\Marsfinder\Marsfinder_FW\Debug/../drivers/CoreUARTapb/core_uart_apb.c:50
    HAL_ASSERT( baud_value <= MAX_BAUD_VALUE )
     ee2:	88fb      	ldrh	r3, [r7, #6]
     ee4:	f5b3 5f00 	cmp.w	r3, #8192	; 0x2000
     ee8:	d300      	bcc.n	eec <UART_init+0x30>
C:\Users\kruci_000\Desktop\University\SoC\Marsfinder\Marsfinder\Marsfinder_FW\Debug/../drivers/CoreUARTapb/core_uart_apb.c:50 (discriminator 1)
     eea:	be00      	bkpt	0x0000
C:\Users\kruci_000\Desktop\University\SoC\Marsfinder\Marsfinder\Marsfinder_FW\Debug/../drivers/CoreUARTapb/core_uart_apb.c:52

    if( ( this_uart != NULL_INSTANCE ) &&
     eec:	68fb      	ldr	r3, [r7, #12]
     eee:	2b00      	cmp	r3, #0
     ef0:	d06b      	beq.n	fca <UART_init+0x10e>
C:\Users\kruci_000\Desktop\University\SoC\Marsfinder\Marsfinder\Marsfinder_FW\Debug/../drivers/CoreUARTapb/core_uart_apb.c:52 (discriminator 1)
     ef2:	797b      	ldrb	r3, [r7, #5]
     ef4:	2b07      	cmp	r3, #7
     ef6:	d868      	bhi.n	fca <UART_init+0x10e>
C:\Users\kruci_000\Desktop\University\SoC\Marsfinder\Marsfinder\Marsfinder_FW\Debug/../drivers/CoreUARTapb/core_uart_apb.c:53
        ( line_config <= MAX_LINE_CONFIG ) &&
     ef8:	88fb      	ldrh	r3, [r7, #6]
     efa:	f5b3 5f00 	cmp.w	r3, #8192	; 0x2000
     efe:	d264      	bcs.n	fca <UART_init+0x10e>
C:\Users\kruci_000\Desktop\University\SoC\Marsfinder\Marsfinder\Marsfinder_FW\Debug/../drivers/CoreUARTapb/core_uart_apb.c:59
        ( baud_value <= MAX_BAUD_VALUE ) )
    {
        /*
         * Store lower 8-bits of baud value in CTRL1.
         */
        HAL_set_8bit_reg( base_addr, CTRL1, (uint_fast8_t)(baud_value &
     f00:	68bb      	ldr	r3, [r7, #8]
     f02:	f103 0208 	add.w	r2, r3, #8
     f06:	88fb      	ldrh	r3, [r7, #6]
     f08:	b2db      	uxtb	r3, r3
     f0a:	4610      	mov	r0, r2
     f0c:	4619      	mov	r1, r3
     f0e:	f7ff fb94 	bl	63a <HW_set_8bit_reg>
C:\Users\kruci_000\Desktop\University\SoC\Marsfinder\Marsfinder\Marsfinder_FW\Debug/../drivers/CoreUARTapb/core_uart_apb.c:66
    
        /*
         * Extract higher 5-bits of baud value and store in higher 5-bits 
         * of CTRL2, along with line configuration in lower 3 three bits.
         */
        HAL_set_8bit_reg( base_addr, CTRL2, (uint_fast8_t)line_config | 
     f12:	68bb      	ldr	r3, [r7, #8]
     f14:	f103 010c 	add.w	r1, r3, #12
     f18:	797b      	ldrb	r3, [r7, #5]
     f1a:	88fa      	ldrh	r2, [r7, #6]
     f1c:	f402 427f 	and.w	r2, r2, #65280	; 0xff00
     f20:	1152      	asrs	r2, r2, #5
     f22:	4313      	orrs	r3, r2
     f24:	4608      	mov	r0, r1
     f26:	4619      	mov	r1, r3
     f28:	f7ff fb87 	bl	63a <HW_set_8bit_reg>
C:\Users\kruci_000\Desktop\University\SoC\Marsfinder\Marsfinder\Marsfinder_FW\Debug/../drivers/CoreUARTapb/core_uart_apb.c:70
                                           (uint_fast8_t)((baud_value &
                                   BAUDVALUE_MSB) >> BAUDVALUE_SHIFT ) );
    
        this_uart->base_address = base_addr;
     f2c:	68fb      	ldr	r3, [r7, #12]
     f2e:	68ba      	ldr	r2, [r7, #8]
     f30:	601a      	str	r2, [r3, #0]
C:\Users\kruci_000\Desktop\University\SoC\Marsfinder\Marsfinder\Marsfinder_FW\Debug/../drivers/CoreUARTapb/core_uart_apb.c:76
#ifndef NDEBUG
        {
            uint8_t  config;
            uint8_t  temp;
            uint16_t baud_val;
            baud_val = HAL_get_8bit_reg( this_uart->base_address, CTRL1 );
     f32:	68fb      	ldr	r3, [r7, #12]
     f34:	681b      	ldr	r3, [r3, #0]
     f36:	3308      	adds	r3, #8
     f38:	4618      	mov	r0, r3
     f3a:	f7ff fb80 	bl	63e <HW_get_8bit_reg>
     f3e:	4603      	mov	r3, r0
     f40:	82bb      	strh	r3, [r7, #20]
C:\Users\kruci_000\Desktop\University\SoC\Marsfinder\Marsfinder\Marsfinder_FW\Debug/../drivers/CoreUARTapb/core_uart_apb.c:77
            config =  HAL_get_8bit_reg( this_uart->base_address, CTRL2 );
     f42:	68fb      	ldr	r3, [r7, #12]
     f44:	681b      	ldr	r3, [r3, #0]
     f46:	330c      	adds	r3, #12
     f48:	4618      	mov	r0, r3
     f4a:	f7ff fb78 	bl	63e <HW_get_8bit_reg>
     f4e:	4603      	mov	r3, r0
     f50:	74fb      	strb	r3, [r7, #19]
C:\Users\kruci_000\Desktop\University\SoC\Marsfinder\Marsfinder\Marsfinder_FW\Debug/../drivers/CoreUARTapb/core_uart_apb.c:81
            /*
             * To resolve operator precedence between & and <<
             */
            temp =  ( config  &  (uint8_t)(CTRL2_BAUDVALUE_MASK ) );
     f52:	7cfb      	ldrb	r3, [r7, #19]
     f54:	f023 0307 	bic.w	r3, r3, #7
     f58:	74bb      	strb	r3, [r7, #18]
C:\Users\kruci_000\Desktop\University\SoC\Marsfinder\Marsfinder\Marsfinder_FW\Debug/../drivers/CoreUARTapb/core_uart_apb.c:82
            baud_val |= (uint16_t)( (uint16_t)(temp) << BAUDVALUE_SHIFT );
     f5a:	7cbb      	ldrb	r3, [r7, #18]
     f5c:	b29b      	uxth	r3, r3
     f5e:	015b      	lsls	r3, r3, #5
     f60:	b29a      	uxth	r2, r3
     f62:	8abb      	ldrh	r3, [r7, #20]
     f64:	4313      	orrs	r3, r2
     f66:	82bb      	strh	r3, [r7, #20]
C:\Users\kruci_000\Desktop\University\SoC\Marsfinder\Marsfinder\Marsfinder_FW\Debug/../drivers/CoreUARTapb/core_uart_apb.c:83
            config &= (uint8_t)(~CTRL2_BAUDVALUE_MASK);
     f68:	7cfb      	ldrb	r3, [r7, #19]
     f6a:	f003 0307 	and.w	r3, r3, #7
     f6e:	74fb      	strb	r3, [r7, #19]
C:\Users\kruci_000\Desktop\University\SoC\Marsfinder\Marsfinder\Marsfinder_FW\Debug/../drivers/CoreUARTapb/core_uart_apb.c:84
            HAL_ASSERT( baud_val == baud_value );
     f70:	8aba      	ldrh	r2, [r7, #20]
     f72:	88fb      	ldrh	r3, [r7, #6]
     f74:	429a      	cmp	r2, r3
     f76:	d000      	beq.n	f7a <UART_init+0xbe>
C:\Users\kruci_000\Desktop\University\SoC\Marsfinder\Marsfinder\Marsfinder_FW\Debug/../drivers/CoreUARTapb/core_uart_apb.c:84 (discriminator 1)
     f78:	be00      	bkpt	0x0000
C:\Users\kruci_000\Desktop\University\SoC\Marsfinder\Marsfinder\Marsfinder_FW\Debug/../drivers/CoreUARTapb/core_uart_apb.c:85
            HAL_ASSERT( config == line_config );
     f7a:	7cfa      	ldrb	r2, [r7, #19]
     f7c:	797b      	ldrb	r3, [r7, #5]
     f7e:	429a      	cmp	r2, r3
     f80:	d000      	beq.n	f84 <UART_init+0xc8>
C:\Users\kruci_000\Desktop\University\SoC\Marsfinder\Marsfinder\Marsfinder_FW\Debug/../drivers/CoreUARTapb/core_uart_apb.c:85 (discriminator 1)
     f82:	be00      	bkpt	0x0000
C:\Users\kruci_000\Desktop\University\SoC\Marsfinder\Marsfinder\Marsfinder_FW\Debug/../drivers/CoreUARTapb/core_uart_apb.c:93
        
        /*
         * Flush the receive FIFO of data that may have been received before the
         * driver was initialized.
         */
        rx_full = HAL_get_8bit_reg( this_uart->base_address, STATUS ) &
     f84:	68fb      	ldr	r3, [r7, #12]
     f86:	681b      	ldr	r3, [r3, #0]
     f88:	3310      	adds	r3, #16
     f8a:	4618      	mov	r0, r3
     f8c:	f7ff fb57 	bl	63e <HW_get_8bit_reg>
     f90:	4603      	mov	r3, r0
     f92:	f003 0302 	and.w	r3, r3, #2
     f96:	75fb      	strb	r3, [r7, #23]
C:\Users\kruci_000\Desktop\University\SoC\Marsfinder\Marsfinder\Marsfinder_FW\Debug/../drivers/CoreUARTapb/core_uart_apb.c:95
                                                    STATUS_RXFULL_MASK;
        while ( rx_full )
     f98:	e011      	b.n	fbe <UART_init+0x102>
C:\Users\kruci_000\Desktop\University\SoC\Marsfinder\Marsfinder\Marsfinder_FW\Debug/../drivers/CoreUARTapb/core_uart_apb.c:98
        {
            volatile uint8_t rx_byte;
            rx_byte = HAL_get_8bit_reg( this_uart->base_address, RXDATA );
     f9a:	68fb      	ldr	r3, [r7, #12]
     f9c:	681b      	ldr	r3, [r3, #0]
     f9e:	3304      	adds	r3, #4
     fa0:	4618      	mov	r0, r3
     fa2:	f7ff fb4c 	bl	63e <HW_get_8bit_reg>
     fa6:	4603      	mov	r3, r0
     fa8:	747b      	strb	r3, [r7, #17]
C:\Users\kruci_000\Desktop\University\SoC\Marsfinder\Marsfinder\Marsfinder_FW\Debug/../drivers/CoreUARTapb/core_uart_apb.c:99
            rx_full = HAL_get_8bit_reg( this_uart->base_address, STATUS ) &
     faa:	68fb      	ldr	r3, [r7, #12]
     fac:	681b      	ldr	r3, [r3, #0]
     fae:	3310      	adds	r3, #16
     fb0:	4618      	mov	r0, r3
     fb2:	f7ff fb44 	bl	63e <HW_get_8bit_reg>
     fb6:	4603      	mov	r3, r0
     fb8:	f003 0302 	and.w	r3, r3, #2
     fbc:	75fb      	strb	r3, [r7, #23]
C:\Users\kruci_000\Desktop\University\SoC\Marsfinder\Marsfinder\Marsfinder_FW\Debug/../drivers/CoreUARTapb/core_uart_apb.c:95
         * Flush the receive FIFO of data that may have been received before the
         * driver was initialized.
         */
        rx_full = HAL_get_8bit_reg( this_uart->base_address, STATUS ) &
                                                    STATUS_RXFULL_MASK;
        while ( rx_full )
     fbe:	7dfb      	ldrb	r3, [r7, #23]
     fc0:	2b00      	cmp	r3, #0
     fc2:	d1ea      	bne.n	f9a <UART_init+0xde>
C:\Users\kruci_000\Desktop\University\SoC\Marsfinder\Marsfinder\Marsfinder_FW\Debug/../drivers/CoreUARTapb/core_uart_apb.c:106
        }

        /*
         * Clear status of the UART instance.
         */
        this_uart->status = (uint8_t)0;
     fc4:	68fb      	ldr	r3, [r7, #12]
     fc6:	2200      	movs	r2, #0
     fc8:	711a      	strb	r2, [r3, #4]
C:\Users\kruci_000\Desktop\University\SoC\Marsfinder\Marsfinder\Marsfinder_FW\Debug/../drivers/CoreUARTapb/core_uart_apb.c:108
    }
}
     fca:	3718      	adds	r7, #24
     fcc:	46bd      	mov	sp, r7
     fce:	bd80      	pop	{r7, pc}

00000fd0 <UART_send>:
UART_send():
C:\Users\kruci_000\Desktop\University\SoC\Marsfinder\Marsfinder\Marsfinder_FW\Debug/../drivers/CoreUARTapb/core_uart_apb.c:121
(
    UART_instance_t * this_uart,
    const uint8_t * tx_buffer,
    size_t tx_size
)
{
     fd0:	b580      	push	{r7, lr}
     fd2:	b086      	sub	sp, #24
     fd4:	af00      	add	r7, sp, #0
     fd6:	60f8      	str	r0, [r7, #12]
     fd8:	60b9      	str	r1, [r7, #8]
     fda:	607a      	str	r2, [r7, #4]
C:\Users\kruci_000\Desktop\University\SoC\Marsfinder\Marsfinder\Marsfinder_FW\Debug/../drivers/CoreUARTapb/core_uart_apb.c:125
    size_t char_idx;
    uint8_t tx_ready;

    HAL_ASSERT( this_uart != NULL_INSTANCE )
     fdc:	68fb      	ldr	r3, [r7, #12]
     fde:	2b00      	cmp	r3, #0
     fe0:	d100      	bne.n	fe4 <UART_send+0x14>
C:\Users\kruci_000\Desktop\University\SoC\Marsfinder\Marsfinder\Marsfinder_FW\Debug/../drivers/CoreUARTapb/core_uart_apb.c:125 (discriminator 1)
     fe2:	be00      	bkpt	0x0000
C:\Users\kruci_000\Desktop\University\SoC\Marsfinder\Marsfinder\Marsfinder_FW\Debug/../drivers/CoreUARTapb/core_uart_apb.c:126
    HAL_ASSERT( tx_buffer != NULL_BUFFER )
     fe4:	68bb      	ldr	r3, [r7, #8]
     fe6:	2b00      	cmp	r3, #0
     fe8:	d100      	bne.n	fec <UART_send+0x1c>
C:\Users\kruci_000\Desktop\University\SoC\Marsfinder\Marsfinder\Marsfinder_FW\Debug/../drivers/CoreUARTapb/core_uart_apb.c:126 (discriminator 1)
     fea:	be00      	bkpt	0x0000
C:\Users\kruci_000\Desktop\University\SoC\Marsfinder\Marsfinder\Marsfinder_FW\Debug/../drivers/CoreUARTapb/core_uart_apb.c:127
    HAL_ASSERT( tx_size > 0 )
     fec:	687b      	ldr	r3, [r7, #4]
     fee:	2b00      	cmp	r3, #0
     ff0:	d100      	bne.n	ff4 <UART_send+0x24>
C:\Users\kruci_000\Desktop\University\SoC\Marsfinder\Marsfinder\Marsfinder_FW\Debug/../drivers/CoreUARTapb/core_uart_apb.c:127 (discriminator 1)
     ff2:	be00      	bkpt	0x0000
C:\Users\kruci_000\Desktop\University\SoC\Marsfinder\Marsfinder\Marsfinder_FW\Debug/../drivers/CoreUARTapb/core_uart_apb.c:129
      
    if( (this_uart != NULL_INSTANCE) &&
     ff4:	68fb      	ldr	r3, [r7, #12]
     ff6:	2b00      	cmp	r3, #0
     ff8:	d026      	beq.n	1048 <MAIN_STACK_SIZE+0x48>
C:\Users\kruci_000\Desktop\University\SoC\Marsfinder\Marsfinder\Marsfinder_FW\Debug/../drivers/CoreUARTapb/core_uart_apb.c:129 (discriminator 1)
     ffa:	68bb      	ldr	r3, [r7, #8]
     ffc:	2b00      	cmp	r3, #0
     ffe:	d023      	beq.n	1048 <MAIN_STACK_SIZE+0x48>
C:\Users\kruci_000\Desktop\University\SoC\Marsfinder\Marsfinder\Marsfinder_FW\Debug/../drivers/CoreUARTapb/core_uart_apb.c:130
        (tx_buffer != NULL_BUFFER)   &&
    1000:	687b      	ldr	r3, [r7, #4]
    1002:	2b00      	cmp	r3, #0
    1004:	d020      	beq.n	1048 <MAIN_STACK_SIZE+0x48>
C:\Users\kruci_000\Desktop\University\SoC\Marsfinder\Marsfinder\Marsfinder_FW\Debug/../drivers/CoreUARTapb/core_uart_apb.c:133
        (tx_size > (size_t)0) )
    {
        for ( char_idx = (size_t)0; char_idx < tx_size; char_idx++ )
    1006:	2300      	movs	r3, #0
    1008:	617b      	str	r3, [r7, #20]
    100a:	e019      	b.n	1040 <MAIN_STACK_SIZE+0x40>
C:\Users\kruci_000\Desktop\University\SoC\Marsfinder\Marsfinder\Marsfinder_FW\Debug/../drivers/CoreUARTapb/core_uart_apb.c:137 (discriminator 1)
        {
            /* Wait for UART to become ready to transmit. */
            do {
                tx_ready = HAL_get_8bit_reg( this_uart->base_address, STATUS ) &
    100c:	68fb      	ldr	r3, [r7, #12]
    100e:	681b      	ldr	r3, [r3, #0]
    1010:	3310      	adds	r3, #16
    1012:	4618      	mov	r0, r3
    1014:	f7ff fb13 	bl	63e <HW_get_8bit_reg>
    1018:	4603      	mov	r3, r0
    101a:	f003 0301 	and.w	r3, r3, #1
    101e:	74fb      	strb	r3, [r7, #19]
C:\Users\kruci_000\Desktop\University\SoC\Marsfinder\Marsfinder\Marsfinder_FW\Debug/../drivers/CoreUARTapb/core_uart_apb.c:139 (discriminator 1)
                                                              STATUS_TXRDY_MASK;
            } while ( !tx_ready );
    1020:	7cfb      	ldrb	r3, [r7, #19]
    1022:	2b00      	cmp	r3, #0
    1024:	d0f2      	beq.n	100c <MAIN_STACK_SIZE+0xc>
C:\Users\kruci_000\Desktop\University\SoC\Marsfinder\Marsfinder\Marsfinder_FW\Debug/../drivers/CoreUARTapb/core_uart_apb.c:141 (discriminator 2)
            /* Send next character in the buffer. */
            HAL_set_8bit_reg( this_uart->base_address, TXDATA,
    1026:	68fb      	ldr	r3, [r7, #12]
    1028:	6819      	ldr	r1, [r3, #0]
    102a:	68ba      	ldr	r2, [r7, #8]
    102c:	697b      	ldr	r3, [r7, #20]
    102e:	4413      	add	r3, r2
    1030:	781b      	ldrb	r3, [r3, #0]
    1032:	4608      	mov	r0, r1
    1034:	4619      	mov	r1, r3
    1036:	f7ff fb00 	bl	63a <HW_set_8bit_reg>
C:\Users\kruci_000\Desktop\University\SoC\Marsfinder\Marsfinder\Marsfinder_FW\Debug/../drivers/CoreUARTapb/core_uart_apb.c:133 (discriminator 2)
      
    if( (this_uart != NULL_INSTANCE) &&
        (tx_buffer != NULL_BUFFER)   &&
        (tx_size > (size_t)0) )
    {
        for ( char_idx = (size_t)0; char_idx < tx_size; char_idx++ )
    103a:	697b      	ldr	r3, [r7, #20]
    103c:	3301      	adds	r3, #1
    103e:	617b      	str	r3, [r7, #20]
C:\Users\kruci_000\Desktop\University\SoC\Marsfinder\Marsfinder\Marsfinder_FW\Debug/../drivers/CoreUARTapb/core_uart_apb.c:133 (discriminator 1)
    1040:	697a      	ldr	r2, [r7, #20]
    1042:	687b      	ldr	r3, [r7, #4]
    1044:	429a      	cmp	r2, r3
    1046:	d3e1      	bcc.n	100c <MAIN_STACK_SIZE+0xc>
C:\Users\kruci_000\Desktop\University\SoC\Marsfinder\Marsfinder\Marsfinder_FW\Debug/../drivers/CoreUARTapb/core_uart_apb.c:145
            /* Send next character in the buffer. */
            HAL_set_8bit_reg( this_uart->base_address, TXDATA,
                              (uint_fast8_t)tx_buffer[char_idx] );
        }
    }
}
    1048:	3718      	adds	r7, #24
    104a:	46bd      	mov	sp, r7
    104c:	bd80      	pop	{r7, pc}
    104e:	bf00      	nop

00001050 <UART_get_rx>:
UART_get_rx():
C:\Users\kruci_000\Desktop\University\SoC\Marsfinder\Marsfinder\Marsfinder_FW\Debug/../drivers/CoreUARTapb/core_uart_apb.c:199
(
    UART_instance_t * this_uart,
    uint8_t * rx_buffer,
    size_t buff_size
)
{
    1050:	b590      	push	{r4, r7, lr}
    1052:	b089      	sub	sp, #36	; 0x24
    1054:	af00      	add	r7, sp, #0
    1056:	60f8      	str	r0, [r7, #12]
    1058:	60b9      	str	r1, [r7, #8]
    105a:	607a      	str	r2, [r7, #4]
C:\Users\kruci_000\Desktop\University\SoC\Marsfinder\Marsfinder\Marsfinder_FW\Debug/../drivers/CoreUARTapb/core_uart_apb.c:202
    uint8_t new_status;
    uint8_t rx_full;
    size_t rx_idx = 0u;
    105c:	2300      	movs	r3, #0
    105e:	61bb      	str	r3, [r7, #24]
C:\Users\kruci_000\Desktop\University\SoC\Marsfinder\Marsfinder\Marsfinder_FW\Debug/../drivers/CoreUARTapb/core_uart_apb.c:204
    
    HAL_ASSERT( this_uart != NULL_INSTANCE )
    1060:	68fb      	ldr	r3, [r7, #12]
    1062:	2b00      	cmp	r3, #0
    1064:	d100      	bne.n	1068 <UART_get_rx+0x18>
C:\Users\kruci_000\Desktop\University\SoC\Marsfinder\Marsfinder\Marsfinder_FW\Debug/../drivers/CoreUARTapb/core_uart_apb.c:204 (discriminator 1)
    1066:	be00      	bkpt	0x0000
C:\Users\kruci_000\Desktop\University\SoC\Marsfinder\Marsfinder\Marsfinder_FW\Debug/../drivers/CoreUARTapb/core_uart_apb.c:205
    HAL_ASSERT( rx_buffer != NULL_BUFFER )
    1068:	68bb      	ldr	r3, [r7, #8]
    106a:	2b00      	cmp	r3, #0
    106c:	d100      	bne.n	1070 <UART_get_rx+0x20>
C:\Users\kruci_000\Desktop\University\SoC\Marsfinder\Marsfinder\Marsfinder_FW\Debug/../drivers/CoreUARTapb/core_uart_apb.c:205 (discriminator 1)
    106e:	be00      	bkpt	0x0000
C:\Users\kruci_000\Desktop\University\SoC\Marsfinder\Marsfinder\Marsfinder_FW\Debug/../drivers/CoreUARTapb/core_uart_apb.c:206
    HAL_ASSERT( buff_size > 0 )
    1070:	687b      	ldr	r3, [r7, #4]
    1072:	2b00      	cmp	r3, #0
    1074:	d100      	bne.n	1078 <UART_get_rx+0x28>
C:\Users\kruci_000\Desktop\University\SoC\Marsfinder\Marsfinder\Marsfinder_FW\Debug/../drivers/CoreUARTapb/core_uart_apb.c:206 (discriminator 1)
    1076:	be00      	bkpt	0x0000
C:\Users\kruci_000\Desktop\University\SoC\Marsfinder\Marsfinder\Marsfinder_FW\Debug/../drivers/CoreUARTapb/core_uart_apb.c:208
      
    if( (this_uart != NULL_INSTANCE) &&
    1078:	68fb      	ldr	r3, [r7, #12]
    107a:	2b00      	cmp	r3, #0
    107c:	d043      	beq.n	1106 <UART_get_rx+0xb6>
C:\Users\kruci_000\Desktop\University\SoC\Marsfinder\Marsfinder\Marsfinder_FW\Debug/../drivers/CoreUARTapb/core_uart_apb.c:208 (discriminator 1)
    107e:	68bb      	ldr	r3, [r7, #8]
    1080:	2b00      	cmp	r3, #0
    1082:	d040      	beq.n	1106 <UART_get_rx+0xb6>
C:\Users\kruci_000\Desktop\University\SoC\Marsfinder\Marsfinder\Marsfinder_FW\Debug/../drivers/CoreUARTapb/core_uart_apb.c:209
        (rx_buffer != NULL_BUFFER)   &&
    1084:	687b      	ldr	r3, [r7, #4]
    1086:	2b00      	cmp	r3, #0
    1088:	d03d      	beq.n	1106 <UART_get_rx+0xb6>
C:\Users\kruci_000\Desktop\University\SoC\Marsfinder\Marsfinder\Marsfinder_FW\Debug/../drivers/CoreUARTapb/core_uart_apb.c:212
        (buff_size > 0u) )
    {
        rx_idx = 0u;
    108a:	2300      	movs	r3, #0
    108c:	61bb      	str	r3, [r7, #24]
C:\Users\kruci_000\Desktop\University\SoC\Marsfinder\Marsfinder\Marsfinder_FW\Debug/../drivers/CoreUARTapb/core_uart_apb.c:213
        new_status = HAL_get_8bit_reg( this_uart->base_address, STATUS );
    108e:	68fb      	ldr	r3, [r7, #12]
    1090:	681b      	ldr	r3, [r3, #0]
    1092:	3310      	adds	r3, #16
    1094:	4618      	mov	r0, r3
    1096:	f7ff fad2 	bl	63e <HW_get_8bit_reg>
    109a:	4603      	mov	r3, r0
    109c:	75fb      	strb	r3, [r7, #23]
C:\Users\kruci_000\Desktop\University\SoC\Marsfinder\Marsfinder\Marsfinder_FW\Debug/../drivers/CoreUARTapb/core_uart_apb.c:214
        this_uart->status |= new_status;
    109e:	68fb      	ldr	r3, [r7, #12]
    10a0:	791a      	ldrb	r2, [r3, #4]
    10a2:	7dfb      	ldrb	r3, [r7, #23]
    10a4:	4313      	orrs	r3, r2
    10a6:	b2da      	uxtb	r2, r3
    10a8:	68fb      	ldr	r3, [r7, #12]
    10aa:	711a      	strb	r2, [r3, #4]
C:\Users\kruci_000\Desktop\University\SoC\Marsfinder\Marsfinder\Marsfinder_FW\Debug/../drivers/CoreUARTapb/core_uart_apb.c:215
        rx_full = new_status & STATUS_RXFULL_MASK;
    10ac:	7dfb      	ldrb	r3, [r7, #23]
    10ae:	f003 0302 	and.w	r3, r3, #2
    10b2:	77fb      	strb	r3, [r7, #31]
C:\Users\kruci_000\Desktop\University\SoC\Marsfinder\Marsfinder\Marsfinder_FW\Debug/../drivers/CoreUARTapb/core_uart_apb.c:216
        while ( ( rx_full ) && ( rx_idx < buff_size ) )
    10b4:	e020      	b.n	10f8 <UART_get_rx+0xa8>
C:\Users\kruci_000\Desktop\University\SoC\Marsfinder\Marsfinder\Marsfinder_FW\Debug/../drivers/CoreUARTapb/core_uart_apb.c:218
        {
            rx_buffer[rx_idx] = HAL_get_8bit_reg( this_uart->base_address,
    10b6:	68ba      	ldr	r2, [r7, #8]
    10b8:	69bb      	ldr	r3, [r7, #24]
    10ba:	18d4      	adds	r4, r2, r3
    10bc:	68fb      	ldr	r3, [r7, #12]
    10be:	681b      	ldr	r3, [r3, #0]
    10c0:	3304      	adds	r3, #4
    10c2:	4618      	mov	r0, r3
    10c4:	f7ff fabb 	bl	63e <HW_get_8bit_reg>
    10c8:	4603      	mov	r3, r0
    10ca:	7023      	strb	r3, [r4, #0]
C:\Users\kruci_000\Desktop\University\SoC\Marsfinder\Marsfinder\Marsfinder_FW\Debug/../drivers/CoreUARTapb/core_uart_apb.c:220
                                                  RXDATA );
            rx_idx++;
    10cc:	69bb      	ldr	r3, [r7, #24]
    10ce:	3301      	adds	r3, #1
    10d0:	61bb      	str	r3, [r7, #24]
C:\Users\kruci_000\Desktop\University\SoC\Marsfinder\Marsfinder\Marsfinder_FW\Debug/../drivers/CoreUARTapb/core_uart_apb.c:221
            new_status = HAL_get_8bit_reg( this_uart->base_address, STATUS );
    10d2:	68fb      	ldr	r3, [r7, #12]
    10d4:	681b      	ldr	r3, [r3, #0]
    10d6:	3310      	adds	r3, #16
    10d8:	4618      	mov	r0, r3
    10da:	f7ff fab0 	bl	63e <HW_get_8bit_reg>
    10de:	4603      	mov	r3, r0
    10e0:	75fb      	strb	r3, [r7, #23]
C:\Users\kruci_000\Desktop\University\SoC\Marsfinder\Marsfinder\Marsfinder_FW\Debug/../drivers/CoreUARTapb/core_uart_apb.c:222
            this_uart->status |= new_status;
    10e2:	68fb      	ldr	r3, [r7, #12]
    10e4:	791a      	ldrb	r2, [r3, #4]
    10e6:	7dfb      	ldrb	r3, [r7, #23]
    10e8:	4313      	orrs	r3, r2
    10ea:	b2da      	uxtb	r2, r3
    10ec:	68fb      	ldr	r3, [r7, #12]
    10ee:	711a      	strb	r2, [r3, #4]
C:\Users\kruci_000\Desktop\University\SoC\Marsfinder\Marsfinder\Marsfinder_FW\Debug/../drivers/CoreUARTapb/core_uart_apb.c:223
            rx_full = new_status & STATUS_RXFULL_MASK;
    10f0:	7dfb      	ldrb	r3, [r7, #23]
    10f2:	f003 0302 	and.w	r3, r3, #2
    10f6:	77fb      	strb	r3, [r7, #31]
C:\Users\kruci_000\Desktop\University\SoC\Marsfinder\Marsfinder\Marsfinder_FW\Debug/../drivers/CoreUARTapb/core_uart_apb.c:216
    {
        rx_idx = 0u;
        new_status = HAL_get_8bit_reg( this_uart->base_address, STATUS );
        this_uart->status |= new_status;
        rx_full = new_status & STATUS_RXFULL_MASK;
        while ( ( rx_full ) && ( rx_idx < buff_size ) )
    10f8:	7ffb      	ldrb	r3, [r7, #31]
    10fa:	2b00      	cmp	r3, #0
    10fc:	d003      	beq.n	1106 <UART_get_rx+0xb6>
C:\Users\kruci_000\Desktop\University\SoC\Marsfinder\Marsfinder\Marsfinder_FW\Debug/../drivers/CoreUARTapb/core_uart_apb.c:216 (discriminator 1)
    10fe:	69ba      	ldr	r2, [r7, #24]
    1100:	687b      	ldr	r3, [r7, #4]
    1102:	429a      	cmp	r2, r3
    1104:	d3d7      	bcc.n	10b6 <UART_get_rx+0x66>
C:\Users\kruci_000\Desktop\University\SoC\Marsfinder\Marsfinder\Marsfinder_FW\Debug/../drivers/CoreUARTapb/core_uart_apb.c:226
            new_status = HAL_get_8bit_reg( this_uart->base_address, STATUS );
            this_uart->status |= new_status;
            rx_full = new_status & STATUS_RXFULL_MASK;
        }
    }
    return rx_idx;
    1106:	69bb      	ldr	r3, [r7, #24]
C:\Users\kruci_000\Desktop\University\SoC\Marsfinder\Marsfinder\Marsfinder_FW\Debug/../drivers/CoreUARTapb/core_uart_apb.c:227
}
    1108:	4618      	mov	r0, r3
    110a:	3724      	adds	r7, #36	; 0x24
    110c:	46bd      	mov	sp, r7
    110e:	bd90      	pop	{r4, r7, pc}

00001110 <I2C_init>:
I2C_init():
C:\Users\kruci_000\Desktop\University\SoC\Marsfinder\Marsfinder\Marsfinder_FW\Debug/../drivers/CoreI2C/core_i2c.c:103
    i2c_instance_t * this_i2c,
    addr_t base_address,
    uint8_t ser_address,
    i2c_clock_divider_t ser_clock_speed
)
{
    1110:	b580      	push	{r7, lr}
    1112:	b086      	sub	sp, #24
    1114:	af00      	add	r7, sp, #0
    1116:	60f8      	str	r0, [r7, #12]
    1118:	60b9      	str	r1, [r7, #8]
    111a:	4611      	mov	r1, r2
    111c:	461a      	mov	r2, r3
    111e:	460b      	mov	r3, r1
    1120:	71fb      	strb	r3, [r7, #7]
    1122:	4613      	mov	r3, r2
    1124:	71bb      	strb	r3, [r7, #6]
C:\Users\kruci_000\Desktop\University\SoC\Marsfinder\Marsfinder\Marsfinder_FW\Debug/../drivers/CoreI2C/core_i2c.c:105
    psr_t saved_psr;
    uint_fast16_t clock_speed = (uint_fast16_t)ser_clock_speed;
    1126:	79bb      	ldrb	r3, [r7, #6]
    1128:	617b      	str	r3, [r7, #20]
C:\Users\kruci_000\Desktop\University\SoC\Marsfinder\Marsfinder\Marsfinder_FW\Debug/../drivers/CoreI2C/core_i2c.c:111

    /*
     * We need to disable ints while doing this as there is no guarantee we
     * have not been called already and the ISR is active.
     */
    saved_psr = HAL_disable_interrupts();
    112a:	f7ff fa4f 	bl	5cc <HAL_disable_interrupts>
    112e:	6138      	str	r0, [r7, #16]
C:\Users\kruci_000\Desktop\University\SoC\Marsfinder\Marsfinder\Marsfinder_FW\Debug/../drivers/CoreI2C/core_i2c.c:119
     * Initialize all items of the this_i2c data structure to zero. This
     * initializes all state variables to their init value. It relies on
     * the fact that NO_TRANSACTION, I2C_SUCCESS and I2C_RELEASE_BUS all
     * have an actual value of zero.
     */
    memset(this_i2c, 0, sizeof(i2c_instance_t));
    1130:	68f8      	ldr	r0, [r7, #12]
    1132:	2100      	movs	r1, #0
    1134:	226c      	movs	r2, #108	; 0x6c
    1136:	f004 fa3c 	bl	55b2 <memset>
C:\Users\kruci_000\Desktop\University\SoC\Marsfinder\Marsfinder\Marsfinder_FW\Debug/../drivers/CoreI2C/core_i2c.c:124

    /*
     * Set base address of I2C hardware used by this instance.
     */
    this_i2c->base_address = base_address;
    113a:	68fb      	ldr	r3, [r7, #12]
    113c:	68ba      	ldr	r2, [r7, #8]
    113e:	601a      	str	r2, [r3, #0]
C:\Users\kruci_000\Desktop\University\SoC\Marsfinder\Marsfinder\Marsfinder_FW\Debug/../drivers/CoreI2C/core_i2c.c:129

    /*
     * Update Serial address of the device
     */
    this_i2c->ser_address = ((uint_fast8_t)ser_address << 1u);
    1140:	79fb      	ldrb	r3, [r7, #7]
    1142:	005a      	lsls	r2, r3, #1
    1144:	68fb      	ldr	r3, [r7, #12]
    1146:	605a      	str	r2, [r3, #4]
C:\Users\kruci_000\Desktop\University\SoC\Marsfinder\Marsfinder\Marsfinder_FW\Debug/../drivers/CoreI2C/core_i2c.c:134

    /*
     * Configure hardware.
     */
    HAL_set_8bit_reg_field(this_i2c->base_address, ENS1, 0x00); /* Reset I2C hardware. */
    1148:	68fb      	ldr	r3, [r7, #12]
    114a:	681b      	ldr	r3, [r3, #0]
    114c:	4618      	mov	r0, r3
    114e:	2106      	movs	r1, #6
    1150:	2240      	movs	r2, #64	; 0x40
    1152:	2300      	movs	r3, #0
    1154:	f7ff fa75 	bl	642 <HW_set_8bit_reg_field>
C:\Users\kruci_000\Desktop\University\SoC\Marsfinder\Marsfinder\Marsfinder_FW\Debug/../drivers/CoreI2C/core_i2c.c:135
    HAL_set_8bit_reg_field(this_i2c->base_address, ENS1, 0x01); /* set enable bit */
    1158:	68fb      	ldr	r3, [r7, #12]
    115a:	681b      	ldr	r3, [r3, #0]
    115c:	4618      	mov	r0, r3
    115e:	2106      	movs	r1, #6
    1160:	2240      	movs	r2, #64	; 0x40
    1162:	2301      	movs	r3, #1
    1164:	f7ff fa6d 	bl	642 <HW_set_8bit_reg_field>
C:\Users\kruci_000\Desktop\University\SoC\Marsfinder\Marsfinder\Marsfinder_FW\Debug/../drivers/CoreI2C/core_i2c.c:136
    HAL_set_8bit_reg_field(this_i2c->base_address, CR2, ( (clock_speed >> 2) & 0x01) );
    1168:	68fb      	ldr	r3, [r7, #12]
    116a:	681a      	ldr	r2, [r3, #0]
    116c:	697b      	ldr	r3, [r7, #20]
    116e:	089b      	lsrs	r3, r3, #2
    1170:	f003 0301 	and.w	r3, r3, #1
    1174:	4610      	mov	r0, r2
    1176:	2107      	movs	r1, #7
    1178:	2280      	movs	r2, #128	; 0x80
    117a:	f7ff fa62 	bl	642 <HW_set_8bit_reg_field>
C:\Users\kruci_000\Desktop\University\SoC\Marsfinder\Marsfinder\Marsfinder_FW\Debug/../drivers/CoreI2C/core_i2c.c:137
    HAL_set_8bit_reg_field(this_i2c->base_address, CR1, ( (clock_speed >> 1) & 0x01) );
    117e:	68fb      	ldr	r3, [r7, #12]
    1180:	681a      	ldr	r2, [r3, #0]
    1182:	697b      	ldr	r3, [r7, #20]
    1184:	085b      	lsrs	r3, r3, #1
    1186:	f003 0301 	and.w	r3, r3, #1
    118a:	4610      	mov	r0, r2
    118c:	2101      	movs	r1, #1
    118e:	2202      	movs	r2, #2
    1190:	f7ff fa57 	bl	642 <HW_set_8bit_reg_field>
C:\Users\kruci_000\Desktop\University\SoC\Marsfinder\Marsfinder\Marsfinder_FW\Debug/../drivers/CoreI2C/core_i2c.c:138
    HAL_set_8bit_reg_field(this_i2c->base_address, CR0, ( clock_speed & 0x01) );
    1194:	68fb      	ldr	r3, [r7, #12]
    1196:	681a      	ldr	r2, [r3, #0]
    1198:	697b      	ldr	r3, [r7, #20]
    119a:	f003 0301 	and.w	r3, r3, #1
    119e:	4610      	mov	r0, r2
    11a0:	2100      	movs	r1, #0
    11a2:	2201      	movs	r2, #1
    11a4:	f7ff fa4d 	bl	642 <HW_set_8bit_reg_field>
C:\Users\kruci_000\Desktop\University\SoC\Marsfinder\Marsfinder\Marsfinder_FW\Debug/../drivers/CoreI2C/core_i2c.c:140

    HAL_set_8bit_reg(this_i2c->base_address, ADDRESS, this_i2c->ser_address);
    11a8:	68fb      	ldr	r3, [r7, #12]
    11aa:	681b      	ldr	r3, [r3, #0]
    11ac:	f103 020c 	add.w	r2, r3, #12
    11b0:	68fb      	ldr	r3, [r7, #12]
    11b2:	685b      	ldr	r3, [r3, #4]
    11b4:	4610      	mov	r0, r2
    11b6:	4619      	mov	r1, r3
    11b8:	f7ff fa3f 	bl	63a <HW_set_8bit_reg>
C:\Users\kruci_000\Desktop\University\SoC\Marsfinder\Marsfinder\Marsfinder_FW\Debug/../drivers/CoreI2C/core_i2c.c:141
    HAL_set_8bit_reg(this_i2c->base_address, ADDRESS1, this_i2c->ser_address);
    11bc:	68fb      	ldr	r3, [r7, #12]
    11be:	681b      	ldr	r3, [r3, #0]
    11c0:	f103 021c 	add.w	r2, r3, #28
    11c4:	68fb      	ldr	r3, [r7, #12]
    11c6:	685b      	ldr	r3, [r3, #4]
    11c8:	4610      	mov	r0, r2
    11ca:	4619      	mov	r1, r3
    11cc:	f7ff fa35 	bl	63a <HW_set_8bit_reg>
C:\Users\kruci_000\Desktop\University\SoC\Marsfinder\Marsfinder\Marsfinder_FW\Debug/../drivers/CoreI2C/core_i2c.c:146

    /*
     * Finally safe to enable interrupts.
     */
    HAL_restore_interrupts( saved_psr );
    11d0:	6938      	ldr	r0, [r7, #16]
    11d2:	f7ff f9ff 	bl	5d4 <HAL_restore_interrupts>
C:\Users\kruci_000\Desktop\University\SoC\Marsfinder\Marsfinder\Marsfinder_FW\Debug/../drivers/CoreI2C/core_i2c.c:147
}
    11d6:	3718      	adds	r7, #24
    11d8:	46bd      	mov	sp, r7
    11da:	bd80      	pop	{r7, pc}

000011dc <I2C_write>:
I2C_write():
C:\Users\kruci_000\Desktop\University\SoC\Marsfinder\Marsfinder\Marsfinder_FW\Debug/../drivers/CoreI2C/core_i2c.c:214
    uint8_t serial_addr,
    const uint8_t * write_buffer,
    uint16_t write_size,
    uint8_t options
)
{
    11dc:	b580      	push	{r7, lr}
    11de:	b086      	sub	sp, #24
    11e0:	af00      	add	r7, sp, #0
    11e2:	60f8      	str	r0, [r7, #12]
    11e4:	607a      	str	r2, [r7, #4]
    11e6:	461a      	mov	r2, r3
    11e8:	460b      	mov	r3, r1
    11ea:	72fb      	strb	r3, [r7, #11]
    11ec:	4613      	mov	r3, r2
    11ee:	813b      	strh	r3, [r7, #8]
C:\Users\kruci_000\Desktop\University\SoC\Marsfinder\Marsfinder\Marsfinder_FW\Debug/../drivers/CoreI2C/core_i2c.c:218
    psr_t saved_psr;
    volatile uint8_t stat_ctrl;

    saved_psr = HAL_disable_interrupts();
    11f0:	f7ff f9ec 	bl	5cc <HAL_disable_interrupts>
    11f4:	6178      	str	r0, [r7, #20]
C:\Users\kruci_000\Desktop\University\SoC\Marsfinder\Marsfinder\Marsfinder_FW\Debug/../drivers/CoreI2C/core_i2c.c:221

    /* Update the transaction only when there is no transaction going on I2C */
    if( this_i2c->transaction == NO_TRANSACTION)
    11f6:	68fb      	ldr	r3, [r7, #12]
    11f8:	7b1b      	ldrb	r3, [r3, #12]
    11fa:	2b00      	cmp	r3, #0
    11fc:	d102      	bne.n	1204 <I2C_write+0x28>
C:\Users\kruci_000\Desktop\University\SoC\Marsfinder\Marsfinder\Marsfinder_FW\Debug/../drivers/CoreI2C/core_i2c.c:223
    {
      this_i2c->transaction = MASTER_WRITE_TRANSACTION;
    11fe:	68fb      	ldr	r3, [r7, #12]
    1200:	2201      	movs	r2, #1
    1202:	731a      	strb	r2, [r3, #12]
C:\Users\kruci_000\Desktop\University\SoC\Marsfinder\Marsfinder\Marsfinder_FW\Debug/../drivers/CoreI2C/core_i2c.c:227
    }

    /* Update the Pending transaction information so that transaction can restarted */
    this_i2c->pending_transaction = MASTER_WRITE_TRANSACTION ;
    1204:	68fb      	ldr	r3, [r7, #12]
    1206:	2201      	movs	r2, #1
    1208:	f883 206a 	strb.w	r2, [r3, #106]	; 0x6a
C:\Users\kruci_000\Desktop\University\SoC\Marsfinder\Marsfinder\Marsfinder_FW\Debug/../drivers/CoreI2C/core_i2c.c:230

    /* Update target address */
    this_i2c->target_addr = (uint_fast8_t)serial_addr << 1u;
    120c:	7afb      	ldrb	r3, [r7, #11]
    120e:	005a      	lsls	r2, r3, #1
    1210:	68fb      	ldr	r3, [r7, #12]
    1212:	609a      	str	r2, [r3, #8]
C:\Users\kruci_000\Desktop\University\SoC\Marsfinder\Marsfinder\Marsfinder_FW\Debug/../drivers/CoreI2C/core_i2c.c:231
    this_i2c->dir = WRITE_DIR;
    1214:	68fb      	ldr	r3, [r7, #12]
    1216:	2200      	movs	r2, #0
    1218:	625a      	str	r2, [r3, #36]	; 0x24
C:\Users\kruci_000\Desktop\University\SoC\Marsfinder\Marsfinder\Marsfinder_FW\Debug/../drivers/CoreI2C/core_i2c.c:232
    this_i2c->master_tx_buffer = write_buffer;
    121a:	68fb      	ldr	r3, [r7, #12]
    121c:	687a      	ldr	r2, [r7, #4]
    121e:	619a      	str	r2, [r3, #24]
C:\Users\kruci_000\Desktop\University\SoC\Marsfinder\Marsfinder\Marsfinder_FW\Debug/../drivers/CoreI2C/core_i2c.c:233
    this_i2c->master_tx_size = write_size;
    1220:	893a      	ldrh	r2, [r7, #8]
    1222:	68fb      	ldr	r3, [r7, #12]
    1224:	61da      	str	r2, [r3, #28]
C:\Users\kruci_000\Desktop\University\SoC\Marsfinder\Marsfinder\Marsfinder_FW\Debug/../drivers/CoreI2C/core_i2c.c:234
    this_i2c->master_tx_idx = 0u;
    1226:	68fb      	ldr	r3, [r7, #12]
    1228:	2200      	movs	r2, #0
    122a:	621a      	str	r2, [r3, #32]
C:\Users\kruci_000\Desktop\University\SoC\Marsfinder\Marsfinder\Marsfinder_FW\Debug/../drivers/CoreI2C/core_i2c.c:237

    /* Set I2C status in progress */
    this_i2c->master_status = I2C_IN_PROGRESS;
    122c:	68fb      	ldr	r3, [r7, #12]
    122e:	2201      	movs	r2, #1
    1230:	f883 2034 	strb.w	r2, [r3, #52]	; 0x34
C:\Users\kruci_000\Desktop\University\SoC\Marsfinder\Marsfinder\Marsfinder_FW\Debug/../drivers/CoreI2C/core_i2c.c:238
    this_i2c->options = options;
    1234:	68fb      	ldr	r3, [r7, #12]
    1236:	f897 2020 	ldrb.w	r2, [r7, #32]
    123a:	751a      	strb	r2, [r3, #20]
C:\Users\kruci_000\Desktop\University\SoC\Marsfinder\Marsfinder\Marsfinder_FW\Debug/../drivers/CoreI2C/core_i2c.c:240

    if(I2C_IN_PROGRESS == this_i2c->slave_status)
    123c:	68fb      	ldr	r3, [r7, #12]
    123e:	f893 3054 	ldrb.w	r3, [r3, #84]	; 0x54
    1242:	b2db      	uxtb	r3, r3
    1244:	2b01      	cmp	r3, #1
    1246:	d104      	bne.n	1252 <I2C_write+0x76>
C:\Users\kruci_000\Desktop\University\SoC\Marsfinder\Marsfinder\Marsfinder_FW\Debug/../drivers/CoreI2C/core_i2c.c:242
    {
        this_i2c->is_transaction_pending = 1u;
    1248:	68fb      	ldr	r3, [r7, #12]
    124a:	2201      	movs	r2, #1
    124c:	f883 2069 	strb.w	r2, [r3, #105]	; 0x69
    1250:	e007      	b.n	1262 <I2C_write+0x86>
C:\Users\kruci_000\Desktop\University\SoC\Marsfinder\Marsfinder\Marsfinder_FW\Debug/../drivers/CoreI2C/core_i2c.c:246
    }
    else
    {
        HAL_set_8bit_reg_field(this_i2c->base_address, STA, 0x01u);
    1252:	68fb      	ldr	r3, [r7, #12]
    1254:	681b      	ldr	r3, [r3, #0]
    1256:	4618      	mov	r0, r3
    1258:	2105      	movs	r1, #5
    125a:	2220      	movs	r2, #32
    125c:	2301      	movs	r3, #1
    125e:	f7ff f9f0 	bl	642 <HW_set_8bit_reg_field>
C:\Users\kruci_000\Desktop\University\SoC\Marsfinder\Marsfinder\Marsfinder_FW\Debug/../drivers/CoreI2C/core_i2c.c:254
    /*
     * Clear interrupts if required (depends on repeated starts).
     * Since the Bus is on hold, only then prior status needs to
     * be cleared.
     */
    if ( I2C_HOLD_BUS == this_i2c->bus_status )
    1262:	68fb      	ldr	r3, [r7, #12]
    1264:	f893 3068 	ldrb.w	r3, [r3, #104]	; 0x68
    1268:	2b01      	cmp	r3, #1
    126a:	d107      	bne.n	127c <I2C_write+0xa0>
C:\Users\kruci_000\Desktop\University\SoC\Marsfinder\Marsfinder\Marsfinder_FW\Debug/../drivers/CoreI2C/core_i2c.c:256
    {
        HAL_set_8bit_reg_field(this_i2c->base_address, SI, 0x00u);
    126c:	68fb      	ldr	r3, [r7, #12]
    126e:	681b      	ldr	r3, [r3, #0]
    1270:	4618      	mov	r0, r3
    1272:	2103      	movs	r1, #3
    1274:	2208      	movs	r2, #8
    1276:	2300      	movs	r3, #0
    1278:	f7ff f9e3 	bl	642 <HW_set_8bit_reg_field>
C:\Users\kruci_000\Desktop\University\SoC\Marsfinder\Marsfinder\Marsfinder_FW\Debug/../drivers/CoreI2C/core_i2c.c:259
    }

    stat_ctrl = HAL_get_8bit_reg( this_i2c->base_address, STATUS);
    127c:	68fb      	ldr	r3, [r7, #12]
    127e:	681b      	ldr	r3, [r3, #0]
    1280:	3304      	adds	r3, #4
    1282:	4618      	mov	r0, r3
    1284:	f7ff f9db 	bl	63e <HW_get_8bit_reg>
    1288:	4603      	mov	r3, r0
    128a:	74fb      	strb	r3, [r7, #19]
C:\Users\kruci_000\Desktop\University\SoC\Marsfinder\Marsfinder\Marsfinder_FW\Debug/../drivers/CoreI2C/core_i2c.c:260
    stat_ctrl = stat_ctrl;  /* Avoids lint warning. */
    128c:	7cfb      	ldrb	r3, [r7, #19]
    128e:	b2db      	uxtb	r3, r3
    1290:	74fb      	strb	r3, [r7, #19]
C:\Users\kruci_000\Desktop\University\SoC\Marsfinder\Marsfinder\Marsfinder_FW\Debug/../drivers/CoreI2C/core_i2c.c:263

    /* Enable the interrupt. ( Re-enable) */
    I2C_enable_irq( this_i2c );
    1292:	68f8      	ldr	r0, [r7, #12]
    1294:	f000 fda8 	bl	1de8 <I2C_enable_irq>
C:\Users\kruci_000\Desktop\University\SoC\Marsfinder\Marsfinder\Marsfinder_FW\Debug/../drivers/CoreI2C/core_i2c.c:265

    HAL_restore_interrupts( saved_psr );
    1298:	6978      	ldr	r0, [r7, #20]
    129a:	f7ff f99b 	bl	5d4 <HAL_restore_interrupts>
C:\Users\kruci_000\Desktop\University\SoC\Marsfinder\Marsfinder\Marsfinder_FW\Debug/../drivers/CoreI2C/core_i2c.c:266
}
    129e:	3718      	adds	r7, #24
    12a0:	46bd      	mov	sp, r7
    12a2:	bd80      	pop	{r7, pc}

000012a4 <I2C_read>:
I2C_read():
C:\Users\kruci_000\Desktop\University\SoC\Marsfinder\Marsfinder\Marsfinder_FW\Debug/../drivers/CoreI2C/core_i2c.c:280
    uint8_t serial_addr,
    uint8_t * read_buffer,
    uint16_t read_size,
    uint8_t options
)
{
    12a4:	b580      	push	{r7, lr}
    12a6:	b086      	sub	sp, #24
    12a8:	af00      	add	r7, sp, #0
    12aa:	60f8      	str	r0, [r7, #12]
    12ac:	607a      	str	r2, [r7, #4]
    12ae:	461a      	mov	r2, r3
    12b0:	460b      	mov	r3, r1
    12b2:	72fb      	strb	r3, [r7, #11]
    12b4:	4613      	mov	r3, r2
    12b6:	813b      	strh	r3, [r7, #8]
C:\Users\kruci_000\Desktop\University\SoC\Marsfinder\Marsfinder\Marsfinder_FW\Debug/../drivers/CoreI2C/core_i2c.c:284
    psr_t saved_psr;
    volatile uint8_t stat_ctrl;

    saved_psr = HAL_disable_interrupts();
    12b8:	f7ff f988 	bl	5cc <HAL_disable_interrupts>
    12bc:	6178      	str	r0, [r7, #20]
C:\Users\kruci_000\Desktop\University\SoC\Marsfinder\Marsfinder\Marsfinder_FW\Debug/../drivers/CoreI2C/core_i2c.c:287

    /* Update the transaction only when there is no transaction going on I2C */
    if( this_i2c->transaction == NO_TRANSACTION)
    12be:	68fb      	ldr	r3, [r7, #12]
    12c0:	7b1b      	ldrb	r3, [r3, #12]
    12c2:	2b00      	cmp	r3, #0
    12c4:	d102      	bne.n	12cc <I2C_read+0x28>
C:\Users\kruci_000\Desktop\University\SoC\Marsfinder\Marsfinder\Marsfinder_FW\Debug/../drivers/CoreI2C/core_i2c.c:289
    {
      this_i2c->transaction = MASTER_READ_TRANSACTION;
    12c6:	68fb      	ldr	r3, [r7, #12]
    12c8:	2202      	movs	r2, #2
    12ca:	731a      	strb	r2, [r3, #12]
C:\Users\kruci_000\Desktop\University\SoC\Marsfinder\Marsfinder\Marsfinder_FW\Debug/../drivers/CoreI2C/core_i2c.c:293
    }

    /* Update the Pending transaction information so that transaction can restarted */
    this_i2c->pending_transaction = MASTER_READ_TRANSACTION ;
    12cc:	68fb      	ldr	r3, [r7, #12]
    12ce:	2202      	movs	r2, #2
    12d0:	f883 206a 	strb.w	r2, [r3, #106]	; 0x6a
C:\Users\kruci_000\Desktop\University\SoC\Marsfinder\Marsfinder\Marsfinder_FW\Debug/../drivers/CoreI2C/core_i2c.c:296

    /* Update target address */
    this_i2c->target_addr = (uint_fast8_t)serial_addr << 1u;
    12d4:	7afb      	ldrb	r3, [r7, #11]
    12d6:	005a      	lsls	r2, r3, #1
    12d8:	68fb      	ldr	r3, [r7, #12]
    12da:	609a      	str	r2, [r3, #8]
C:\Users\kruci_000\Desktop\University\SoC\Marsfinder\Marsfinder\Marsfinder_FW\Debug/../drivers/CoreI2C/core_i2c.c:298

    this_i2c->dir = READ_DIR;
    12dc:	68fb      	ldr	r3, [r7, #12]
    12de:	2201      	movs	r2, #1
    12e0:	625a      	str	r2, [r3, #36]	; 0x24
C:\Users\kruci_000\Desktop\University\SoC\Marsfinder\Marsfinder\Marsfinder_FW\Debug/../drivers/CoreI2C/core_i2c.c:300

    this_i2c->master_rx_buffer = read_buffer;
    12e2:	68fb      	ldr	r3, [r7, #12]
    12e4:	687a      	ldr	r2, [r7, #4]
    12e6:	629a      	str	r2, [r3, #40]	; 0x28
C:\Users\kruci_000\Desktop\University\SoC\Marsfinder\Marsfinder\Marsfinder_FW\Debug/../drivers/CoreI2C/core_i2c.c:301
    this_i2c->master_rx_size = read_size;
    12e8:	893a      	ldrh	r2, [r7, #8]
    12ea:	68fb      	ldr	r3, [r7, #12]
    12ec:	62da      	str	r2, [r3, #44]	; 0x2c
C:\Users\kruci_000\Desktop\University\SoC\Marsfinder\Marsfinder\Marsfinder_FW\Debug/../drivers/CoreI2C/core_i2c.c:302
    this_i2c->master_rx_idx = 0u;
    12ee:	68fb      	ldr	r3, [r7, #12]
    12f0:	2200      	movs	r2, #0
    12f2:	631a      	str	r2, [r3, #48]	; 0x30
C:\Users\kruci_000\Desktop\University\SoC\Marsfinder\Marsfinder\Marsfinder_FW\Debug/../drivers/CoreI2C/core_i2c.c:305

    /* Set I2C status in progress */
    this_i2c->master_status = I2C_IN_PROGRESS;
    12f4:	68fb      	ldr	r3, [r7, #12]
    12f6:	2201      	movs	r2, #1
    12f8:	f883 2034 	strb.w	r2, [r3, #52]	; 0x34
C:\Users\kruci_000\Desktop\University\SoC\Marsfinder\Marsfinder\Marsfinder_FW\Debug/../drivers/CoreI2C/core_i2c.c:307

    this_i2c->options = options;
    12fc:	68fb      	ldr	r3, [r7, #12]
    12fe:	f897 2020 	ldrb.w	r2, [r7, #32]
    1302:	751a      	strb	r2, [r3, #20]
C:\Users\kruci_000\Desktop\University\SoC\Marsfinder\Marsfinder\Marsfinder_FW\Debug/../drivers/CoreI2C/core_i2c.c:309

    if(I2C_IN_PROGRESS == this_i2c->slave_status)
    1304:	68fb      	ldr	r3, [r7, #12]
    1306:	f893 3054 	ldrb.w	r3, [r3, #84]	; 0x54
    130a:	b2db      	uxtb	r3, r3
    130c:	2b01      	cmp	r3, #1
    130e:	d104      	bne.n	131a <I2C_read+0x76>
C:\Users\kruci_000\Desktop\University\SoC\Marsfinder\Marsfinder\Marsfinder_FW\Debug/../drivers/CoreI2C/core_i2c.c:311
    {
        this_i2c->is_transaction_pending = 1u;
    1310:	68fb      	ldr	r3, [r7, #12]
    1312:	2201      	movs	r2, #1
    1314:	f883 2069 	strb.w	r2, [r3, #105]	; 0x69
    1318:	e007      	b.n	132a <I2C_read+0x86>
C:\Users\kruci_000\Desktop\University\SoC\Marsfinder\Marsfinder\Marsfinder_FW\Debug/../drivers/CoreI2C/core_i2c.c:315
    }
    else
    {
        HAL_set_8bit_reg_field(this_i2c->base_address, STA, 0x01u);
    131a:	68fb      	ldr	r3, [r7, #12]
    131c:	681b      	ldr	r3, [r3, #0]
    131e:	4618      	mov	r0, r3
    1320:	2105      	movs	r1, #5
    1322:	2220      	movs	r2, #32
    1324:	2301      	movs	r3, #1
    1326:	f7ff f98c 	bl	642 <HW_set_8bit_reg_field>
C:\Users\kruci_000\Desktop\University\SoC\Marsfinder\Marsfinder\Marsfinder_FW\Debug/../drivers/CoreI2C/core_i2c.c:323
    /*
     * Clear interrupts if required (depends on repeated starts).
     * Since the Bus is on hold, only then prior status needs to
     * be cleared.
     */
    if ( I2C_HOLD_BUS == this_i2c->bus_status )
    132a:	68fb      	ldr	r3, [r7, #12]
    132c:	f893 3068 	ldrb.w	r3, [r3, #104]	; 0x68
    1330:	2b01      	cmp	r3, #1
    1332:	d107      	bne.n	1344 <I2C_read+0xa0>
C:\Users\kruci_000\Desktop\University\SoC\Marsfinder\Marsfinder\Marsfinder_FW\Debug/../drivers/CoreI2C/core_i2c.c:325
    {
        HAL_set_8bit_reg_field(this_i2c->base_address, SI, 0x00u);
    1334:	68fb      	ldr	r3, [r7, #12]
    1336:	681b      	ldr	r3, [r3, #0]
    1338:	4618      	mov	r0, r3
    133a:	2103      	movs	r1, #3
    133c:	2208      	movs	r2, #8
    133e:	2300      	movs	r3, #0
    1340:	f7ff f97f 	bl	642 <HW_set_8bit_reg_field>
C:\Users\kruci_000\Desktop\University\SoC\Marsfinder\Marsfinder\Marsfinder_FW\Debug/../drivers/CoreI2C/core_i2c.c:328
    }

    stat_ctrl = HAL_get_8bit_reg( this_i2c->base_address, STATUS);
    1344:	68fb      	ldr	r3, [r7, #12]
    1346:	681b      	ldr	r3, [r3, #0]
    1348:	3304      	adds	r3, #4
    134a:	4618      	mov	r0, r3
    134c:	f7ff f977 	bl	63e <HW_get_8bit_reg>
    1350:	4603      	mov	r3, r0
    1352:	74fb      	strb	r3, [r7, #19]
C:\Users\kruci_000\Desktop\University\SoC\Marsfinder\Marsfinder\Marsfinder_FW\Debug/../drivers/CoreI2C/core_i2c.c:329
    stat_ctrl = stat_ctrl;  /* Avoids lint warning. */
    1354:	7cfb      	ldrb	r3, [r7, #19]
    1356:	b2db      	uxtb	r3, r3
    1358:	74fb      	strb	r3, [r7, #19]
C:\Users\kruci_000\Desktop\University\SoC\Marsfinder\Marsfinder\Marsfinder_FW\Debug/../drivers/CoreI2C/core_i2c.c:332

    /* Enable the interrupt. ( Re-enable) */
    I2C_enable_irq( this_i2c );
    135a:	68f8      	ldr	r0, [r7, #12]
    135c:	f000 fd44 	bl	1de8 <I2C_enable_irq>
C:\Users\kruci_000\Desktop\University\SoC\Marsfinder\Marsfinder\Marsfinder_FW\Debug/../drivers/CoreI2C/core_i2c.c:333
    HAL_restore_interrupts( saved_psr );
    1360:	6978      	ldr	r0, [r7, #20]
    1362:	f7ff f937 	bl	5d4 <HAL_restore_interrupts>
C:\Users\kruci_000\Desktop\University\SoC\Marsfinder\Marsfinder\Marsfinder_FW\Debug/../drivers/CoreI2C/core_i2c.c:334
}
    1366:	3718      	adds	r7, #24
    1368:	46bd      	mov	sp, r7
    136a:	bd80      	pop	{r7, pc}

0000136c <I2C_wait_complete>:
I2C_wait_complete():
C:\Users\kruci_000\Desktop\University\SoC\Marsfinder\Marsfinder\Marsfinder_FW\Debug/../drivers/CoreI2C/core_i2c.c:445
i2c_status_t I2C_wait_complete
(
    i2c_instance_t * this_i2c,
    uint32_t timeout_ms
)
{
    136c:	b580      	push	{r7, lr}
    136e:	b084      	sub	sp, #16
    1370:	af00      	add	r7, sp, #0
    1372:	6078      	str	r0, [r7, #4]
    1374:	6039      	str	r1, [r7, #0]
C:\Users\kruci_000\Desktop\University\SoC\Marsfinder\Marsfinder\Marsfinder_FW\Debug/../drivers/CoreI2C/core_i2c.c:454
     * Because we have no idea of what CPU we are supposed to be running on
     * we need to guard this write to the timeout value to avoid ISR/user code
     * interaction issues. Checking the status below should be fine as only a
     * single byte should change in that.
     */
    saved_psr = HAL_disable_interrupts();
    1376:	f7ff f929 	bl	5cc <HAL_disable_interrupts>
    137a:	60f8      	str	r0, [r7, #12]
C:\Users\kruci_000\Desktop\University\SoC\Marsfinder\Marsfinder\Marsfinder_FW\Debug/../drivers/CoreI2C/core_i2c.c:455
    this_i2c->master_timeout_ms = timeout_ms;
    137c:	687b      	ldr	r3, [r7, #4]
    137e:	683a      	ldr	r2, [r7, #0]
    1380:	639a      	str	r2, [r3, #56]	; 0x38
C:\Users\kruci_000\Desktop\University\SoC\Marsfinder\Marsfinder\Marsfinder_FW\Debug/../drivers/CoreI2C/core_i2c.c:456
    HAL_restore_interrupts( saved_psr );
    1382:	68f8      	ldr	r0, [r7, #12]
    1384:	f7ff f926 	bl	5d4 <HAL_restore_interrupts>
C:\Users\kruci_000\Desktop\University\SoC\Marsfinder\Marsfinder\Marsfinder_FW\Debug/../drivers/CoreI2C/core_i2c.c:460 (discriminator 1)

    /* Run the loop until state returns I2C_FAILED  or I2C_SUCESS*/
    do {
        i2c_status = this_i2c->master_status;
    1388:	687b      	ldr	r3, [r7, #4]
    138a:	f893 3034 	ldrb.w	r3, [r3, #52]	; 0x34
    138e:	72fb      	strb	r3, [r7, #11]
C:\Users\kruci_000\Desktop\University\SoC\Marsfinder\Marsfinder\Marsfinder_FW\Debug/../drivers/CoreI2C/core_i2c.c:461 (discriminator 1)
    } while(I2C_IN_PROGRESS == i2c_status);
    1390:	7afb      	ldrb	r3, [r7, #11]
    1392:	2b01      	cmp	r3, #1
    1394:	d0f8      	beq.n	1388 <I2C_wait_complete+0x1c>
C:\Users\kruci_000\Desktop\University\SoC\Marsfinder\Marsfinder\Marsfinder_FW\Debug/../drivers/CoreI2C/core_i2c.c:462
    return i2c_status;
    1396:	7afb      	ldrb	r3, [r7, #11]
C:\Users\kruci_000\Desktop\University\SoC\Marsfinder\Marsfinder\Marsfinder_FW\Debug/../drivers/CoreI2C/core_i2c.c:463
}
    1398:	4618      	mov	r0, r3
    139a:	3710      	adds	r7, #16
    139c:	46bd      	mov	sp, r7
    139e:	bd80      	pop	{r7, pc}

000013a0 <I2C_system_tick>:
I2C_system_tick():
C:\Users\kruci_000\Desktop\University\SoC\Marsfinder\Marsfinder\Marsfinder_FW\Debug/../drivers/CoreI2C/core_i2c.c:474
void I2C_system_tick
(
    i2c_instance_t * this_i2c,
    uint32_t ms_since_last_tick
)
{
    13a0:	b580      	push	{r7, lr}
    13a2:	b084      	sub	sp, #16
    13a4:	af00      	add	r7, sp, #0
    13a6:	6078      	str	r0, [r7, #4]
    13a8:	6039      	str	r1, [r7, #0]
C:\Users\kruci_000\Desktop\University\SoC\Marsfinder\Marsfinder\Marsfinder_FW\Debug/../drivers/CoreI2C/core_i2c.c:475
    if(this_i2c->master_timeout_ms != I2C_NO_TIMEOUT)
    13aa:	687b      	ldr	r3, [r7, #4]
    13ac:	6b9b      	ldr	r3, [r3, #56]	; 0x38
    13ae:	2b00      	cmp	r3, #0
    13b0:	d01f      	beq.n	13f2 <I2C_system_tick+0x52>
C:\Users\kruci_000\Desktop\University\SoC\Marsfinder\Marsfinder\Marsfinder_FW\Debug/../drivers/CoreI2C/core_i2c.c:477
    {
       if(this_i2c->master_timeout_ms > ms_since_last_tick)
    13b2:	687b      	ldr	r3, [r7, #4]
    13b4:	6b9a      	ldr	r2, [r3, #56]	; 0x38
    13b6:	683b      	ldr	r3, [r7, #0]
    13b8:	429a      	cmp	r2, r3
    13ba:	d906      	bls.n	13ca <I2C_system_tick+0x2a>
C:\Users\kruci_000\Desktop\University\SoC\Marsfinder\Marsfinder\Marsfinder_FW\Debug/../drivers/CoreI2C/core_i2c.c:479
        {
            this_i2c->master_timeout_ms -= ms_since_last_tick;
    13bc:	687b      	ldr	r3, [r7, #4]
    13be:	6b9a      	ldr	r2, [r3, #56]	; 0x38
    13c0:	683b      	ldr	r3, [r7, #0]
    13c2:	1ad2      	subs	r2, r2, r3
    13c4:	687b      	ldr	r3, [r7, #4]
    13c6:	639a      	str	r2, [r3, #56]	; 0x38
    13c8:	e013      	b.n	13f2 <I2C_system_tick+0x52>
C:\Users\kruci_000\Desktop\University\SoC\Marsfinder\Marsfinder\Marsfinder_FW\Debug/../drivers/CoreI2C/core_i2c.c:488
            psr_t saved_psr;
            /*
             * We need to disable interrupts here to ensure we can update the
             * shared data without the I2C ISR interrupting us.
             */
            saved_psr = HAL_disable_interrupts();
    13ca:	f7ff f8ff 	bl	5cc <HAL_disable_interrupts>
    13ce:	60f8      	str	r0, [r7, #12]
C:\Users\kruci_000\Desktop\University\SoC\Marsfinder\Marsfinder\Marsfinder_FW\Debug/../drivers/CoreI2C/core_i2c.c:493

            /*
             * Mark current transaction as having timed out.
             */
            this_i2c->master_status = I2C_TIMED_OUT;
    13d0:	687b      	ldr	r3, [r7, #4]
    13d2:	2203      	movs	r2, #3
    13d4:	f883 2034 	strb.w	r2, [r3, #52]	; 0x34
C:\Users\kruci_000\Desktop\University\SoC\Marsfinder\Marsfinder\Marsfinder_FW\Debug/../drivers/CoreI2C/core_i2c.c:494
            this_i2c->transaction = NO_TRANSACTION;
    13d8:	687b      	ldr	r3, [r7, #4]
    13da:	2200      	movs	r2, #0
    13dc:	731a      	strb	r2, [r3, #12]
C:\Users\kruci_000\Desktop\University\SoC\Marsfinder\Marsfinder\Marsfinder_FW\Debug/../drivers/CoreI2C/core_i2c.c:495
            this_i2c->is_transaction_pending = 0;
    13de:	687b      	ldr	r3, [r7, #4]
    13e0:	2200      	movs	r2, #0
    13e2:	f883 2069 	strb.w	r2, [r3, #105]	; 0x69
C:\Users\kruci_000\Desktop\University\SoC\Marsfinder\Marsfinder\Marsfinder_FW\Debug/../drivers/CoreI2C/core_i2c.c:497

            HAL_restore_interrupts( saved_psr );
    13e6:	68f8      	ldr	r0, [r7, #12]
    13e8:	f7ff f8f4 	bl	5d4 <HAL_restore_interrupts>
C:\Users\kruci_000\Desktop\University\SoC\Marsfinder\Marsfinder\Marsfinder_FW\Debug/../drivers/CoreI2C/core_i2c.c:503

            /*
             * Make sure we do not incorrectly signal a timeout for subsequent
             * transactions.
             */
            this_i2c->master_timeout_ms = I2C_NO_TIMEOUT;
    13ec:	687b      	ldr	r3, [r7, #4]
    13ee:	2200      	movs	r2, #0
    13f0:	639a      	str	r2, [r3, #56]	; 0x38
C:\Users\kruci_000\Desktop\University\SoC\Marsfinder\Marsfinder\Marsfinder_FW\Debug/../drivers/CoreI2C/core_i2c.c:506
        }
    }
}
    13f2:	3710      	adds	r7, #16
    13f4:	46bd      	mov	sp, r7
    13f6:	bd80      	pop	{r7, pc}

000013f8 <enable_slave_if_required>:
enable_slave_if_required():
C:\Users\kruci_000\Desktop\University\SoC\Marsfinder\Marsfinder\Marsfinder_FW\Debug/../drivers/CoreI2C/core_i2c.c:671
 */
static void enable_slave_if_required
(
    i2c_instance_t * this_i2c
)
{
    13f8:	b580      	push	{r7, lr}
    13fa:	b082      	sub	sp, #8
    13fc:	af00      	add	r7, sp, #0
    13fe:	6078      	str	r0, [r7, #4]
C:\Users\kruci_000\Desktop\University\SoC\Marsfinder\Marsfinder\Marsfinder_FW\Debug/../drivers/CoreI2C/core_i2c.c:676
    /*
     * This function is only called from within the ISR and so does not need
     * guarding on the register access.
     */
    if( 0 != this_i2c->is_slave_enabled )
    1400:	687b      	ldr	r3, [r7, #4]
    1402:	f893 3060 	ldrb.w	r3, [r3, #96]	; 0x60
    1406:	2b00      	cmp	r3, #0
    1408:	d007      	beq.n	141a <enable_slave_if_required+0x22>
C:\Users\kruci_000\Desktop\University\SoC\Marsfinder\Marsfinder\Marsfinder_FW\Debug/../drivers/CoreI2C/core_i2c.c:678
    {
        HAL_set_8bit_reg_field( this_i2c->base_address, AA, 0x01u );
    140a:	687b      	ldr	r3, [r7, #4]
    140c:	681b      	ldr	r3, [r3, #0]
    140e:	4618      	mov	r0, r3
    1410:	2102      	movs	r1, #2
    1412:	2204      	movs	r2, #4
    1414:	2301      	movs	r3, #1
    1416:	f7ff f914 	bl	642 <HW_set_8bit_reg_field>
C:\Users\kruci_000\Desktop\University\SoC\Marsfinder\Marsfinder\Marsfinder_FW\Debug/../drivers/CoreI2C/core_i2c.c:680
    }
}
    141a:	3708      	adds	r7, #8
    141c:	46bd      	mov	sp, r7
    141e:	bd80      	pop	{r7, pc}

00001420 <I2C_isr>:
I2C_isr():
C:\Users\kruci_000\Desktop\University\SoC\Marsfinder\Marsfinder\Marsfinder_FW\Debug/../drivers/CoreI2C/core_i2c.c:775
 */
void I2C_isr
(
    i2c_instance_t * this_i2c
)
{
    1420:	b590      	push	{r4, r7, lr}
    1422:	b085      	sub	sp, #20
    1424:	af00      	add	r7, sp, #0
    1426:	6078      	str	r0, [r7, #4]
C:\Users\kruci_000\Desktop\University\SoC\Marsfinder\Marsfinder\Marsfinder_FW\Debug/../drivers/CoreI2C/core_i2c.c:779
    volatile uint8_t status;
    uint8_t data;
    uint8_t hold_bus;
    uint8_t clear_irq = 1u;
    1428:	2301      	movs	r3, #1
    142a:	73fb      	strb	r3, [r7, #15]
C:\Users\kruci_000\Desktop\University\SoC\Marsfinder\Marsfinder\Marsfinder_FW\Debug/../drivers/CoreI2C/core_i2c.c:781

    status = HAL_get_8bit_reg( this_i2c->base_address, STATUS);
    142c:	687b      	ldr	r3, [r7, #4]
    142e:	681b      	ldr	r3, [r3, #0]
    1430:	3304      	adds	r3, #4
    1432:	4618      	mov	r0, r3
    1434:	f7ff f903 	bl	63e <HW_get_8bit_reg>
    1438:	4603      	mov	r3, r0
    143a:	72fb      	strb	r3, [r7, #11]
C:\Users\kruci_000\Desktop\University\SoC\Marsfinder\Marsfinder\Marsfinder_FW\Debug/../drivers/CoreI2C/core_i2c.c:783

    switch( status )
    143c:	7afb      	ldrb	r3, [r7, #11]
    143e:	b2db      	uxtb	r3, r3
    1440:	3b08      	subs	r3, #8
    1442:	2bd8      	cmp	r3, #216	; 0xd8
    1444:	f200 8463 	bhi.w	1d0e <I2C_isr+0x8ee>
    1448:	a201      	add	r2, pc, #4	; (adr r2, 1450 <I2C_isr+0x30>)
    144a:	f852 f023 	ldr.w	pc, [r2, r3, lsl #2]
    144e:	bf00      	nop
    1450:	000017b5 	.word	0x000017b5
    1454:	00001d0f 	.word	0x00001d0f
    1458:	00001d0f 	.word	0x00001d0f
    145c:	00001d0f 	.word	0x00001d0f
    1460:	00001d0f 	.word	0x00001d0f
    1464:	00001d0f 	.word	0x00001d0f
    1468:	00001d0f 	.word	0x00001d0f
    146c:	00001d0f 	.word	0x00001d0f
    1470:	000017b5 	.word	0x000017b5
    1474:	00001d0f 	.word	0x00001d0f
    1478:	00001d0f 	.word	0x00001d0f
    147c:	00001d0f 	.word	0x00001d0f
    1480:	00001d0f 	.word	0x00001d0f
    1484:	00001d0f 	.word	0x00001d0f
    1488:	00001d0f 	.word	0x00001d0f
    148c:	00001d0f 	.word	0x00001d0f
    1490:	0000186b 	.word	0x0000186b
    1494:	00001d0f 	.word	0x00001d0f
    1498:	00001d0f 	.word	0x00001d0f
    149c:	00001d0f 	.word	0x00001d0f
    14a0:	00001d0f 	.word	0x00001d0f
    14a4:	00001d0f 	.word	0x00001d0f
    14a8:	00001d0f 	.word	0x00001d0f
    14ac:	00001d0f 	.word	0x00001d0f
    14b0:	00001845 	.word	0x00001845
    14b4:	00001d0f 	.word	0x00001d0f
    14b8:	00001d0f 	.word	0x00001d0f
    14bc:	00001d0f 	.word	0x00001d0f
    14c0:	00001d0f 	.word	0x00001d0f
    14c4:	00001d0f 	.word	0x00001d0f
    14c8:	00001d0f 	.word	0x00001d0f
    14cc:	00001d0f 	.word	0x00001d0f
    14d0:	0000186b 	.word	0x0000186b
    14d4:	00001d0f 	.word	0x00001d0f
    14d8:	00001d0f 	.word	0x00001d0f
    14dc:	00001d0f 	.word	0x00001d0f
    14e0:	00001d0f 	.word	0x00001d0f
    14e4:	00001d0f 	.word	0x00001d0f
    14e8:	00001d0f 	.word	0x00001d0f
    14ec:	00001d0f 	.word	0x00001d0f
    14f0:	00001907 	.word	0x00001907
    14f4:	00001d0f 	.word	0x00001d0f
    14f8:	00001d0f 	.word	0x00001d0f
    14fc:	00001d0f 	.word	0x00001d0f
    1500:	00001d0f 	.word	0x00001d0f
    1504:	00001d0f 	.word	0x00001d0f
    1508:	00001d0f 	.word	0x00001d0f
    150c:	00001d0f 	.word	0x00001d0f
    1510:	00001833 	.word	0x00001833
    1514:	00001d0f 	.word	0x00001d0f
    1518:	00001d0f 	.word	0x00001d0f
    151c:	00001d0f 	.word	0x00001d0f
    1520:	00001d0f 	.word	0x00001d0f
    1524:	00001d0f 	.word	0x00001d0f
    1528:	00001d0f 	.word	0x00001d0f
    152c:	00001d0f 	.word	0x00001d0f
    1530:	0000192d 	.word	0x0000192d
    1534:	00001d0f 	.word	0x00001d0f
    1538:	00001d0f 	.word	0x00001d0f
    153c:	00001d0f 	.word	0x00001d0f
    1540:	00001d0f 	.word	0x00001d0f
    1544:	00001d0f 	.word	0x00001d0f
    1548:	00001d0f 	.word	0x00001d0f
    154c:	00001d0f 	.word	0x00001d0f
    1550:	00001993 	.word	0x00001993
    1554:	00001d0f 	.word	0x00001d0f
    1558:	00001d0f 	.word	0x00001d0f
    155c:	00001d0f 	.word	0x00001d0f
    1560:	00001d0f 	.word	0x00001d0f
    1564:	00001d0f 	.word	0x00001d0f
    1568:	00001d0f 	.word	0x00001d0f
    156c:	00001d0f 	.word	0x00001d0f
    1570:	000019b9 	.word	0x000019b9
    1574:	00001d0f 	.word	0x00001d0f
    1578:	00001d0f 	.word	0x00001d0f
    157c:	00001d0f 	.word	0x00001d0f
    1580:	00001d0f 	.word	0x00001d0f
    1584:	00001d0f 	.word	0x00001d0f
    1588:	00001d0f 	.word	0x00001d0f
    158c:	00001d0f 	.word	0x00001d0f
    1590:	000019fb 	.word	0x000019fb
    1594:	00001d0f 	.word	0x00001d0f
    1598:	00001d0f 	.word	0x00001d0f
    159c:	00001d0f 	.word	0x00001d0f
    15a0:	00001d0f 	.word	0x00001d0f
    15a4:	00001d0f 	.word	0x00001d0f
    15a8:	00001d0f 	.word	0x00001d0f
    15ac:	00001d0f 	.word	0x00001d0f
    15b0:	00001aa3 	.word	0x00001aa3
    15b4:	00001d0f 	.word	0x00001d0f
    15b8:	00001d0f 	.word	0x00001d0f
    15bc:	00001d0f 	.word	0x00001d0f
    15c0:	00001d0f 	.word	0x00001d0f
    15c4:	00001d0f 	.word	0x00001d0f
    15c8:	00001d0f 	.word	0x00001d0f
    15cc:	00001d0f 	.word	0x00001d0f
    15d0:	00001a9b 	.word	0x00001a9b
    15d4:	00001d0f 	.word	0x00001d0f
    15d8:	00001d0f 	.word	0x00001d0f
    15dc:	00001d0f 	.word	0x00001d0f
    15e0:	00001d0f 	.word	0x00001d0f
    15e4:	00001d0f 	.word	0x00001d0f
    15e8:	00001d0f 	.word	0x00001d0f
    15ec:	00001d0f 	.word	0x00001d0f
    15f0:	00001aa3 	.word	0x00001aa3
    15f4:	00001d0f 	.word	0x00001d0f
    15f8:	00001d0f 	.word	0x00001d0f
    15fc:	00001d0f 	.word	0x00001d0f
    1600:	00001d0f 	.word	0x00001d0f
    1604:	00001d0f 	.word	0x00001d0f
    1608:	00001d0f 	.word	0x00001d0f
    160c:	00001d0f 	.word	0x00001d0f
    1610:	00001a9b 	.word	0x00001a9b
    1614:	00001d0f 	.word	0x00001d0f
    1618:	00001d0f 	.word	0x00001d0f
    161c:	00001d0f 	.word	0x00001d0f
    1620:	00001d0f 	.word	0x00001d0f
    1624:	00001d0f 	.word	0x00001d0f
    1628:	00001d0f 	.word	0x00001d0f
    162c:	00001d0f 	.word	0x00001d0f
    1630:	00001aeb 	.word	0x00001aeb
    1634:	00001d0f 	.word	0x00001d0f
    1638:	00001d0f 	.word	0x00001d0f
    163c:	00001d0f 	.word	0x00001d0f
    1640:	00001d0f 	.word	0x00001d0f
    1644:	00001d0f 	.word	0x00001d0f
    1648:	00001d0f 	.word	0x00001d0f
    164c:	00001d0f 	.word	0x00001d0f
    1650:	00001a5f 	.word	0x00001a5f
    1654:	00001d0f 	.word	0x00001d0f
    1658:	00001d0f 	.word	0x00001d0f
    165c:	00001d0f 	.word	0x00001d0f
    1660:	00001d0f 	.word	0x00001d0f
    1664:	00001d0f 	.word	0x00001d0f
    1668:	00001d0f 	.word	0x00001d0f
    166c:	00001d0f 	.word	0x00001d0f
    1670:	00001aeb 	.word	0x00001aeb
    1674:	00001d0f 	.word	0x00001d0f
    1678:	00001d0f 	.word	0x00001d0f
    167c:	00001d0f 	.word	0x00001d0f
    1680:	00001d0f 	.word	0x00001d0f
    1684:	00001d0f 	.word	0x00001d0f
    1688:	00001d0f 	.word	0x00001d0f
    168c:	00001d0f 	.word	0x00001d0f
    1690:	00001a5f 	.word	0x00001a5f
    1694:	00001d0f 	.word	0x00001d0f
    1698:	00001d0f 	.word	0x00001d0f
    169c:	00001d0f 	.word	0x00001d0f
    16a0:	00001d0f 	.word	0x00001d0f
    16a4:	00001d0f 	.word	0x00001d0f
    16a8:	00001d0f 	.word	0x00001d0f
    16ac:	00001d0f 	.word	0x00001d0f
    16b0:	00001b51 	.word	0x00001b51
    16b4:	00001d0f 	.word	0x00001d0f
    16b8:	00001d0f 	.word	0x00001d0f
    16bc:	00001d0f 	.word	0x00001d0f
    16c0:	00001d0f 	.word	0x00001d0f
    16c4:	00001d0f 	.word	0x00001d0f
    16c8:	00001d0f 	.word	0x00001d0f
    16cc:	00001d0f 	.word	0x00001d0f
    16d0:	00001c23 	.word	0x00001c23
    16d4:	00001d0f 	.word	0x00001d0f
    16d8:	00001d0f 	.word	0x00001d0f
    16dc:	00001d0f 	.word	0x00001d0f
    16e0:	00001d0f 	.word	0x00001d0f
    16e4:	00001d0f 	.word	0x00001d0f
    16e8:	00001d0f 	.word	0x00001d0f
    16ec:	00001d0f 	.word	0x00001d0f
    16f0:	00001c23 	.word	0x00001c23
    16f4:	00001d0f 	.word	0x00001d0f
    16f8:	00001d0f 	.word	0x00001d0f
    16fc:	00001d0f 	.word	0x00001d0f
    1700:	00001d0f 	.word	0x00001d0f
    1704:	00001d0f 	.word	0x00001d0f
    1708:	00001d0f 	.word	0x00001d0f
    170c:	00001d0f 	.word	0x00001d0f
    1710:	00001c23 	.word	0x00001c23
    1714:	00001d0f 	.word	0x00001d0f
    1718:	00001d0f 	.word	0x00001d0f
    171c:	00001d0f 	.word	0x00001d0f
    1720:	00001d0f 	.word	0x00001d0f
    1724:	00001d0f 	.word	0x00001d0f
    1728:	00001d0f 	.word	0x00001d0f
    172c:	00001d0f 	.word	0x00001d0f
    1730:	00001ccf 	.word	0x00001ccf
    1734:	00001d0f 	.word	0x00001d0f
    1738:	00001d0f 	.word	0x00001d0f
    173c:	00001d0f 	.word	0x00001d0f
    1740:	00001d0f 	.word	0x00001d0f
    1744:	00001d0f 	.word	0x00001d0f
    1748:	00001d0f 	.word	0x00001d0f
    174c:	00001d0f 	.word	0x00001d0f
    1750:	00001ccf 	.word	0x00001ccf
    1754:	00001d0f 	.word	0x00001d0f
    1758:	00001d0f 	.word	0x00001d0f
    175c:	00001d0f 	.word	0x00001d0f
    1760:	00001d0f 	.word	0x00001d0f
    1764:	00001d0f 	.word	0x00001d0f
    1768:	00001d0f 	.word	0x00001d0f
    176c:	00001d0f 	.word	0x00001d0f
    1770:	00001d0f 	.word	0x00001d0f
    1774:	00001d0f 	.word	0x00001d0f
    1778:	00001d0f 	.word	0x00001d0f
    177c:	00001d0f 	.word	0x00001d0f
    1780:	00001d0f 	.word	0x00001d0f
    1784:	00001d0f 	.word	0x00001d0f
    1788:	00001d0f 	.word	0x00001d0f
    178c:	00001d0f 	.word	0x00001d0f
    1790:	00001bfb 	.word	0x00001bfb
    1794:	00001d0f 	.word	0x00001d0f
    1798:	00001d0f 	.word	0x00001d0f
    179c:	00001d0f 	.word	0x00001d0f
    17a0:	00001d0f 	.word	0x00001d0f
    17a4:	00001d0f 	.word	0x00001d0f
    17a8:	00001d0f 	.word	0x00001d0f
    17ac:	00001d0f 	.word	0x00001d0f
    17b0:	00001d57 	.word	0x00001d57
C:\Users\kruci_000\Desktop\University\SoC\Marsfinder\Marsfinder\Marsfinder_FW\Debug/../drivers/CoreI2C/core_i2c.c:789
    {
        /************** MASTER TRANSMITTER / RECEIVER *******************/

        case ST_START: /* start has been xmt'd */
        case ST_RESTART: /* repeated start has been xmt'd */
            HAL_set_8bit_reg_field( this_i2c->base_address, STA, 0x00u);
    17b4:	687b      	ldr	r3, [r7, #4]
    17b6:	681b      	ldr	r3, [r3, #0]
    17b8:	4618      	mov	r0, r3
    17ba:	2105      	movs	r1, #5
    17bc:	2220      	movs	r2, #32
    17be:	2300      	movs	r3, #0
    17c0:	f7fe ff3f 	bl	642 <HW_set_8bit_reg_field>
C:\Users\kruci_000\Desktop\University\SoC\Marsfinder\Marsfinder\Marsfinder_FW\Debug/../drivers/CoreI2C/core_i2c.c:790
            HAL_set_8bit_reg( this_i2c->base_address, DATA, this_i2c->target_addr); /* write call address */
    17c4:	687b      	ldr	r3, [r7, #4]
    17c6:	681b      	ldr	r3, [r3, #0]
    17c8:	f103 0208 	add.w	r2, r3, #8
    17cc:	687b      	ldr	r3, [r7, #4]
    17ce:	689b      	ldr	r3, [r3, #8]
    17d0:	4610      	mov	r0, r2
    17d2:	4619      	mov	r1, r3
    17d4:	f7fe ff31 	bl	63a <HW_set_8bit_reg>
C:\Users\kruci_000\Desktop\University\SoC\Marsfinder\Marsfinder\Marsfinder_FW\Debug/../drivers/CoreI2C/core_i2c.c:791
            HAL_set_8bit_reg_field( this_i2c->base_address, DIR, this_i2c->dir); /* set direction bit */
    17d8:	687b      	ldr	r3, [r7, #4]
    17da:	681b      	ldr	r3, [r3, #0]
    17dc:	f103 0208 	add.w	r2, r3, #8
    17e0:	687b      	ldr	r3, [r7, #4]
    17e2:	6a5b      	ldr	r3, [r3, #36]	; 0x24
    17e4:	4610      	mov	r0, r2
    17e6:	2100      	movs	r1, #0
    17e8:	2201      	movs	r2, #1
    17ea:	f7fe ff2a 	bl	642 <HW_set_8bit_reg_field>
C:\Users\kruci_000\Desktop\University\SoC\Marsfinder\Marsfinder\Marsfinder_FW\Debug/../drivers/CoreI2C/core_i2c.c:792
            if(this_i2c->dir == WRITE_DIR)
    17ee:	687b      	ldr	r3, [r7, #4]
    17f0:	6a5b      	ldr	r3, [r3, #36]	; 0x24
    17f2:	2b00      	cmp	r3, #0
    17f4:	d103      	bne.n	17fe <I2C_isr+0x3de>
C:\Users\kruci_000\Desktop\University\SoC\Marsfinder\Marsfinder\Marsfinder_FW\Debug/../drivers/CoreI2C/core_i2c.c:794
            {
                 this_i2c->master_tx_idx = 0u;
    17f6:	687b      	ldr	r3, [r7, #4]
    17f8:	2200      	movs	r2, #0
    17fa:	621a      	str	r2, [r3, #32]
    17fc:	e002      	b.n	1804 <I2C_isr+0x3e4>
C:\Users\kruci_000\Desktop\University\SoC\Marsfinder\Marsfinder\Marsfinder_FW\Debug/../drivers/CoreI2C/core_i2c.c:798
            }
            else
            {
                 this_i2c->master_rx_idx = 0u;
    17fe:	687b      	ldr	r3, [r7, #4]
    1800:	2200      	movs	r2, #0
    1802:	631a      	str	r2, [r3, #48]	; 0x30
C:\Users\kruci_000\Desktop\University\SoC\Marsfinder\Marsfinder\Marsfinder_FW\Debug/../drivers/CoreI2C/core_i2c.c:806
            /*
             * Clear the pending transaction. This condition will be true if the slave
             * has acquired the bus to carry out pending master transaction which
             * it had received during its slave transmission or reception mode.
             */
            if(this_i2c->is_transaction_pending)
    1804:	687b      	ldr	r3, [r7, #4]
    1806:	f893 3069 	ldrb.w	r3, [r3, #105]	; 0x69
    180a:	2b00      	cmp	r3, #0
    180c:	d003      	beq.n	1816 <I2C_isr+0x3f6>
C:\Users\kruci_000\Desktop\University\SoC\Marsfinder\Marsfinder\Marsfinder_FW\Debug/../drivers/CoreI2C/core_i2c.c:808
            {
                this_i2c->is_transaction_pending = 0u;
    180e:	687b      	ldr	r3, [r7, #4]
    1810:	2200      	movs	r2, #0
    1812:	f883 2069 	strb.w	r2, [r3, #105]	; 0x69
C:\Users\kruci_000\Desktop\University\SoC\Marsfinder\Marsfinder\Marsfinder_FW\Debug/../drivers/CoreI2C/core_i2c.c:815

            /*
             * Make sure to update proper transaction after master START
             * or RESTART
             */
            if(this_i2c->transaction != this_i2c->pending_transaction)
    1816:	687b      	ldr	r3, [r7, #4]
    1818:	7b1a      	ldrb	r2, [r3, #12]
    181a:	687b      	ldr	r3, [r7, #4]
    181c:	f893 306a 	ldrb.w	r3, [r3, #106]	; 0x6a
    1820:	429a      	cmp	r2, r3
    1822:	d005      	beq.n	1830 <I2C_isr+0x410>
C:\Users\kruci_000\Desktop\University\SoC\Marsfinder\Marsfinder\Marsfinder_FW\Debug/../drivers/CoreI2C/core_i2c.c:817
            {
                this_i2c->transaction = this_i2c->pending_transaction;
    1824:	687b      	ldr	r3, [r7, #4]
    1826:	f893 206a 	ldrb.w	r2, [r3, #106]	; 0x6a
    182a:	687b      	ldr	r3, [r7, #4]
    182c:	731a      	strb	r2, [r3, #12]
C:\Users\kruci_000\Desktop\University\SoC\Marsfinder\Marsfinder\Marsfinder_FW\Debug/../drivers/CoreI2C/core_i2c.c:819
            }
            break;
    182e:	e293      	b.n	1d58 <I2C_isr+0x938>
    1830:	e292      	b.n	1d58 <I2C_isr+0x938>
C:\Users\kruci_000\Desktop\University\SoC\Marsfinder\Marsfinder\Marsfinder_FW\Debug/../drivers/CoreI2C/core_i2c.c:823

        case ST_LOST_ARB:
              /* Set start bit.  Let's keep trying!  Don't give up! */
              HAL_set_8bit_reg_field(this_i2c->base_address, STA, 0x01u);
    1832:	687b      	ldr	r3, [r7, #4]
    1834:	681b      	ldr	r3, [r3, #0]
    1836:	4618      	mov	r0, r3
    1838:	2105      	movs	r1, #5
    183a:	2220      	movs	r2, #32
    183c:	2301      	movs	r3, #1
    183e:	f7fe ff00 	bl	642 <HW_set_8bit_reg_field>
C:\Users\kruci_000\Desktop\University\SoC\Marsfinder\Marsfinder\Marsfinder_FW\Debug/../drivers/CoreI2C/core_i2c.c:824
              break;
    1842:	e289      	b.n	1d58 <I2C_isr+0x938>
C:\Users\kruci_000\Desktop\University\SoC\Marsfinder\Marsfinder\Marsfinder_FW\Debug/../drivers/CoreI2C/core_i2c.c:833
              break;

        /******************* MASTER TRANSMITTER *************************/
        case ST_SLAW_NACK:
            /* SLA+W has been transmitted; not ACK has been received - let's stop. */
            HAL_set_8bit_reg_field(this_i2c->base_address, STO, 0x01u);
    1844:	687b      	ldr	r3, [r7, #4]
    1846:	681b      	ldr	r3, [r3, #0]
    1848:	4618      	mov	r0, r3
    184a:	2104      	movs	r1, #4
    184c:	2210      	movs	r2, #16
    184e:	2301      	movs	r3, #1
    1850:	f7fe fef7 	bl	642 <HW_set_8bit_reg_field>
C:\Users\kruci_000\Desktop\University\SoC\Marsfinder\Marsfinder\Marsfinder_FW\Debug/../drivers/CoreI2C/core_i2c.c:834
            this_i2c->master_status = I2C_FAILED;
    1854:	687b      	ldr	r3, [r7, #4]
    1856:	2202      	movs	r2, #2
    1858:	f883 2034 	strb.w	r2, [r3, #52]	; 0x34
C:\Users\kruci_000\Desktop\University\SoC\Marsfinder\Marsfinder\Marsfinder_FW\Debug/../drivers/CoreI2C/core_i2c.c:835
            this_i2c->transaction = NO_TRANSACTION;
    185c:	687b      	ldr	r3, [r7, #4]
    185e:	2200      	movs	r2, #0
    1860:	731a      	strb	r2, [r3, #12]
C:\Users\kruci_000\Desktop\University\SoC\Marsfinder\Marsfinder\Marsfinder_FW\Debug/../drivers/CoreI2C/core_i2c.c:836
            enable_slave_if_required(this_i2c);
    1862:	6878      	ldr	r0, [r7, #4]
    1864:	f7ff fdc8 	bl	13f8 <enable_slave_if_required>
C:\Users\kruci_000\Desktop\University\SoC\Marsfinder\Marsfinder\Marsfinder_FW\Debug/../drivers/CoreI2C/core_i2c.c:837
            break;
    1868:	e276      	b.n	1d58 <I2C_isr+0x938>
C:\Users\kruci_000\Desktop\University\SoC\Marsfinder\Marsfinder\Marsfinder_FW\Debug/../drivers/CoreI2C/core_i2c.c:842

        case ST_SLAW_ACK:
        case ST_TX_DATA_ACK:
            /* data byte has been xmt'd with ACK, time to send stop bit or repeated start. */
            if (this_i2c->master_tx_idx < this_i2c->master_tx_size)
    186a:	687b      	ldr	r3, [r7, #4]
    186c:	6a1a      	ldr	r2, [r3, #32]
    186e:	687b      	ldr	r3, [r7, #4]
    1870:	69db      	ldr	r3, [r3, #28]
    1872:	429a      	cmp	r2, r3
    1874:	d211      	bcs.n	189a <I2C_isr+0x47a>
C:\Users\kruci_000\Desktop\University\SoC\Marsfinder\Marsfinder\Marsfinder_FW\Debug/../drivers/CoreI2C/core_i2c.c:844
            {
                HAL_set_8bit_reg(this_i2c->base_address, DATA, (uint_fast8_t)this_i2c->master_tx_buffer[this_i2c->master_tx_idx++]);
    1876:	687b      	ldr	r3, [r7, #4]
    1878:	681b      	ldr	r3, [r3, #0]
    187a:	f103 0408 	add.w	r4, r3, #8
    187e:	687b      	ldr	r3, [r7, #4]
    1880:	699a      	ldr	r2, [r3, #24]
    1882:	687b      	ldr	r3, [r7, #4]
    1884:	6a1b      	ldr	r3, [r3, #32]
    1886:	1c58      	adds	r0, r3, #1
    1888:	6879      	ldr	r1, [r7, #4]
    188a:	6208      	str	r0, [r1, #32]
    188c:	4413      	add	r3, r2
    188e:	781b      	ldrb	r3, [r3, #0]
    1890:	4620      	mov	r0, r4
    1892:	4619      	mov	r1, r3
    1894:	f7fe fed1 	bl	63a <HW_set_8bit_reg>
    1898:	e034      	b.n	1904 <I2C_isr+0x4e4>
C:\Users\kruci_000\Desktop\University\SoC\Marsfinder\Marsfinder\Marsfinder_FW\Debug/../drivers/CoreI2C/core_i2c.c:846
            }
            else if ( this_i2c->transaction == MASTER_RANDOM_READ_TRANSACTION )
    189a:	687b      	ldr	r3, [r7, #4]
    189c:	7b1b      	ldrb	r3, [r3, #12]
    189e:	2b03      	cmp	r3, #3
    18a0:	d10b      	bne.n	18ba <I2C_isr+0x49a>
C:\Users\kruci_000\Desktop\University\SoC\Marsfinder\Marsfinder\Marsfinder_FW\Debug/../drivers/CoreI2C/core_i2c.c:850
            {
                /* We are finished sending the address offset part of a random read transaction.
                 * It is is time to send a restart in order to change direction. */
                 this_i2c->dir = READ_DIR;
    18a2:	687b      	ldr	r3, [r7, #4]
    18a4:	2201      	movs	r2, #1
    18a6:	625a      	str	r2, [r3, #36]	; 0x24
C:\Users\kruci_000\Desktop\University\SoC\Marsfinder\Marsfinder\Marsfinder_FW\Debug/../drivers/CoreI2C/core_i2c.c:851
                 HAL_set_8bit_reg_field(this_i2c->base_address, STA, 0x01u);
    18a8:	687b      	ldr	r3, [r7, #4]
    18aa:	681b      	ldr	r3, [r3, #0]
    18ac:	4618      	mov	r0, r3
    18ae:	2105      	movs	r1, #5
    18b0:	2220      	movs	r2, #32
    18b2:	2301      	movs	r3, #1
    18b4:	f7fe fec5 	bl	642 <HW_set_8bit_reg_field>
    18b8:	e024      	b.n	1904 <I2C_isr+0x4e4>
C:\Users\kruci_000\Desktop\University\SoC\Marsfinder\Marsfinder\Marsfinder_FW\Debug/../drivers/CoreI2C/core_i2c.c:859
            {
                /*
                 * Set the transaction back to NO_TRANSACTION to allow user to do further
                 * transaction
                 */
                this_i2c->transaction = NO_TRANSACTION;
    18ba:	687b      	ldr	r3, [r7, #4]
    18bc:	2200      	movs	r2, #0
    18be:	731a      	strb	r2, [r3, #12]
C:\Users\kruci_000\Desktop\University\SoC\Marsfinder\Marsfinder\Marsfinder_FW\Debug/../drivers/CoreI2C/core_i2c.c:860
                hold_bus = this_i2c->options & I2C_HOLD_BUS;
    18c0:	687b      	ldr	r3, [r7, #4]
    18c2:	7d1b      	ldrb	r3, [r3, #20]
    18c4:	f003 0301 	and.w	r3, r3, #1
    18c8:	73bb      	strb	r3, [r7, #14]
C:\Users\kruci_000\Desktop\University\SoC\Marsfinder\Marsfinder\Marsfinder_FW\Debug/../drivers/CoreI2C/core_i2c.c:863

                /* Store the information of current I2C bus status in the bus_status*/
                this_i2c->bus_status  = hold_bus;
    18ca:	687b      	ldr	r3, [r7, #4]
    18cc:	7bba      	ldrb	r2, [r7, #14]
    18ce:	f883 2068 	strb.w	r2, [r3, #104]	; 0x68
C:\Users\kruci_000\Desktop\University\SoC\Marsfinder\Marsfinder\Marsfinder_FW\Debug/../drivers/CoreI2C/core_i2c.c:864
                if ( hold_bus == 0u )
    18d2:	7bbb      	ldrb	r3, [r7, #14]
    18d4:	2b00      	cmp	r3, #0
    18d6:	d10b      	bne.n	18f0 <I2C_isr+0x4d0>
C:\Users\kruci_000\Desktop\University\SoC\Marsfinder\Marsfinder\Marsfinder_FW\Debug/../drivers/CoreI2C/core_i2c.c:866
                {
                    HAL_set_8bit_reg_field(this_i2c->base_address, STO, 0x01u);  /*xmt stop condition */
    18d8:	687b      	ldr	r3, [r7, #4]
    18da:	681b      	ldr	r3, [r3, #0]
    18dc:	4618      	mov	r0, r3
    18de:	2104      	movs	r1, #4
    18e0:	2210      	movs	r2, #16
    18e2:	2301      	movs	r3, #1
    18e4:	f7fe fead 	bl	642 <HW_set_8bit_reg_field>
C:\Users\kruci_000\Desktop\University\SoC\Marsfinder\Marsfinder\Marsfinder_FW\Debug/../drivers/CoreI2C/core_i2c.c:867
                    enable_slave_if_required(this_i2c);
    18e8:	6878      	ldr	r0, [r7, #4]
    18ea:	f7ff fd85 	bl	13f8 <enable_slave_if_required>
    18ee:	e004      	b.n	18fa <I2C_isr+0x4da>
C:\Users\kruci_000\Desktop\University\SoC\Marsfinder\Marsfinder\Marsfinder_FW\Debug/../drivers/CoreI2C/core_i2c.c:871
                }
                else
                {
                    I2C_disable_irq( this_i2c );
    18f0:	6878      	ldr	r0, [r7, #4]
    18f2:	f000 fa83 	bl	1dfc <I2C_disable_irq>
C:\Users\kruci_000\Desktop\University\SoC\Marsfinder\Marsfinder\Marsfinder_FW\Debug/../drivers/CoreI2C/core_i2c.c:872
                    clear_irq = 0u;
    18f6:	2300      	movs	r3, #0
    18f8:	73fb      	strb	r3, [r7, #15]
C:\Users\kruci_000\Desktop\University\SoC\Marsfinder\Marsfinder\Marsfinder_FW\Debug/../drivers/CoreI2C/core_i2c.c:874
                }
                this_i2c->master_status = I2C_SUCCESS;
    18fa:	687b      	ldr	r3, [r7, #4]
    18fc:	2200      	movs	r2, #0
    18fe:	f883 2034 	strb.w	r2, [r3, #52]	; 0x34
C:\Users\kruci_000\Desktop\University\SoC\Marsfinder\Marsfinder\Marsfinder_FW\Debug/../drivers/CoreI2C/core_i2c.c:876
            }
            break;
    1902:	e229      	b.n	1d58 <I2C_isr+0x938>
    1904:	e228      	b.n	1d58 <I2C_isr+0x938>
C:\Users\kruci_000\Desktop\University\SoC\Marsfinder\Marsfinder\Marsfinder_FW\Debug/../drivers/CoreI2C/core_i2c.c:884
            /* data byte SENT, ACK to be received
             * In fact, this means we've received a NACK (This may not be
             * obvious, but if we've rec'd an ACK then we would be in state
             * 0x28!) hence, let's send a stop bit
             */
            HAL_set_8bit_reg_field(this_i2c->base_address, STO, 0x01u);/* xmt stop condition */
    1906:	687b      	ldr	r3, [r7, #4]
    1908:	681b      	ldr	r3, [r3, #0]
    190a:	4618      	mov	r0, r3
    190c:	2104      	movs	r1, #4
    190e:	2210      	movs	r2, #16
    1910:	2301      	movs	r3, #1
    1912:	f7fe fe96 	bl	642 <HW_set_8bit_reg_field>
C:\Users\kruci_000\Desktop\University\SoC\Marsfinder\Marsfinder\Marsfinder_FW\Debug/../drivers/CoreI2C/core_i2c.c:885
            this_i2c->master_status = I2C_FAILED;
    1916:	687b      	ldr	r3, [r7, #4]
    1918:	2202      	movs	r2, #2
    191a:	f883 2034 	strb.w	r2, [r3, #52]	; 0x34
C:\Users\kruci_000\Desktop\University\SoC\Marsfinder\Marsfinder\Marsfinder_FW\Debug/../drivers/CoreI2C/core_i2c.c:891

            /*
             * Set the transaction back to NO_TRANSACTION to allow user to do further
             * transaction
             */
            this_i2c->transaction = NO_TRANSACTION;
    191e:	687b      	ldr	r3, [r7, #4]
    1920:	2200      	movs	r2, #0
    1922:	731a      	strb	r2, [r3, #12]
C:\Users\kruci_000\Desktop\University\SoC\Marsfinder\Marsfinder\Marsfinder_FW\Debug/../drivers/CoreI2C/core_i2c.c:892
            enable_slave_if_required(this_i2c);
    1924:	6878      	ldr	r0, [r7, #4]
    1926:	f7ff fd67 	bl	13f8 <enable_slave_if_required>
C:\Users\kruci_000\Desktop\University\SoC\Marsfinder\Marsfinder\Marsfinder_FW\Debug/../drivers/CoreI2C/core_i2c.c:893
            break;
    192a:	e215      	b.n	1d58 <I2C_isr+0x938>
C:\Users\kruci_000\Desktop\University\SoC\Marsfinder\Marsfinder\Marsfinder_FW\Debug/../drivers/CoreI2C/core_i2c.c:902
      /* STATUS codes 08H, 10H, 38H are all covered in MTX mode */
        case ST_SLAR_ACK: /* SLA+R tx'ed. */
            /* Let's make sure we ACK the first data byte received (set AA bit in CTRL) unless
             * the next byte is the last byte of the read transaction.
             */
            if(this_i2c->master_rx_size > 1u)
    192c:	687b      	ldr	r3, [r7, #4]
    192e:	6adb      	ldr	r3, [r3, #44]	; 0x2c
    1930:	2b01      	cmp	r3, #1
    1932:	d908      	bls.n	1946 <I2C_isr+0x526>
C:\Users\kruci_000\Desktop\University\SoC\Marsfinder\Marsfinder\Marsfinder_FW\Debug/../drivers/CoreI2C/core_i2c.c:904
            {
                HAL_set_8bit_reg_field(this_i2c->base_address, AA, 0x01u);
    1934:	687b      	ldr	r3, [r7, #4]
    1936:	681b      	ldr	r3, [r3, #0]
    1938:	4618      	mov	r0, r3
    193a:	2102      	movs	r1, #2
    193c:	2204      	movs	r2, #4
    193e:	2301      	movs	r3, #1
    1940:	f7fe fe7f 	bl	642 <HW_set_8bit_reg_field>
    1944:	e024      	b.n	1990 <I2C_isr+0x570>
C:\Users\kruci_000\Desktop\University\SoC\Marsfinder\Marsfinder\Marsfinder_FW\Debug/../drivers/CoreI2C/core_i2c.c:906
            }
            else if(1u == this_i2c->master_rx_size)
    1946:	687b      	ldr	r3, [r7, #4]
    1948:	6adb      	ldr	r3, [r3, #44]	; 0x2c
    194a:	2b01      	cmp	r3, #1
    194c:	d108      	bne.n	1960 <I2C_isr+0x540>
C:\Users\kruci_000\Desktop\University\SoC\Marsfinder\Marsfinder\Marsfinder_FW\Debug/../drivers/CoreI2C/core_i2c.c:908
            {
                HAL_set_8bit_reg_field(this_i2c->base_address, AA, 0x00u);
    194e:	687b      	ldr	r3, [r7, #4]
    1950:	681b      	ldr	r3, [r3, #0]
    1952:	4618      	mov	r0, r3
    1954:	2102      	movs	r1, #2
    1956:	2204      	movs	r2, #4
    1958:	2300      	movs	r3, #0
    195a:	f7fe fe72 	bl	642 <HW_set_8bit_reg_field>
    195e:	e017      	b.n	1990 <I2C_isr+0x570>
C:\Users\kruci_000\Desktop\University\SoC\Marsfinder\Marsfinder\Marsfinder_FW\Debug/../drivers/CoreI2C/core_i2c.c:912
            }
            else /* this_i2c->master_rx_size == 0u */
            {
                HAL_set_8bit_reg_field(this_i2c->base_address, AA, 0x01u);
    1960:	687b      	ldr	r3, [r7, #4]
    1962:	681b      	ldr	r3, [r3, #0]
    1964:	4618      	mov	r0, r3
    1966:	2102      	movs	r1, #2
    1968:	2204      	movs	r2, #4
    196a:	2301      	movs	r3, #1
    196c:	f7fe fe69 	bl	642 <HW_set_8bit_reg_field>
C:\Users\kruci_000\Desktop\University\SoC\Marsfinder\Marsfinder\Marsfinder_FW\Debug/../drivers/CoreI2C/core_i2c.c:913
                HAL_set_8bit_reg_field(this_i2c->base_address, STO, 0x01u);
    1970:	687b      	ldr	r3, [r7, #4]
    1972:	681b      	ldr	r3, [r3, #0]
    1974:	4618      	mov	r0, r3
    1976:	2104      	movs	r1, #4
    1978:	2210      	movs	r2, #16
    197a:	2301      	movs	r3, #1
    197c:	f7fe fe61 	bl	642 <HW_set_8bit_reg_field>
C:\Users\kruci_000\Desktop\University\SoC\Marsfinder\Marsfinder\Marsfinder_FW\Debug/../drivers/CoreI2C/core_i2c.c:914
                this_i2c->master_status = I2C_SUCCESS;
    1980:	687b      	ldr	r3, [r7, #4]
    1982:	2200      	movs	r2, #0
    1984:	f883 2034 	strb.w	r2, [r3, #52]	; 0x34
C:\Users\kruci_000\Desktop\University\SoC\Marsfinder\Marsfinder\Marsfinder_FW\Debug/../drivers/CoreI2C/core_i2c.c:915
                this_i2c->transaction = NO_TRANSACTION;
    1988:	687b      	ldr	r3, [r7, #4]
    198a:	2200      	movs	r2, #0
    198c:	731a      	strb	r2, [r3, #12]
C:\Users\kruci_000\Desktop\University\SoC\Marsfinder\Marsfinder\Marsfinder_FW\Debug/../drivers/CoreI2C/core_i2c.c:917
            }
            break;
    198e:	e1e3      	b.n	1d58 <I2C_isr+0x938>
    1990:	e1e2      	b.n	1d58 <I2C_isr+0x938>
C:\Users\kruci_000\Desktop\University\SoC\Marsfinder\Marsfinder\Marsfinder_FW\Debug/../drivers/CoreI2C/core_i2c.c:920

        case ST_SLAR_NACK: /* SLA+R tx'ed; let's release the bus (send a stop condition) */
            HAL_set_8bit_reg_field(this_i2c->base_address, STO, 0x01u);
    1992:	687b      	ldr	r3, [r7, #4]
    1994:	681b      	ldr	r3, [r3, #0]
    1996:	4618      	mov	r0, r3
    1998:	2104      	movs	r1, #4
    199a:	2210      	movs	r2, #16
    199c:	2301      	movs	r3, #1
    199e:	f7fe fe50 	bl	642 <HW_set_8bit_reg_field>
C:\Users\kruci_000\Desktop\University\SoC\Marsfinder\Marsfinder\Marsfinder_FW\Debug/../drivers/CoreI2C/core_i2c.c:921
            this_i2c->master_status = I2C_FAILED;
    19a2:	687b      	ldr	r3, [r7, #4]
    19a4:	2202      	movs	r2, #2
    19a6:	f883 2034 	strb.w	r2, [r3, #52]	; 0x34
C:\Users\kruci_000\Desktop\University\SoC\Marsfinder\Marsfinder\Marsfinder_FW\Debug/../drivers/CoreI2C/core_i2c.c:927

            /*
             * Set the transaction back to NO_TRANSACTION to allow user to do further
             * transaction
             */
            this_i2c->transaction = NO_TRANSACTION;
    19aa:	687b      	ldr	r3, [r7, #4]
    19ac:	2200      	movs	r2, #0
    19ae:	731a      	strb	r2, [r3, #12]
C:\Users\kruci_000\Desktop\University\SoC\Marsfinder\Marsfinder\Marsfinder_FW\Debug/../drivers/CoreI2C/core_i2c.c:928
            enable_slave_if_required(this_i2c);
    19b0:	6878      	ldr	r0, [r7, #4]
    19b2:	f7ff fd21 	bl	13f8 <enable_slave_if_required>
C:\Users\kruci_000\Desktop\University\SoC\Marsfinder\Marsfinder\Marsfinder_FW\Debug/../drivers/CoreI2C/core_i2c.c:929
            break;
    19b6:	e1cf      	b.n	1d58 <I2C_isr+0x938>
C:\Users\kruci_000\Desktop\University\SoC\Marsfinder\Marsfinder\Marsfinder_FW\Debug/../drivers/CoreI2C/core_i2c.c:933

        case ST_RX_DATA_ACK: /* Data byte received, ACK returned */
            /* First, get the data */
            this_i2c->master_rx_buffer[this_i2c->master_rx_idx++] = HAL_get_8bit_reg(this_i2c->base_address, DATA);
    19b8:	687b      	ldr	r3, [r7, #4]
    19ba:	6a9a      	ldr	r2, [r3, #40]	; 0x28
    19bc:	687b      	ldr	r3, [r7, #4]
    19be:	6b1b      	ldr	r3, [r3, #48]	; 0x30
    19c0:	1c58      	adds	r0, r3, #1
    19c2:	6879      	ldr	r1, [r7, #4]
    19c4:	6308      	str	r0, [r1, #48]	; 0x30
    19c6:	18d4      	adds	r4, r2, r3
    19c8:	687b      	ldr	r3, [r7, #4]
    19ca:	681b      	ldr	r3, [r3, #0]
    19cc:	3308      	adds	r3, #8
    19ce:	4618      	mov	r0, r3
    19d0:	f7fe fe35 	bl	63e <HW_get_8bit_reg>
    19d4:	4603      	mov	r3, r0
    19d6:	7023      	strb	r3, [r4, #0]
C:\Users\kruci_000\Desktop\University\SoC\Marsfinder\Marsfinder\Marsfinder_FW\Debug/../drivers/CoreI2C/core_i2c.c:934
            if( this_i2c->master_rx_idx >= (this_i2c->master_rx_size - 1u))
    19d8:	687b      	ldr	r3, [r7, #4]
    19da:	6b1a      	ldr	r2, [r3, #48]	; 0x30
    19dc:	687b      	ldr	r3, [r7, #4]
    19de:	6adb      	ldr	r3, [r3, #44]	; 0x2c
    19e0:	3b01      	subs	r3, #1
    19e2:	429a      	cmp	r2, r3
    19e4:	d308      	bcc.n	19f8 <I2C_isr+0x5d8>
C:\Users\kruci_000\Desktop\University\SoC\Marsfinder\Marsfinder\Marsfinder_FW\Debug/../drivers/CoreI2C/core_i2c.c:938
            {
                /* If we're at the second last byte, let's set AA to 0 so
                 * we return a NACK at the last byte. */
                HAL_set_8bit_reg_field(this_i2c->base_address, AA, 0x00u);
    19e6:	687b      	ldr	r3, [r7, #4]
    19e8:	681b      	ldr	r3, [r3, #0]
    19ea:	4618      	mov	r0, r3
    19ec:	2102      	movs	r1, #2
    19ee:	2204      	movs	r2, #4
    19f0:	2300      	movs	r3, #0
    19f2:	f7fe fe26 	bl	642 <HW_set_8bit_reg_field>
C:\Users\kruci_000\Desktop\University\SoC\Marsfinder\Marsfinder\Marsfinder_FW\Debug/../drivers/CoreI2C/core_i2c.c:940
            }
            break;
    19f6:	e1af      	b.n	1d58 <I2C_isr+0x938>
    19f8:	e1ae      	b.n	1d58 <I2C_isr+0x938>
C:\Users\kruci_000\Desktop\University\SoC\Marsfinder\Marsfinder\Marsfinder_FW\Debug/../drivers/CoreI2C/core_i2c.c:944

        case ST_RX_DATA_NACK: /* Data byte received, NACK returned */
            /* Get the data, then send a stop condition */
            this_i2c->master_rx_buffer[this_i2c->master_rx_idx] = HAL_get_8bit_reg(this_i2c->base_address, DATA);
    19fa:	687b      	ldr	r3, [r7, #4]
    19fc:	6a9a      	ldr	r2, [r3, #40]	; 0x28
    19fe:	687b      	ldr	r3, [r7, #4]
    1a00:	6b1b      	ldr	r3, [r3, #48]	; 0x30
    1a02:	18d4      	adds	r4, r2, r3
    1a04:	687b      	ldr	r3, [r7, #4]
    1a06:	681b      	ldr	r3, [r3, #0]
    1a08:	3308      	adds	r3, #8
    1a0a:	4618      	mov	r0, r3
    1a0c:	f7fe fe17 	bl	63e <HW_get_8bit_reg>
    1a10:	4603      	mov	r3, r0
    1a12:	7023      	strb	r3, [r4, #0]
C:\Users\kruci_000\Desktop\University\SoC\Marsfinder\Marsfinder\Marsfinder_FW\Debug/../drivers/CoreI2C/core_i2c.c:946

            hold_bus = this_i2c->options & I2C_HOLD_BUS;
    1a14:	687b      	ldr	r3, [r7, #4]
    1a16:	7d1b      	ldrb	r3, [r3, #20]
    1a18:	f003 0301 	and.w	r3, r3, #1
    1a1c:	73bb      	strb	r3, [r7, #14]
C:\Users\kruci_000\Desktop\University\SoC\Marsfinder\Marsfinder\Marsfinder_FW\Debug/../drivers/CoreI2C/core_i2c.c:949

            /* Store the information of current I2C bus status in the bus_status*/
            this_i2c->bus_status  = hold_bus;
    1a1e:	687b      	ldr	r3, [r7, #4]
    1a20:	7bba      	ldrb	r2, [r7, #14]
    1a22:	f883 2068 	strb.w	r2, [r3, #104]	; 0x68
C:\Users\kruci_000\Desktop\University\SoC\Marsfinder\Marsfinder\Marsfinder_FW\Debug/../drivers/CoreI2C/core_i2c.c:950
            if ( hold_bus == 0u )
    1a26:	7bbb      	ldrb	r3, [r7, #14]
    1a28:	2b00      	cmp	r3, #0
    1a2a:	d10b      	bne.n	1a44 <I2C_isr+0x624>
C:\Users\kruci_000\Desktop\University\SoC\Marsfinder\Marsfinder\Marsfinder_FW\Debug/../drivers/CoreI2C/core_i2c.c:952
            {
                HAL_set_8bit_reg_field(this_i2c->base_address, STO, 0x01u);  /*xmt stop condition */
    1a2c:	687b      	ldr	r3, [r7, #4]
    1a2e:	681b      	ldr	r3, [r3, #0]
    1a30:	4618      	mov	r0, r3
    1a32:	2104      	movs	r1, #4
    1a34:	2210      	movs	r2, #16
    1a36:	2301      	movs	r3, #1
    1a38:	f7fe fe03 	bl	642 <HW_set_8bit_reg_field>
C:\Users\kruci_000\Desktop\University\SoC\Marsfinder\Marsfinder\Marsfinder_FW\Debug/../drivers/CoreI2C/core_i2c.c:955

                /* Bus is released, now we can start listening to bus, if it is slave */
                   enable_slave_if_required(this_i2c);
    1a3c:	6878      	ldr	r0, [r7, #4]
    1a3e:	f7ff fcdb 	bl	13f8 <enable_slave_if_required>
    1a42:	e004      	b.n	1a4e <I2C_isr+0x62e>
C:\Users\kruci_000\Desktop\University\SoC\Marsfinder\Marsfinder\Marsfinder_FW\Debug/../drivers/CoreI2C/core_i2c.c:959
            }
            else
            {
                I2C_disable_irq( this_i2c );
    1a44:	6878      	ldr	r0, [r7, #4]
    1a46:	f000 f9d9 	bl	1dfc <I2C_disable_irq>
C:\Users\kruci_000\Desktop\University\SoC\Marsfinder\Marsfinder\Marsfinder_FW\Debug/../drivers/CoreI2C/core_i2c.c:960
                clear_irq = 0u;
    1a4a:	2300      	movs	r3, #0
    1a4c:	73fb      	strb	r3, [r7, #15]
C:\Users\kruci_000\Desktop\University\SoC\Marsfinder\Marsfinder\Marsfinder_FW\Debug/../drivers/CoreI2C/core_i2c.c:966
            }
            /*
             * Set the transaction back to NO_TRANSACTION to allow user to do further
             * transaction
             */
            this_i2c->transaction = NO_TRANSACTION;
    1a4e:	687b      	ldr	r3, [r7, #4]
    1a50:	2200      	movs	r2, #0
    1a52:	731a      	strb	r2, [r3, #12]
C:\Users\kruci_000\Desktop\University\SoC\Marsfinder\Marsfinder\Marsfinder_FW\Debug/../drivers/CoreI2C/core_i2c.c:967
            this_i2c->master_status = I2C_SUCCESS;
    1a54:	687b      	ldr	r3, [r7, #4]
    1a56:	2200      	movs	r2, #0
    1a58:	f883 2034 	strb.w	r2, [r3, #52]	; 0x34
C:\Users\kruci_000\Desktop\University\SoC\Marsfinder\Marsfinder\Marsfinder_FW\Debug/../drivers/CoreI2C/core_i2c.c:968
            break;
    1a5c:	e17c      	b.n	1d58 <I2C_isr+0x938>
C:\Users\kruci_000\Desktop\University\SoC\Marsfinder\Marsfinder\Marsfinder_FW\Debug/../drivers/CoreI2C/core_i2c.c:973

        /******************** SLAVE RECEIVER **************************/
        case ST_GCA_NACK: /* NACK after, GCA addressing */
        case ST_SLA_NACK: /* Re-enable AA (assert ack) bit for future transmissions */
            HAL_set_8bit_reg_field(this_i2c->base_address, AA, 0x01u);
    1a5e:	687b      	ldr	r3, [r7, #4]
    1a60:	681b      	ldr	r3, [r3, #0]
    1a62:	4618      	mov	r0, r3
    1a64:	2102      	movs	r1, #2
    1a66:	2204      	movs	r2, #4
    1a68:	2301      	movs	r3, #1
    1a6a:	f7fe fdea 	bl	642 <HW_set_8bit_reg_field>
C:\Users\kruci_000\Desktop\University\SoC\Marsfinder\Marsfinder\Marsfinder_FW\Debug/../drivers/CoreI2C/core_i2c.c:975

            this_i2c->transaction = NO_TRANSACTION;
    1a6e:	687b      	ldr	r3, [r7, #4]
    1a70:	2200      	movs	r2, #0
    1a72:	731a      	strb	r2, [r3, #12]
C:\Users\kruci_000\Desktop\University\SoC\Marsfinder\Marsfinder\Marsfinder_FW\Debug/../drivers/CoreI2C/core_i2c.c:976
            this_i2c->slave_status = I2C_SUCCESS;
    1a74:	687b      	ldr	r3, [r7, #4]
    1a76:	2200      	movs	r2, #0
    1a78:	f883 2054 	strb.w	r2, [r3, #84]	; 0x54
C:\Users\kruci_000\Desktop\University\SoC\Marsfinder\Marsfinder\Marsfinder_FW\Debug/../drivers/CoreI2C/core_i2c.c:979

            /* Check if transaction was pending. If yes, set the START bit */
            if(this_i2c->is_transaction_pending)
    1a7c:	687b      	ldr	r3, [r7, #4]
    1a7e:	f893 3069 	ldrb.w	r3, [r3, #105]	; 0x69
    1a82:	2b00      	cmp	r3, #0
    1a84:	d008      	beq.n	1a98 <I2C_isr+0x678>
C:\Users\kruci_000\Desktop\University\SoC\Marsfinder\Marsfinder\Marsfinder_FW\Debug/../drivers/CoreI2C/core_i2c.c:981
            {
                HAL_set_8bit_reg_field(this_i2c->base_address, STA, 0x01u);
    1a86:	687b      	ldr	r3, [r7, #4]
    1a88:	681b      	ldr	r3, [r3, #0]
    1a8a:	4618      	mov	r0, r3
    1a8c:	2105      	movs	r1, #5
    1a8e:	2220      	movs	r2, #32
    1a90:	2301      	movs	r3, #1
    1a92:	f7fe fdd6 	bl	642 <HW_set_8bit_reg_field>
C:\Users\kruci_000\Desktop\University\SoC\Marsfinder\Marsfinder\Marsfinder_FW\Debug/../drivers/CoreI2C/core_i2c.c:983
            }
            break;
    1a96:	e15f      	b.n	1d58 <I2C_isr+0x938>
    1a98:	e15e      	b.n	1d58 <I2C_isr+0x938>
C:\Users\kruci_000\Desktop\University\SoC\Marsfinder\Marsfinder\Marsfinder_FW\Debug/../drivers/CoreI2C/core_i2c.c:991
        case ST_SLV_LA: /* Arbitr. lost (SLA rec'd) */
            /*
             *  We lost arbitration and either the GCE or our address was the
             *  one received so pend the master operation we were starting.
             */
            this_i2c->is_transaction_pending = 1u;
    1a9a:	687b      	ldr	r3, [r7, #4]
    1a9c:	2201      	movs	r2, #1
    1a9e:	f883 2069 	strb.w	r2, [r3, #105]	; 0x69
C:\Users\kruci_000\Desktop\University\SoC\Marsfinder\Marsfinder\Marsfinder_FW\Debug/../drivers/CoreI2C/core_i2c.c:996
            /* Fall through to normal ST processing as we are now in slave mode */

        case ST_GCA: /* General call address received, ACK returned */
        case ST_SLAVE_SLAW: /* SLA+W received, ACK returned */
            this_i2c->transaction = WRITE_SLAVE_TRANSACTION;
    1aa2:	687b      	ldr	r3, [r7, #4]
    1aa4:	2204      	movs	r2, #4
    1aa6:	731a      	strb	r2, [r3, #12]
C:\Users\kruci_000\Desktop\University\SoC\Marsfinder\Marsfinder\Marsfinder_FW\Debug/../drivers/CoreI2C/core_i2c.c:997
            this_i2c->slave_rx_idx = 0u;
    1aa8:	687b      	ldr	r3, [r7, #4]
    1aaa:	2200      	movs	r2, #0
    1aac:	651a      	str	r2, [r3, #80]	; 0x50
C:\Users\kruci_000\Desktop\University\SoC\Marsfinder\Marsfinder\Marsfinder_FW\Debug/../drivers/CoreI2C/core_i2c.c:998
            this_i2c->random_read_addr = 0u;
    1aae:	687b      	ldr	r3, [r7, #4]
    1ab0:	2200      	movs	r2, #0
    1ab2:	611a      	str	r2, [r3, #16]
C:\Users\kruci_000\Desktop\University\SoC\Marsfinder\Marsfinder\Marsfinder_FW\Debug/../drivers/CoreI2C/core_i2c.c:1003
            /*
             * If Start Bit is set clear it, but store that information since it is because of
             * pending transaction
             */
            if(HAL_get_8bit_reg_field(this_i2c->base_address, STA))
    1ab4:	687b      	ldr	r3, [r7, #4]
    1ab6:	681b      	ldr	r3, [r3, #0]
    1ab8:	4618      	mov	r0, r3
    1aba:	2105      	movs	r1, #5
    1abc:	2220      	movs	r2, #32
    1abe:	f7fe fdce 	bl	65e <HW_get_8bit_reg_field>
    1ac2:	4603      	mov	r3, r0
    1ac4:	2b00      	cmp	r3, #0
    1ac6:	d00b      	beq.n	1ae0 <I2C_isr+0x6c0>
C:\Users\kruci_000\Desktop\University\SoC\Marsfinder\Marsfinder\Marsfinder_FW\Debug/../drivers/CoreI2C/core_i2c.c:1005
            {
                HAL_set_8bit_reg_field(this_i2c->base_address, STA, 0x00u);
    1ac8:	687b      	ldr	r3, [r7, #4]
    1aca:	681b      	ldr	r3, [r3, #0]
    1acc:	4618      	mov	r0, r3
    1ace:	2105      	movs	r1, #5
    1ad0:	2220      	movs	r2, #32
    1ad2:	2300      	movs	r3, #0
    1ad4:	f7fe fdb5 	bl	642 <HW_set_8bit_reg_field>
C:\Users\kruci_000\Desktop\University\SoC\Marsfinder\Marsfinder\Marsfinder_FW\Debug/../drivers/CoreI2C/core_i2c.c:1006
                this_i2c->is_transaction_pending = 1u;
    1ad8:	687b      	ldr	r3, [r7, #4]
    1ada:	2201      	movs	r2, #1
    1adc:	f883 2069 	strb.w	r2, [r3, #105]	; 0x69
C:\Users\kruci_000\Desktop\University\SoC\Marsfinder\Marsfinder\Marsfinder_FW\Debug/../drivers/CoreI2C/core_i2c.c:1008
            }
            this_i2c->slave_status = I2C_IN_PROGRESS;
    1ae0:	687b      	ldr	r3, [r7, #4]
    1ae2:	2201      	movs	r2, #1
    1ae4:	f883 2054 	strb.w	r2, [r3, #84]	; 0x54
C:\Users\kruci_000\Desktop\University\SoC\Marsfinder\Marsfinder\Marsfinder_FW\Debug/../drivers/CoreI2C/core_i2c.c:1014
#ifdef INCLUDE_SLA_IN_RX_PAYLOAD
            /* Fall through to put address as first byte in payload buffer */
#else
            /* Only break from this case if the slave address must NOT be included at the
             * beginning of the received write data. */
            break;
    1ae8:	e136      	b.n	1d58 <I2C_isr+0x938>
C:\Users\kruci_000\Desktop\University\SoC\Marsfinder\Marsfinder\Marsfinder_FW\Debug/../drivers/CoreI2C/core_i2c.c:1018
#endif
        case ST_GCA_ACK: /* DATA received; ACK sent after GCA */
        case ST_RDATA: /* DATA received; must clear DATA register */
            if((this_i2c->slave_rx_buffer != (uint8_t *)0)
    1aea:	687b      	ldr	r3, [r7, #4]
    1aec:	6c9b      	ldr	r3, [r3, #72]	; 0x48
    1aee:	2b00      	cmp	r3, #0
    1af0:	d01e      	beq.n	1b30 <I2C_isr+0x710>
C:\Users\kruci_000\Desktop\University\SoC\Marsfinder\Marsfinder\Marsfinder_FW\Debug/../drivers/CoreI2C/core_i2c.c:1019
               && (this_i2c->slave_rx_idx < this_i2c->slave_rx_size))
    1af2:	687b      	ldr	r3, [r7, #4]
    1af4:	6d1a      	ldr	r2, [r3, #80]	; 0x50
    1af6:	687b      	ldr	r3, [r7, #4]
    1af8:	6cdb      	ldr	r3, [r3, #76]	; 0x4c
    1afa:	429a      	cmp	r2, r3
    1afc:	d218      	bcs.n	1b30 <I2C_isr+0x710>
C:\Users\kruci_000\Desktop\University\SoC\Marsfinder\Marsfinder\Marsfinder_FW\Debug/../drivers/CoreI2C/core_i2c.c:1021
            {
                data = HAL_get_8bit_reg(this_i2c->base_address, DATA);
    1afe:	687b      	ldr	r3, [r7, #4]
    1b00:	681b      	ldr	r3, [r3, #0]
    1b02:	3308      	adds	r3, #8
    1b04:	4618      	mov	r0, r3
    1b06:	f7fe fd9a 	bl	63e <HW_get_8bit_reg>
    1b0a:	4603      	mov	r3, r0
    1b0c:	737b      	strb	r3, [r7, #13]
C:\Users\kruci_000\Desktop\University\SoC\Marsfinder\Marsfinder\Marsfinder_FW\Debug/../drivers/CoreI2C/core_i2c.c:1022
                this_i2c->slave_rx_buffer[this_i2c->slave_rx_idx++] = data;
    1b0e:	687b      	ldr	r3, [r7, #4]
    1b10:	6c9a      	ldr	r2, [r3, #72]	; 0x48
    1b12:	687b      	ldr	r3, [r7, #4]
    1b14:	6d1b      	ldr	r3, [r3, #80]	; 0x50
    1b16:	1c58      	adds	r0, r3, #1
    1b18:	6879      	ldr	r1, [r7, #4]
    1b1a:	6508      	str	r0, [r1, #80]	; 0x50
    1b1c:	4413      	add	r3, r2
    1b1e:	7b7a      	ldrb	r2, [r7, #13]
    1b20:	701a      	strb	r2, [r3, #0]
C:\Users\kruci_000\Desktop\University\SoC\Marsfinder\Marsfinder\Marsfinder_FW\Debug/../drivers/CoreI2C/core_i2c.c:1031
                {
                    /* Ignore the slave address byte in the random read address
                       computation in the case where INCLUDE_SLA_IN_RX_PAYLOAD
                       is defined. */
#endif
                    this_i2c->random_read_addr = (this_i2c->random_read_addr << 8) + data;
    1b22:	687b      	ldr	r3, [r7, #4]
    1b24:	691b      	ldr	r3, [r3, #16]
    1b26:	021a      	lsls	r2, r3, #8
    1b28:	7b7b      	ldrb	r3, [r7, #13]
    1b2a:	441a      	add	r2, r3
    1b2c:	687b      	ldr	r3, [r7, #4]
    1b2e:	611a      	str	r2, [r3, #16]
C:\Users\kruci_000\Desktop\University\SoC\Marsfinder\Marsfinder\Marsfinder_FW\Debug/../drivers/CoreI2C/core_i2c.c:1037
#ifdef INCLUDE_SLA_IN_RX_PAYLOAD
                }
#endif
            }

            if(this_i2c->slave_rx_idx >= this_i2c->slave_rx_size)
    1b30:	687b      	ldr	r3, [r7, #4]
    1b32:	6d1a      	ldr	r2, [r3, #80]	; 0x50
    1b34:	687b      	ldr	r3, [r7, #4]
    1b36:	6cdb      	ldr	r3, [r3, #76]	; 0x4c
    1b38:	429a      	cmp	r2, r3
    1b3a:	d308      	bcc.n	1b4e <I2C_isr+0x72e>
C:\Users\kruci_000\Desktop\University\SoC\Marsfinder\Marsfinder\Marsfinder_FW\Debug/../drivers/CoreI2C/core_i2c.c:1040
            {
                /* Rx buffer is full. NACK next received byte. */
                HAL_set_8bit_reg_field(this_i2c->base_address, AA, 0x00u);
    1b3c:	687b      	ldr	r3, [r7, #4]
    1b3e:	681b      	ldr	r3, [r3, #0]
    1b40:	4618      	mov	r0, r3
    1b42:	2102      	movs	r1, #2
    1b44:	2204      	movs	r2, #4
    1b46:	2300      	movs	r3, #0
    1b48:	f7fe fd7b 	bl	642 <HW_set_8bit_reg_field>
C:\Users\kruci_000\Desktop\University\SoC\Marsfinder\Marsfinder\Marsfinder_FW\Debug/../drivers/CoreI2C/core_i2c.c:1042
            }
            break;
    1b4c:	e104      	b.n	1d58 <I2C_isr+0x938>
    1b4e:	e103      	b.n	1d58 <I2C_isr+0x938>
C:\Users\kruci_000\Desktop\University\SoC\Marsfinder\Marsfinder\Marsfinder_FW\Debug/../drivers/CoreI2C/core_i2c.c:1050
            /* STOP or repeated START occurred. */
            /* We cannot be sure if the transaction has actually completed as
             * this hardware state reports that either a STOP or repeated START
             * condition has occurred. We assume that this is a repeated START
             * if the transaction was a write from the master to this point.*/
            if ( this_i2c->transaction == WRITE_SLAVE_TRANSACTION )
    1b50:	687b      	ldr	r3, [r7, #4]
    1b52:	7b1b      	ldrb	r3, [r3, #12]
    1b54:	2b04      	cmp	r3, #4
    1b56:	d135      	bne.n	1bc4 <I2C_isr+0x7a4>
C:\Users\kruci_000\Desktop\University\SoC\Marsfinder\Marsfinder\Marsfinder_FW\Debug/../drivers/CoreI2C/core_i2c.c:1052
            {
                if ( this_i2c->slave_rx_idx == this_i2c->slave_mem_offset_length )
    1b58:	687b      	ldr	r3, [r7, #4]
    1b5a:	6d1a      	ldr	r2, [r3, #80]	; 0x50
    1b5c:	687b      	ldr	r3, [r7, #4]
    1b5e:	6d9b      	ldr	r3, [r3, #88]	; 0x58
    1b60:	429a      	cmp	r2, r3
    1b62:	d103      	bne.n	1b6c <I2C_isr+0x74c>
C:\Users\kruci_000\Desktop\University\SoC\Marsfinder\Marsfinder\Marsfinder_FW\Debug/../drivers/CoreI2C/core_i2c.c:1054
                {
                    this_i2c->slave_tx_idx = this_i2c->random_read_addr;
    1b64:	687b      	ldr	r3, [r7, #4]
    1b66:	691a      	ldr	r2, [r3, #16]
    1b68:	687b      	ldr	r3, [r7, #4]
    1b6a:	645a      	str	r2, [r3, #68]	; 0x44
C:\Users\kruci_000\Desktop\University\SoC\Marsfinder\Marsfinder\Marsfinder_FW\Debug/../drivers/CoreI2C/core_i2c.c:1057
                }
                /* Call the slave's write transaction handler if it exists. */
                if ( this_i2c->slave_write_handler != 0u )
    1b6c:	687b      	ldr	r3, [r7, #4]
    1b6e:	6ddb      	ldr	r3, [r3, #92]	; 0x5c
    1b70:	2b00      	cmp	r3, #0
    1b72:	d01e      	beq.n	1bb2 <I2C_isr+0x792>
C:\Users\kruci_000\Desktop\University\SoC\Marsfinder\Marsfinder\Marsfinder_FW\Debug/../drivers/CoreI2C/core_i2c.c:1060
                {
                    i2c_slave_handler_ret_t h_ret;
                    h_ret = this_i2c->slave_write_handler( this_i2c, this_i2c->slave_rx_buffer, (uint16_t)this_i2c->slave_rx_idx );
    1b74:	687b      	ldr	r3, [r7, #4]
    1b76:	6ddb      	ldr	r3, [r3, #92]	; 0x5c
    1b78:	687a      	ldr	r2, [r7, #4]
    1b7a:	6c91      	ldr	r1, [r2, #72]	; 0x48
    1b7c:	687a      	ldr	r2, [r7, #4]
    1b7e:	6d12      	ldr	r2, [r2, #80]	; 0x50
    1b80:	b292      	uxth	r2, r2
    1b82:	6878      	ldr	r0, [r7, #4]
    1b84:	4798      	blx	r3
    1b86:	4603      	mov	r3, r0
    1b88:	733b      	strb	r3, [r7, #12]
C:\Users\kruci_000\Desktop\University\SoC\Marsfinder\Marsfinder\Marsfinder_FW\Debug/../drivers/CoreI2C/core_i2c.c:1061
                    if ( I2C_REENABLE_SLAVE_RX == h_ret )
    1b8a:	7b3b      	ldrb	r3, [r7, #12]
    1b8c:	2b00      	cmp	r3, #0
    1b8e:	d103      	bne.n	1b98 <I2C_isr+0x778>
C:\Users\kruci_000\Desktop\University\SoC\Marsfinder\Marsfinder\Marsfinder_FW\Debug/../drivers/CoreI2C/core_i2c.c:1067
                    {
                        /* There is a small risk that the write handler could
                         * call I2C_disable_slave() but return
                         * I2C_REENABLE_SLAVE_RX in error so we only enable
                         * ACKs if still in slave mode. */
                         enable_slave_if_required(this_i2c);
    1b90:	6878      	ldr	r0, [r7, #4]
    1b92:	f7ff fc31 	bl	13f8 <enable_slave_if_required>
    1b96:	e01b      	b.n	1bd0 <I2C_isr+0x7b0>
C:\Users\kruci_000\Desktop\University\SoC\Marsfinder\Marsfinder\Marsfinder_FW\Debug/../drivers/CoreI2C/core_i2c.c:1071
                    }
                    else
                    {
                        HAL_set_8bit_reg_field( this_i2c->base_address, AA, 0x0u );
    1b98:	687b      	ldr	r3, [r7, #4]
    1b9a:	681b      	ldr	r3, [r3, #0]
    1b9c:	4618      	mov	r0, r3
    1b9e:	2102      	movs	r1, #2
    1ba0:	2204      	movs	r2, #4
    1ba2:	2300      	movs	r3, #0
    1ba4:	f7fe fd4d 	bl	642 <HW_set_8bit_reg_field>
C:\Users\kruci_000\Desktop\University\SoC\Marsfinder\Marsfinder\Marsfinder_FW\Debug/../drivers/CoreI2C/core_i2c.c:1075
                        /* Clear slave mode flag as well otherwise in mixed
                         * master/slave applications, the AA bit will get set by
                         * subsequent master operations. */
                        this_i2c->is_slave_enabled = 0u;
    1ba8:	687b      	ldr	r3, [r7, #4]
    1baa:	2200      	movs	r2, #0
    1bac:	f883 2060 	strb.w	r2, [r3, #96]	; 0x60
    1bb0:	e00e      	b.n	1bd0 <I2C_isr+0x7b0>
C:\Users\kruci_000\Desktop\University\SoC\Marsfinder\Marsfinder\Marsfinder_FW\Debug/../drivers/CoreI2C/core_i2c.c:1081
                    }
                }
                else
                {
                    /* Re-enable address acknowledge in case we were ready to nack the next received byte. */
                    HAL_set_8bit_reg_field( this_i2c->base_address, AA, 0x01u );
    1bb2:	687b      	ldr	r3, [r7, #4]
    1bb4:	681b      	ldr	r3, [r3, #0]
    1bb6:	4618      	mov	r0, r3
    1bb8:	2102      	movs	r1, #2
    1bba:	2204      	movs	r2, #4
    1bbc:	2301      	movs	r3, #1
    1bbe:	f7fe fd40 	bl	642 <HW_set_8bit_reg_field>
    1bc2:	e005      	b.n	1bd0 <I2C_isr+0x7b0>
C:\Users\kruci_000\Desktop\University\SoC\Marsfinder\Marsfinder\Marsfinder_FW\Debug/../drivers/CoreI2C/core_i2c.c:1090
            {
                /*
                 * Reset slave_tx_idx so that a subsequent read will result in the slave's
                 * transmit buffer being sent from the first byte.
                 */
                this_i2c->slave_tx_idx = 0u;
    1bc4:	687b      	ldr	r3, [r7, #4]
    1bc6:	2200      	movs	r2, #0
    1bc8:	645a      	str	r2, [r3, #68]	; 0x44
C:\Users\kruci_000\Desktop\University\SoC\Marsfinder\Marsfinder\Marsfinder_FW\Debug/../drivers/CoreI2C/core_i2c.c:1096
                /*
                 * See if we need to re-enable acknowledgement as some error conditions, such
                 * as a master prematurely ending a transfer, can see us get here with AA set
                 * to 0 which will disable slave operation if we are not careful.
                 */
                enable_slave_if_required(this_i2c);
    1bca:	6878      	ldr	r0, [r7, #4]
    1bcc:	f7ff fc14 	bl	13f8 <enable_slave_if_required>
C:\Users\kruci_000\Desktop\University\SoC\Marsfinder\Marsfinder\Marsfinder_FW\Debug/../drivers/CoreI2C/core_i2c.c:1100
            }

            /* Mark any previous master write transaction as complete. */
            this_i2c->slave_status = I2C_SUCCESS;
    1bd0:	687b      	ldr	r3, [r7, #4]
    1bd2:	2200      	movs	r2, #0
    1bd4:	f883 2054 	strb.w	r2, [r3, #84]	; 0x54
C:\Users\kruci_000\Desktop\University\SoC\Marsfinder\Marsfinder\Marsfinder_FW\Debug/../drivers/CoreI2C/core_i2c.c:1103

            /* Check if transaction was pending. If yes, set the START bit */
            if(this_i2c->is_transaction_pending)
    1bd8:	687b      	ldr	r3, [r7, #4]
    1bda:	f893 3069 	ldrb.w	r3, [r3, #105]	; 0x69
    1bde:	2b00      	cmp	r3, #0
    1be0:	d007      	beq.n	1bf2 <I2C_isr+0x7d2>
C:\Users\kruci_000\Desktop\University\SoC\Marsfinder\Marsfinder\Marsfinder_FW\Debug/../drivers/CoreI2C/core_i2c.c:1105
            {
                HAL_set_8bit_reg_field(this_i2c->base_address, STA, 0x01u);
    1be2:	687b      	ldr	r3, [r7, #4]
    1be4:	681b      	ldr	r3, [r3, #0]
    1be6:	4618      	mov	r0, r3
    1be8:	2105      	movs	r1, #5
    1bea:	2220      	movs	r2, #32
    1bec:	2301      	movs	r3, #1
    1bee:	f7fe fd28 	bl	642 <HW_set_8bit_reg_field>
C:\Users\kruci_000\Desktop\University\SoC\Marsfinder\Marsfinder\Marsfinder_FW\Debug/../drivers/CoreI2C/core_i2c.c:1112

            /*
             * Set the transaction back to NO_TRANSACTION to allow user to do further
             * transaction
             */
            this_i2c->transaction = NO_TRANSACTION;
    1bf2:	687b      	ldr	r3, [r7, #4]
    1bf4:	2200      	movs	r2, #0
    1bf6:	731a      	strb	r2, [r3, #12]
C:\Users\kruci_000\Desktop\University\SoC\Marsfinder\Marsfinder\Marsfinder_FW\Debug/../drivers/CoreI2C/core_i2c.c:1114

            break;
    1bf8:	e0ae      	b.n	1d58 <I2C_isr+0x938>
C:\Users\kruci_000\Desktop\University\SoC\Marsfinder\Marsfinder\Marsfinder_FW\Debug/../drivers/CoreI2C/core_i2c.c:1121
        case ST_SLV_RST: /* SMBUS ONLY: timeout state. must clear interrupt */
            /*
             * Set the transaction back to NO_TRANSACTION to allow user to do further
             * transaction.
             */
            this_i2c->transaction = NO_TRANSACTION;
    1bfa:	687b      	ldr	r3, [r7, #4]
    1bfc:	2200      	movs	r2, #0
    1bfe:	731a      	strb	r2, [r3, #12]
C:\Users\kruci_000\Desktop\University\SoC\Marsfinder\Marsfinder\Marsfinder_FW\Debug/../drivers/CoreI2C/core_i2c.c:1126
            /*
             * Reset slave_tx_idx so that a subsequent read will result in the slave's
             * transmit buffer being sent from the first byte.
             */
            this_i2c->slave_tx_idx = 0u;
    1c00:	687b      	ldr	r3, [r7, #4]
    1c02:	2200      	movs	r2, #0
    1c04:	645a      	str	r2, [r3, #68]	; 0x44
C:\Users\kruci_000\Desktop\University\SoC\Marsfinder\Marsfinder\Marsfinder_FW\Debug/../drivers/CoreI2C/core_i2c.c:1130
            /*
             * Clear status to I2C_FAILED only if there was an operation in progress.
             */
            if(I2C_IN_PROGRESS == this_i2c->slave_status)
    1c06:	687b      	ldr	r3, [r7, #4]
    1c08:	f893 3054 	ldrb.w	r3, [r3, #84]	; 0x54
    1c0c:	b2db      	uxtb	r3, r3
    1c0e:	2b01      	cmp	r3, #1
    1c10:	d103      	bne.n	1c1a <I2C_isr+0x7fa>
C:\Users\kruci_000\Desktop\University\SoC\Marsfinder\Marsfinder\Marsfinder_FW\Debug/../drivers/CoreI2C/core_i2c.c:1132
            {
                this_i2c->slave_status = I2C_FAILED;
    1c12:	687b      	ldr	r3, [r7, #4]
    1c14:	2202      	movs	r2, #2
    1c16:	f883 2054 	strb.w	r2, [r3, #84]	; 0x54
C:\Users\kruci_000\Desktop\University\SoC\Marsfinder\Marsfinder\Marsfinder_FW\Debug/../drivers/CoreI2C/core_i2c.c:1135
            }

            enable_slave_if_required(this_i2c); /* Make sure AA is set correctly */
    1c1a:	6878      	ldr	r0, [r7, #4]
    1c1c:	f7ff fbec 	bl	13f8 <enable_slave_if_required>
C:\Users\kruci_000\Desktop\University\SoC\Marsfinder\Marsfinder\Marsfinder_FW\Debug/../drivers/CoreI2C/core_i2c.c:1137

            break;
    1c20:	e09a      	b.n	1d58 <I2C_isr+0x938>
C:\Users\kruci_000\Desktop\University\SoC\Marsfinder\Marsfinder\Marsfinder_FW\Debug/../drivers/CoreI2C/core_i2c.c:1143

        /****************** SLAVE TRANSMITTER **************************/
        case ST_SLAVE_SLAR_ACK: /* SLA+R received, ACK returned */
        case ST_SLARW_LA:       /* Arbitration lost, and: */
        case ST_RACK:           /* Data tx'ed, ACK received */
            if ( status == ST_SLAVE_SLAR_ACK )
    1c22:	7afb      	ldrb	r3, [r7, #11]
    1c24:	b2db      	uxtb	r3, r3
    1c26:	2ba8      	cmp	r3, #168	; 0xa8
    1c28:	d11f      	bne.n	1c6a <I2C_isr+0x84a>
C:\Users\kruci_000\Desktop\University\SoC\Marsfinder\Marsfinder\Marsfinder_FW\Debug/../drivers/CoreI2C/core_i2c.c:1145
            {
                this_i2c->transaction = READ_SLAVE_TRANSACTION;
    1c2a:	687b      	ldr	r3, [r7, #4]
    1c2c:	2205      	movs	r2, #5
    1c2e:	731a      	strb	r2, [r3, #12]
C:\Users\kruci_000\Desktop\University\SoC\Marsfinder\Marsfinder\Marsfinder_FW\Debug/../drivers/CoreI2C/core_i2c.c:1146
                this_i2c->random_read_addr = 0u;
    1c30:	687b      	ldr	r3, [r7, #4]
    1c32:	2200      	movs	r2, #0
    1c34:	611a      	str	r2, [r3, #16]
C:\Users\kruci_000\Desktop\University\SoC\Marsfinder\Marsfinder\Marsfinder_FW\Debug/../drivers/CoreI2C/core_i2c.c:1147
                this_i2c->slave_status = I2C_IN_PROGRESS;
    1c36:	687b      	ldr	r3, [r7, #4]
    1c38:	2201      	movs	r2, #1
    1c3a:	f883 2054 	strb.w	r2, [r3, #84]	; 0x54
C:\Users\kruci_000\Desktop\University\SoC\Marsfinder\Marsfinder\Marsfinder_FW\Debug/../drivers/CoreI2C/core_i2c.c:1151
                /* If Start Bit is set clear it, but store that information since it is because of
                 * pending transaction
                 */
                if(HAL_get_8bit_reg_field(this_i2c->base_address, STA))
    1c3e:	687b      	ldr	r3, [r7, #4]
    1c40:	681b      	ldr	r3, [r3, #0]
    1c42:	4618      	mov	r0, r3
    1c44:	2105      	movs	r1, #5
    1c46:	2220      	movs	r2, #32
    1c48:	f7fe fd09 	bl	65e <HW_get_8bit_reg_field>
    1c4c:	4603      	mov	r3, r0
    1c4e:	2b00      	cmp	r3, #0
    1c50:	d00b      	beq.n	1c6a <I2C_isr+0x84a>
C:\Users\kruci_000\Desktop\University\SoC\Marsfinder\Marsfinder\Marsfinder_FW\Debug/../drivers/CoreI2C/core_i2c.c:1153
                {
                    HAL_set_8bit_reg_field(this_i2c->base_address, STA, 0x00u);
    1c52:	687b      	ldr	r3, [r7, #4]
    1c54:	681b      	ldr	r3, [r3, #0]
    1c56:	4618      	mov	r0, r3
    1c58:	2105      	movs	r1, #5
    1c5a:	2220      	movs	r2, #32
    1c5c:	2300      	movs	r3, #0
    1c5e:	f7fe fcf0 	bl	642 <HW_set_8bit_reg_field>
C:\Users\kruci_000\Desktop\University\SoC\Marsfinder\Marsfinder\Marsfinder_FW\Debug/../drivers/CoreI2C/core_i2c.c:1154
                    this_i2c->is_transaction_pending = 1u;
    1c62:	687b      	ldr	r3, [r7, #4]
    1c64:	2201      	movs	r2, #1
    1c66:	f883 2069 	strb.w	r2, [r3, #105]	; 0x69
C:\Users\kruci_000\Desktop\University\SoC\Marsfinder\Marsfinder\Marsfinder_FW\Debug/../drivers/CoreI2C/core_i2c.c:1157
                 }
            }
            if (this_i2c->slave_tx_idx >= this_i2c->slave_tx_size)
    1c6a:	687b      	ldr	r3, [r7, #4]
    1c6c:	6c5a      	ldr	r2, [r3, #68]	; 0x44
    1c6e:	687b      	ldr	r3, [r7, #4]
    1c70:	6c1b      	ldr	r3, [r3, #64]	; 0x40
    1c72:	429a      	cmp	r2, r3
    1c74:	d307      	bcc.n	1c86 <I2C_isr+0x866>
C:\Users\kruci_000\Desktop\University\SoC\Marsfinder\Marsfinder\Marsfinder_FW\Debug/../drivers/CoreI2C/core_i2c.c:1161
            {
                /* Ensure 0xFF is returned to the master when the slave specifies
                 * an empty transmit buffer. */
                HAL_set_8bit_reg(this_i2c->base_address, DATA, 0xFFu);
    1c76:	687b      	ldr	r3, [r7, #4]
    1c78:	681b      	ldr	r3, [r3, #0]
    1c7a:	3308      	adds	r3, #8
    1c7c:	4618      	mov	r0, r3
    1c7e:	21ff      	movs	r1, #255	; 0xff
    1c80:	f7fe fcdb 	bl	63a <HW_set_8bit_reg>
    1c84:	e010      	b.n	1ca8 <I2C_isr+0x888>
C:\Users\kruci_000\Desktop\University\SoC\Marsfinder\Marsfinder\Marsfinder_FW\Debug/../drivers/CoreI2C/core_i2c.c:1166
            }
            else
            {
                /* Load the data the data byte to be sent to the master. */
                HAL_set_8bit_reg(this_i2c->base_address, DATA, (uint_fast8_t)this_i2c->slave_tx_buffer[this_i2c->slave_tx_idx++]);
    1c86:	687b      	ldr	r3, [r7, #4]
    1c88:	681b      	ldr	r3, [r3, #0]
    1c8a:	f103 0408 	add.w	r4, r3, #8
    1c8e:	687b      	ldr	r3, [r7, #4]
    1c90:	6bda      	ldr	r2, [r3, #60]	; 0x3c
    1c92:	687b      	ldr	r3, [r7, #4]
    1c94:	6c5b      	ldr	r3, [r3, #68]	; 0x44
    1c96:	1c58      	adds	r0, r3, #1
    1c98:	6879      	ldr	r1, [r7, #4]
    1c9a:	6448      	str	r0, [r1, #68]	; 0x44
    1c9c:	4413      	add	r3, r2
    1c9e:	781b      	ldrb	r3, [r3, #0]
    1ca0:	4620      	mov	r0, r4
    1ca2:	4619      	mov	r1, r3
    1ca4:	f7fe fcc9 	bl	63a <HW_set_8bit_reg>
C:\Users\kruci_000\Desktop\University\SoC\Marsfinder\Marsfinder\Marsfinder_FW\Debug/../drivers/CoreI2C/core_i2c.c:1169
            }
            /* Determine if this is the last data byte to send to the master. */
            if (this_i2c->slave_tx_idx >= this_i2c->slave_tx_size) /* last byte? */
    1ca8:	687b      	ldr	r3, [r7, #4]
    1caa:	6c5a      	ldr	r2, [r3, #68]	; 0x44
    1cac:	687b      	ldr	r3, [r7, #4]
    1cae:	6c1b      	ldr	r3, [r3, #64]	; 0x40
    1cb0:	429a      	cmp	r2, r3
    1cb2:	d30b      	bcc.n	1ccc <I2C_isr+0x8ac>
C:\Users\kruci_000\Desktop\University\SoC\Marsfinder\Marsfinder\Marsfinder_FW\Debug/../drivers/CoreI2C/core_i2c.c:1171
            {
                 HAL_set_8bit_reg_field(this_i2c->base_address, AA, 0x00u);
    1cb4:	687b      	ldr	r3, [r7, #4]
    1cb6:	681b      	ldr	r3, [r3, #0]
    1cb8:	4618      	mov	r0, r3
    1cba:	2102      	movs	r1, #2
    1cbc:	2204      	movs	r2, #4
    1cbe:	2300      	movs	r3, #0
    1cc0:	f7fe fcbf 	bl	642 <HW_set_8bit_reg_field>
C:\Users\kruci_000\Desktop\University\SoC\Marsfinder\Marsfinder\Marsfinder_FW\Debug/../drivers/CoreI2C/core_i2c.c:1174
                /* Next read transaction will result in slave's transmit buffer
                 * being sent from the first byte. */
                this_i2c->slave_tx_idx = 0u;
    1cc4:	687b      	ldr	r3, [r7, #4]
    1cc6:	2200      	movs	r2, #0
    1cc8:	645a      	str	r2, [r3, #68]	; 0x44
C:\Users\kruci_000\Desktop\University\SoC\Marsfinder\Marsfinder\Marsfinder_FW\Debug/../drivers/CoreI2C/core_i2c.c:1176
            }
            break;
    1cca:	e045      	b.n	1d58 <I2C_isr+0x938>
    1ccc:	e044      	b.n	1d58 <I2C_isr+0x938>
C:\Users\kruci_000\Desktop\University\SoC\Marsfinder\Marsfinder\Marsfinder_FW\Debug/../drivers/CoreI2C/core_i2c.c:1183
        case ST_SLAVE_RNACK:    /* Data byte has been transmitted; not-ACK has been received. */
        case ST_FINAL: /* Last Data byte tx'ed, ACK received */
            /* We assume that the transaction will be stopped by the master.
             * Reset slave_tx_idx so that a subsequent read will result in the slave's
             * transmit buffer being sent from the first byte. */
            this_i2c->slave_tx_idx = 0u;
    1cce:	687b      	ldr	r3, [r7, #4]
    1cd0:	2200      	movs	r2, #0
    1cd2:	645a      	str	r2, [r3, #68]	; 0x44
C:\Users\kruci_000\Desktop\University\SoC\Marsfinder\Marsfinder\Marsfinder_FW\Debug/../drivers/CoreI2C/core_i2c.c:1184
            HAL_set_8bit_reg_field(this_i2c->base_address, AA, 0x01u);
    1cd4:	687b      	ldr	r3, [r7, #4]
    1cd6:	681b      	ldr	r3, [r3, #0]
    1cd8:	4618      	mov	r0, r3
    1cda:	2102      	movs	r1, #2
    1cdc:	2204      	movs	r2, #4
    1cde:	2301      	movs	r3, #1
    1ce0:	f7fe fcaf 	bl	642 <HW_set_8bit_reg_field>
C:\Users\kruci_000\Desktop\University\SoC\Marsfinder\Marsfinder\Marsfinder_FW\Debug/../drivers/CoreI2C/core_i2c.c:1187

            /*  Mark previous state as complete */
            this_i2c->slave_status = I2C_SUCCESS;
    1ce4:	687b      	ldr	r3, [r7, #4]
    1ce6:	2200      	movs	r2, #0
    1ce8:	f883 2054 	strb.w	r2, [r3, #84]	; 0x54
C:\Users\kruci_000\Desktop\University\SoC\Marsfinder\Marsfinder\Marsfinder_FW\Debug/../drivers/CoreI2C/core_i2c.c:1189
            /* Check if transaction was pending. If yes, set the START bit */
            if(this_i2c->is_transaction_pending)
    1cec:	687b      	ldr	r3, [r7, #4]
    1cee:	f893 3069 	ldrb.w	r3, [r3, #105]	; 0x69
    1cf2:	2b00      	cmp	r3, #0
    1cf4:	d007      	beq.n	1d06 <I2C_isr+0x8e6>
C:\Users\kruci_000\Desktop\University\SoC\Marsfinder\Marsfinder\Marsfinder_FW\Debug/../drivers/CoreI2C/core_i2c.c:1191
            {
                HAL_set_8bit_reg_field(this_i2c->base_address, STA, 0x01u);
    1cf6:	687b      	ldr	r3, [r7, #4]
    1cf8:	681b      	ldr	r3, [r3, #0]
    1cfa:	4618      	mov	r0, r3
    1cfc:	2105      	movs	r1, #5
    1cfe:	2220      	movs	r2, #32
    1d00:	2301      	movs	r3, #1
    1d02:	f7fe fc9e 	bl	642 <HW_set_8bit_reg_field>
C:\Users\kruci_000\Desktop\University\SoC\Marsfinder\Marsfinder\Marsfinder_FW\Debug/../drivers/CoreI2C/core_i2c.c:1197
            }
            /*
             * Set the transaction back to NO_TRANSACTION to allow user to do further
             * transaction
             */
            this_i2c->transaction = NO_TRANSACTION;
    1d06:	687b      	ldr	r3, [r7, #4]
    1d08:	2200      	movs	r2, #0
    1d0a:	731a      	strb	r2, [r3, #12]
C:\Users\kruci_000\Desktop\University\SoC\Marsfinder\Marsfinder\Marsfinder_FW\Debug/../drivers/CoreI2C/core_i2c.c:1199

            break;
    1d0c:	e024      	b.n	1d58 <I2C_isr+0x938>
C:\Users\kruci_000\Desktop\University\SoC\Marsfinder\Marsfinder\Marsfinder_FW\Debug/../drivers/CoreI2C/core_i2c.c:1208
        case ST_RESET_ACTIVATED:
        case ST_BUS_ERROR: /* Bus error during MST or selected slave modes */
        default:
            /* Some undefined state has encountered. Clear Start bit to make
             * sure, next good transaction happen */
            HAL_set_8bit_reg_field(this_i2c->base_address, STA, 0x00u);
    1d0e:	687b      	ldr	r3, [r7, #4]
    1d10:	681b      	ldr	r3, [r3, #0]
    1d12:	4618      	mov	r0, r3
    1d14:	2105      	movs	r1, #5
    1d16:	2220      	movs	r2, #32
    1d18:	2300      	movs	r3, #0
    1d1a:	f7fe fc92 	bl	642 <HW_set_8bit_reg_field>
C:\Users\kruci_000\Desktop\University\SoC\Marsfinder\Marsfinder\Marsfinder_FW\Debug/../drivers/CoreI2C/core_i2c.c:1213
            /*
             * Set the transaction back to NO_TRANSACTION to allow user to do further
             * transaction.
             */
            this_i2c->transaction = NO_TRANSACTION;
    1d1e:	687b      	ldr	r3, [r7, #4]
    1d20:	2200      	movs	r2, #0
    1d22:	731a      	strb	r2, [r3, #12]
C:\Users\kruci_000\Desktop\University\SoC\Marsfinder\Marsfinder\Marsfinder_FW\Debug/../drivers/CoreI2C/core_i2c.c:1218
            /*
             * Reset slave_tx_idx so that a subsequent read will result in the slave's
             * transmit buffer being sent from the first byte.
             */
            this_i2c->slave_tx_idx = 0u;
    1d24:	687b      	ldr	r3, [r7, #4]
    1d26:	2200      	movs	r2, #0
    1d28:	645a      	str	r2, [r3, #68]	; 0x44
C:\Users\kruci_000\Desktop\University\SoC\Marsfinder\Marsfinder\Marsfinder_FW\Debug/../drivers/CoreI2C/core_i2c.c:1222
            /*
             * Clear statuses to I2C_FAILED only if there was an operation in progress.
             */
            if(I2C_IN_PROGRESS == this_i2c->master_status)
    1d2a:	687b      	ldr	r3, [r7, #4]
    1d2c:	f893 3034 	ldrb.w	r3, [r3, #52]	; 0x34
    1d30:	b2db      	uxtb	r3, r3
    1d32:	2b01      	cmp	r3, #1
    1d34:	d103      	bne.n	1d3e <I2C_isr+0x91e>
C:\Users\kruci_000\Desktop\University\SoC\Marsfinder\Marsfinder\Marsfinder_FW\Debug/../drivers/CoreI2C/core_i2c.c:1224
            {
                this_i2c->master_status = I2C_FAILED;
    1d36:	687b      	ldr	r3, [r7, #4]
    1d38:	2202      	movs	r2, #2
    1d3a:	f883 2034 	strb.w	r2, [r3, #52]	; 0x34
C:\Users\kruci_000\Desktop\University\SoC\Marsfinder\Marsfinder\Marsfinder_FW\Debug/../drivers/CoreI2C/core_i2c.c:1227
            }

            if(I2C_IN_PROGRESS == this_i2c->slave_status)
    1d3e:	687b      	ldr	r3, [r7, #4]
    1d40:	f893 3054 	ldrb.w	r3, [r3, #84]	; 0x54
    1d44:	b2db      	uxtb	r3, r3
    1d46:	2b01      	cmp	r3, #1
    1d48:	d104      	bne.n	1d54 <I2C_isr+0x934>
C:\Users\kruci_000\Desktop\University\SoC\Marsfinder\Marsfinder\Marsfinder_FW\Debug/../drivers/CoreI2C/core_i2c.c:1229
            {
                this_i2c->slave_status = I2C_FAILED;
    1d4a:	687b      	ldr	r3, [r7, #4]
    1d4c:	2202      	movs	r2, #2
    1d4e:	f883 2054 	strb.w	r2, [r3, #84]	; 0x54
C:\Users\kruci_000\Desktop\University\SoC\Marsfinder\Marsfinder\Marsfinder_FW\Debug/../drivers/CoreI2C/core_i2c.c:1232
            }

            break;
    1d52:	e001      	b.n	1d58 <I2C_isr+0x938>
    1d54:	e000      	b.n	1d58 <I2C_isr+0x938>
C:\Users\kruci_000\Desktop\University\SoC\Marsfinder\Marsfinder\Marsfinder_FW\Debug/../drivers/CoreI2C/core_i2c.c:828
              HAL_set_8bit_reg_field(this_i2c->base_address, STA, 0x01u);
              break;

        case ST_STOP_TRANSMIT:
             /* Stop has been transmitted. Do nothing */
              break;
    1d56:	bf00      	nop
C:\Users\kruci_000\Desktop\University\SoC\Marsfinder\Marsfinder\Marsfinder_FW\Debug/../drivers/CoreI2C/core_i2c.c:1235
            }

            break;
    }

    if ( clear_irq )
    1d58:	7bfb      	ldrb	r3, [r7, #15]
    1d5a:	2b00      	cmp	r3, #0
    1d5c:	d007      	beq.n	1d6e <I2C_isr+0x94e>
C:\Users\kruci_000\Desktop\University\SoC\Marsfinder\Marsfinder\Marsfinder_FW\Debug/../drivers/CoreI2C/core_i2c.c:1238
    {
        /* clear interrupt. */
        HAL_set_8bit_reg_field(this_i2c->base_address, SI, 0x00u);
    1d5e:	687b      	ldr	r3, [r7, #4]
    1d60:	681b      	ldr	r3, [r3, #0]
    1d62:	4618      	mov	r0, r3
    1d64:	2103      	movs	r1, #3
    1d66:	2208      	movs	r2, #8
    1d68:	2300      	movs	r3, #0
    1d6a:	f7fe fc6a 	bl	642 <HW_set_8bit_reg_field>
C:\Users\kruci_000\Desktop\University\SoC\Marsfinder\Marsfinder\Marsfinder_FW\Debug/../drivers/CoreI2C/core_i2c.c:1243
    }

    /* Read the status register to ensure the last I2C registers write took place
     * in a system built around a bus making use of posted writes. */
    status = HAL_get_8bit_reg( this_i2c->base_address, STATUS);
    1d6e:	687b      	ldr	r3, [r7, #4]
    1d70:	681b      	ldr	r3, [r3, #0]
    1d72:	3304      	adds	r3, #4
    1d74:	4618      	mov	r0, r3
    1d76:	f7fe fc62 	bl	63e <HW_get_8bit_reg>
    1d7a:	4603      	mov	r3, r0
    1d7c:	72fb      	strb	r3, [r7, #11]
C:\Users\kruci_000\Desktop\University\SoC\Marsfinder\Marsfinder\Marsfinder_FW\Debug/../drivers/CoreI2C/core_i2c.c:1244
}
    1d7e:	3714      	adds	r7, #20
    1d80:	46bd      	mov	sp, r7
    1d82:	bd90      	pop	{r4, r7, pc}

00001d84 <NVIC_EnableIRQ>:
NVIC_EnableIRQ():
C:/Microsemi_11.06/SoftConsole_v4.0/CMSIS/V4.3/Include/core_cm3.h:1383
    The function enables a device-specific interrupt in the NVIC interrupt controller.

    \param [in]      IRQn  External interrupt number. Value cannot be negative.
 */
__STATIC_INLINE void NVIC_EnableIRQ(IRQn_Type IRQn)
{
    1d84:	b480      	push	{r7}
    1d86:	b083      	sub	sp, #12
    1d88:	af00      	add	r7, sp, #0
    1d8a:	4603      	mov	r3, r0
    1d8c:	71fb      	strb	r3, [r7, #7]
C:/Microsemi_11.06/SoftConsole_v4.0/CMSIS/V4.3/Include/core_cm3.h:1384
  NVIC->ISER[(((uint32_t)(int32_t)IRQn) >> 5UL)] = (uint32_t)(1UL << (((uint32_t)(int32_t)IRQn) & 0x1FUL));
    1d8e:	4908      	ldr	r1, [pc, #32]	; (1db0 <NVIC_EnableIRQ+0x2c>)
    1d90:	f997 3007 	ldrsb.w	r3, [r7, #7]
    1d94:	095b      	lsrs	r3, r3, #5
    1d96:	79fa      	ldrb	r2, [r7, #7]
    1d98:	f002 021f 	and.w	r2, r2, #31
    1d9c:	2001      	movs	r0, #1
    1d9e:	fa00 f202 	lsl.w	r2, r0, r2
    1da2:	f841 2023 	str.w	r2, [r1, r3, lsl #2]
C:/Microsemi_11.06/SoftConsole_v4.0/CMSIS/V4.3/Include/core_cm3.h:1385
}
    1da6:	370c      	adds	r7, #12
    1da8:	46bd      	mov	sp, r7
    1daa:	f85d 7b04 	ldr.w	r7, [sp], #4
    1dae:	4770      	bx	lr
    1db0:	e000e100 	.word	0xe000e100

00001db4 <NVIC_DisableIRQ>:
NVIC_DisableIRQ():
C:/Microsemi_11.06/SoftConsole_v4.0/CMSIS/V4.3/Include/core_cm3.h:1395
    The function disables a device-specific interrupt in the NVIC interrupt controller.

    \param [in]      IRQn  External interrupt number. Value cannot be negative.
 */
__STATIC_INLINE void NVIC_DisableIRQ(IRQn_Type IRQn)
{
    1db4:	b480      	push	{r7}
    1db6:	b083      	sub	sp, #12
    1db8:	af00      	add	r7, sp, #0
    1dba:	4603      	mov	r3, r0
    1dbc:	71fb      	strb	r3, [r7, #7]
C:/Microsemi_11.06/SoftConsole_v4.0/CMSIS/V4.3/Include/core_cm3.h:1396
  NVIC->ICER[(((uint32_t)(int32_t)IRQn) >> 5UL)] = (uint32_t)(1UL << (((uint32_t)(int32_t)IRQn) & 0x1FUL));
    1dbe:	4909      	ldr	r1, [pc, #36]	; (1de4 <NVIC_DisableIRQ+0x30>)
    1dc0:	f997 3007 	ldrsb.w	r3, [r7, #7]
    1dc4:	095b      	lsrs	r3, r3, #5
    1dc6:	79fa      	ldrb	r2, [r7, #7]
    1dc8:	f002 021f 	and.w	r2, r2, #31
    1dcc:	2001      	movs	r0, #1
    1dce:	fa00 f202 	lsl.w	r2, r0, r2
    1dd2:	3320      	adds	r3, #32
    1dd4:	f841 2023 	str.w	r2, [r1, r3, lsl #2]
C:/Microsemi_11.06/SoftConsole_v4.0/CMSIS/V4.3/Include/core_cm3.h:1397
}
    1dd8:	370c      	adds	r7, #12
    1dda:	46bd      	mov	sp, r7
    1ddc:	f85d 7b04 	ldr.w	r7, [sp], #4
    1de0:	4770      	bx	lr
    1de2:	bf00      	nop
    1de4:	e000e100 	.word	0xe000e100

00001de8 <I2C_enable_irq>:
I2C_enable_irq():
C:\Users\kruci_000\Desktop\University\SoC\Marsfinder\Marsfinder\Marsfinder_FW\Debug/../drivers/CoreI2C/i2c_interrupt.c:19
/*------------------------------------------------------------------------------
 * This function must be modified to enable interrupts generated from the
 * CoreI2C instance identified as parameter.
 */
void I2C_enable_irq( i2c_instance_t * this_i2c )
{
    1de8:	b580      	push	{r7, lr}
    1dea:	b082      	sub	sp, #8
    1dec:	af00      	add	r7, sp, #0
    1dee:	6078      	str	r0, [r7, #4]
C:\Users\kruci_000\Desktop\University\SoC\Marsfinder\Marsfinder\Marsfinder_FW\Debug/../drivers/CoreI2C/i2c_interrupt.c:20
    NVIC_EnableIRQ(FabricIrq0_IRQn);
    1df0:	2022      	movs	r0, #34	; 0x22
    1df2:	f7ff ffc7 	bl	1d84 <NVIC_EnableIRQ>
C:\Users\kruci_000\Desktop\University\SoC\Marsfinder\Marsfinder\Marsfinder_FW\Debug/../drivers/CoreI2C/i2c_interrupt.c:21
}
    1df6:	3708      	adds	r7, #8
    1df8:	46bd      	mov	sp, r7
    1dfa:	bd80      	pop	{r7, pc}

00001dfc <I2C_disable_irq>:
I2C_disable_irq():
C:\Users\kruci_000\Desktop\University\SoC\Marsfinder\Marsfinder\Marsfinder_FW\Debug/../drivers/CoreI2C/i2c_interrupt.c:28
/*------------------------------------------------------------------------------
 * This function must be modified to disable interrupts generated from the
 * CoreI2C instance identified as parameter.
 */
void I2C_disable_irq( i2c_instance_t * this_i2c )
{
    1dfc:	b580      	push	{r7, lr}
    1dfe:	b082      	sub	sp, #8
    1e00:	af00      	add	r7, sp, #0
    1e02:	6078      	str	r0, [r7, #4]
C:\Users\kruci_000\Desktop\University\SoC\Marsfinder\Marsfinder\Marsfinder_FW\Debug/../drivers/CoreI2C/i2c_interrupt.c:29
    NVIC_DisableIRQ(FabricIrq0_IRQn);
    1e04:	2022      	movs	r0, #34	; 0x22
    1e06:	f7ff ffd5 	bl	1db4 <NVIC_DisableIRQ>
C:\Users\kruci_000\Desktop\University\SoC\Marsfinder\Marsfinder\Marsfinder_FW\Debug/../drivers/CoreI2C/i2c_interrupt.c:30
}
    1e0a:	3708      	adds	r7, #8
    1e0c:	46bd      	mov	sp, r7
    1e0e:	bd80      	pop	{r7, pc}

00001e10 <BT_init>:
BT_init():
C:\Users\kruci_000\Desktop\University\SoC\Marsfinder\Marsfinder\Marsfinder_FW\Debug/../Modules/UART/BT/bluetooth.c:12

#include "bluetooth.h"

UART_instance_t g_bt;

inline void BT_init(addr_t base_addr, uint16_t baud_val) {
    1e10:	b580      	push	{r7, lr}
    1e12:	b082      	sub	sp, #8
    1e14:	af00      	add	r7, sp, #0
    1e16:	6078      	str	r0, [r7, #4]
    1e18:	460b      	mov	r3, r1
    1e1a:	807b      	strh	r3, [r7, #2]
C:\Users\kruci_000\Desktop\University\SoC\Marsfinder\Marsfinder\Marsfinder_FW\Debug/../Modules/UART/BT/bluetooth.c:13
    UART_init(&g_bt, base_addr, baud_val, (DATA_8_BITS | NO_PARITY));
    1e1c:	887b      	ldrh	r3, [r7, #2]
    1e1e:	4804      	ldr	r0, [pc, #16]	; (1e30 <BT_init+0x20>)
    1e20:	6879      	ldr	r1, [r7, #4]
    1e22:	461a      	mov	r2, r3
    1e24:	2301      	movs	r3, #1
    1e26:	f7ff f849 	bl	ebc <UART_init>
C:\Users\kruci_000\Desktop\University\SoC\Marsfinder\Marsfinder\Marsfinder_FW\Debug/../Modules/UART/BT/bluetooth.c:14
}
    1e2a:	3708      	adds	r7, #8
    1e2c:	46bd      	mov	sp, r7
    1e2e:	bd80      	pop	{r7, pc}
    1e30:	20000620 	.word	0x20000620

00001e34 <BT_send>:
BT_send():
C:\Users\kruci_000\Desktop\University\SoC\Marsfinder\Marsfinder\Marsfinder_FW\Debug/../Modules/UART/BT/bluetooth.c:16

inline void BT_send(const uint8_t* tx_buf, size_t size) {
    1e34:	b580      	push	{r7, lr}
    1e36:	b082      	sub	sp, #8
    1e38:	af00      	add	r7, sp, #0
    1e3a:	6078      	str	r0, [r7, #4]
    1e3c:	6039      	str	r1, [r7, #0]
C:\Users\kruci_000\Desktop\University\SoC\Marsfinder\Marsfinder\Marsfinder_FW\Debug/../Modules/UART/BT/bluetooth.c:17
    UART_send(&g_bt, tx_buf, size);
    1e3e:	4804      	ldr	r0, [pc, #16]	; (1e50 <BT_send+0x1c>)
    1e40:	6879      	ldr	r1, [r7, #4]
    1e42:	683a      	ldr	r2, [r7, #0]
    1e44:	f7ff f8c4 	bl	fd0 <UART_send>
C:\Users\kruci_000\Desktop\University\SoC\Marsfinder\Marsfinder\Marsfinder_FW\Debug/../Modules/UART/BT/bluetooth.c:18
}
    1e48:	3708      	adds	r7, #8
    1e4a:	46bd      	mov	sp, r7
    1e4c:	bd80      	pop	{r7, pc}
    1e4e:	bf00      	nop
    1e50:	20000620 	.word	0x20000620

00001e54 <uart_init>:
uart_init():
C:\Users\kruci_000\Desktop\University\SoC\Marsfinder\Marsfinder\Marsfinder_FW\Debug/../Modules/UART/uart.c:10
 *      Author: kruci_000
 */

#include "uart.h"

inline void uart_init() {
    1e54:	b580      	push	{r7, lr}
    1e56:	af00      	add	r7, sp, #0
C:\Users\kruci_000\Desktop\University\SoC\Marsfinder\Marsfinder\Marsfinder_FW\Debug/../Modules/UART/uart.c:11
    BT_init(COREUARTAPB_0_0, BAUD_VALUE_115200);
    1e58:	4802      	ldr	r0, [pc, #8]	; (1e64 <uart_init+0x10>)
    1e5a:	211a      	movs	r1, #26
    1e5c:	f7ff ffd8 	bl	1e10 <BT_init>
C:\Users\kruci_000\Desktop\University\SoC\Marsfinder\Marsfinder\Marsfinder_FW\Debug/../Modules/UART/uart.c:12
}
    1e60:	bd80      	pop	{r7, pc}
    1e62:	bf00      	nop
    1e64:	50001000 	.word	0x50001000

00001e68 <MSS_TIM1_get_current_value>:
MSS_TIM1_get_current_value():
C:\Users\kruci_000\Desktop\University\SoC\Marsfinder\Marsfinder\Marsfinder_FW\drivers/mss_timer/mss_timer.h:188
  
  @return
    This function returns the 32-bits current value of the Timer 1 down-counter.
 */
static __INLINE uint32_t MSS_TIM1_get_current_value(void)
{
    1e68:	b480      	push	{r7}
    1e6a:	af00      	add	r7, sp, #0
C:\Users\kruci_000\Desktop\University\SoC\Marsfinder\Marsfinder\Marsfinder_FW\drivers/mss_timer/mss_timer.h:189
    return TIMER->TIM1_VAL;
    1e6c:	f04f 2340 	mov.w	r3, #1073758208	; 0x40004000
    1e70:	681b      	ldr	r3, [r3, #0]
C:\Users\kruci_000\Desktop\University\SoC\Marsfinder\Marsfinder\Marsfinder_FW\drivers/mss_timer/mss_timer.h:190
}
    1e72:	4618      	mov	r0, r3
    1e74:	46bd      	mov	sp, r7
    1e76:	f85d 7b04 	ldr.w	r7, [sp], #4
    1e7a:	4770      	bx	lr

00001e7c <usec>:
usec():
C:\Users\kruci_000\Desktop\University\SoC\Marsfinder\Marsfinder\Marsfinder_FW\Debug/../Modules/Time/time.c:15
#include <drivers_config/sys_config/sys_config.h>

uint32_t sec = 0;
uint32_t msec = 0;

inline uint64_t usec() {
    1e7c:	b5b0      	push	{r4, r5, r7, lr}
    1e7e:	af00      	add	r7, sp, #0
C:\Users\kruci_000\Desktop\University\SoC\Marsfinder\Marsfinder\Marsfinder_FW\Debug/../Modules/Time/time.c:16
    return (uint64_t)(1000000 * sec)
    1e80:	4b12      	ldr	r3, [pc, #72]	; (1ecc <usec+0x50>)
    1e82:	681b      	ldr	r3, [r3, #0]
    1e84:	4a12      	ldr	r2, [pc, #72]	; (1ed0 <usec+0x54>)
    1e86:	fb02 f303 	mul.w	r3, r2, r3
    1e8a:	4618      	mov	r0, r3
    1e8c:	f04f 0100 	mov.w	r1, #0
C:\Users\kruci_000\Desktop\University\SoC\Marsfinder\Marsfinder\Marsfinder_FW\Debug/../Modules/Time/time.c:17
         + (1000 * msec)
    1e90:	4b10      	ldr	r3, [pc, #64]	; (1ed4 <usec+0x58>)
    1e92:	681b      	ldr	r3, [r3, #0]
    1e94:	f44f 727a 	mov.w	r2, #1000	; 0x3e8
    1e98:	fb02 f303 	mul.w	r3, r2, r3
    1e9c:	461a      	mov	r2, r3
    1e9e:	f04f 0300 	mov.w	r3, #0
    1ea2:	1884      	adds	r4, r0, r2
    1ea4:	eb41 0503 	adc.w	r5, r1, r3
C:\Users\kruci_000\Desktop\University\SoC\Marsfinder\Marsfinder\Marsfinder_FW\Debug/../Modules/Time/time.c:18
         + ((MSS_SYS_M3_CLK_FREQ / 20) - MSS_TIM1_get_current_value()) / 50;
    1ea8:	f7ff ffde 	bl	1e68 <MSS_TIM1_get_current_value>
    1eac:	4602      	mov	r2, r0
    1eae:	4b0a      	ldr	r3, [pc, #40]	; (1ed8 <usec+0x5c>)
    1eb0:	1a9b      	subs	r3, r3, r2
    1eb2:	4a0a      	ldr	r2, [pc, #40]	; (1edc <usec+0x60>)
    1eb4:	fba2 2303 	umull	r2, r3, r2, r3
    1eb8:	091b      	lsrs	r3, r3, #4
    1eba:	461a      	mov	r2, r3
    1ebc:	f04f 0300 	mov.w	r3, #0
C:\Users\kruci_000\Desktop\University\SoC\Marsfinder\Marsfinder\Marsfinder_FW\Debug/../Modules/Time/time.c:16

uint32_t sec = 0;
uint32_t msec = 0;

inline uint64_t usec() {
    return (uint64_t)(1000000 * sec)
    1ec0:	1912      	adds	r2, r2, r4
    1ec2:	eb43 0305 	adc.w	r3, r3, r5
C:\Users\kruci_000\Desktop\University\SoC\Marsfinder\Marsfinder\Marsfinder_FW\Debug/../Modules/Time/time.c:20
         + (1000 * msec)
         + ((MSS_SYS_M3_CLK_FREQ / 20) - MSS_TIM1_get_current_value()) / 50;
         //  TimVal * TimPeriod (us) / TimReloadVal
}
    1ec6:	4610      	mov	r0, r2
    1ec8:	4619      	mov	r1, r3
    1eca:	bdb0      	pop	{r4, r5, r7, pc}
    1ecc:	20000158 	.word	0x20000158
    1ed0:	000f4240 	.word	0x000f4240
    1ed4:	2000015c 	.word	0x2000015c
    1ed8:	002625a0 	.word	0x002625a0
    1edc:	51eb851f 	.word	0x51eb851f

00001ee0 <usec_service_routine>:
usec_service_routine():
C:\Users\kruci_000\Desktop\University\SoC\Marsfinder\Marsfinder\Marsfinder_FW\Debug/../Modules/Time/time.c:22

void usec_service_routine() {
    1ee0:	b480      	push	{r7}
    1ee2:	af00      	add	r7, sp, #0
C:\Users\kruci_000\Desktop\University\SoC\Marsfinder\Marsfinder\Marsfinder_FW\Debug/../Modules/Time/time.c:23
    msec += 50;
    1ee4:	4b0f      	ldr	r3, [pc, #60]	; (1f24 <usec_service_routine+0x44>)
    1ee6:	681b      	ldr	r3, [r3, #0]
    1ee8:	3332      	adds	r3, #50	; 0x32
    1eea:	4a0e      	ldr	r2, [pc, #56]	; (1f24 <usec_service_routine+0x44>)
    1eec:	6013      	str	r3, [r2, #0]
C:\Users\kruci_000\Desktop\University\SoC\Marsfinder\Marsfinder\Marsfinder_FW\Debug/../Modules/Time/time.c:24
    if (msec >= 1000) {
    1eee:	4b0d      	ldr	r3, [pc, #52]	; (1f24 <usec_service_routine+0x44>)
    1ef0:	681b      	ldr	r3, [r3, #0]
    1ef2:	f5b3 7f7a 	cmp.w	r3, #1000	; 0x3e8
    1ef6:	d311      	bcc.n	1f1c <usec_service_routine+0x3c>
C:\Users\kruci_000\Desktop\University\SoC\Marsfinder\Marsfinder\Marsfinder_FW\Debug/../Modules/Time/time.c:25
        sec++;
    1ef8:	4b0b      	ldr	r3, [pc, #44]	; (1f28 <usec_service_routine+0x48>)
    1efa:	681b      	ldr	r3, [r3, #0]
    1efc:	3301      	adds	r3, #1
    1efe:	4a0a      	ldr	r2, [pc, #40]	; (1f28 <usec_service_routine+0x48>)
    1f00:	6013      	str	r3, [r2, #0]
C:\Users\kruci_000\Desktop\University\SoC\Marsfinder\Marsfinder\Marsfinder_FW\Debug/../Modules/Time/time.c:26
        msec %= 1000;
    1f02:	4b08      	ldr	r3, [pc, #32]	; (1f24 <usec_service_routine+0x44>)
    1f04:	681a      	ldr	r2, [r3, #0]
    1f06:	4b09      	ldr	r3, [pc, #36]	; (1f2c <usec_service_routine+0x4c>)
    1f08:	fba3 1302 	umull	r1, r3, r3, r2
    1f0c:	099b      	lsrs	r3, r3, #6
    1f0e:	f44f 717a 	mov.w	r1, #1000	; 0x3e8
    1f12:	fb01 f303 	mul.w	r3, r1, r3
    1f16:	1ad3      	subs	r3, r2, r3
    1f18:	4a02      	ldr	r2, [pc, #8]	; (1f24 <usec_service_routine+0x44>)
    1f1a:	6013      	str	r3, [r2, #0]
C:\Users\kruci_000\Desktop\University\SoC\Marsfinder\Marsfinder\Marsfinder_FW\Debug/../Modules/Time/time.c:28
    }
}
    1f1c:	46bd      	mov	sp, r7
    1f1e:	f85d 7b04 	ldr.w	r7, [sp], #4
    1f22:	4770      	bx	lr
    1f24:	2000015c 	.word	0x2000015c
    1f28:	20000158 	.word	0x20000158
    1f2c:	10624dd3 	.word	0x10624dd3

00001f30 <crc_accumulate>:
crc_accumulate():
c:\users\kruci_000\desktop\university\soc\marsfinder\marsfinder\marsfinder_fw\modules\mavlink/checksum.h:35
 *
 * @param data new char to hash
 * @param crcAccum the already accumulated checksum
 **/
static inline void crc_accumulate(uint8_t data, uint16_t *crcAccum)
{
    1f30:	b480      	push	{r7}
    1f32:	b085      	sub	sp, #20
    1f34:	af00      	add	r7, sp, #0
    1f36:	4603      	mov	r3, r0
    1f38:	6039      	str	r1, [r7, #0]
    1f3a:	71fb      	strb	r3, [r7, #7]
c:\users\kruci_000\desktop\university\soc\marsfinder\marsfinder\marsfinder_fw\modules\mavlink/checksum.h:39
        /*Accumulate one byte of data into the CRC*/
        uint8_t tmp;

        tmp = data ^ (uint8_t)(*crcAccum &0xff);
    1f3c:	683b      	ldr	r3, [r7, #0]
    1f3e:	881b      	ldrh	r3, [r3, #0]
    1f40:	b2da      	uxtb	r2, r3
    1f42:	79fb      	ldrb	r3, [r7, #7]
    1f44:	4053      	eors	r3, r2
    1f46:	73fb      	strb	r3, [r7, #15]
c:\users\kruci_000\desktop\university\soc\marsfinder\marsfinder\marsfinder_fw\modules\mavlink/checksum.h:40
        tmp ^= (tmp<<4);
    1f48:	7bfb      	ldrb	r3, [r7, #15]
    1f4a:	011b      	lsls	r3, r3, #4
    1f4c:	b2da      	uxtb	r2, r3
    1f4e:	7bfb      	ldrb	r3, [r7, #15]
    1f50:	4053      	eors	r3, r2
    1f52:	b2db      	uxtb	r3, r3
    1f54:	73fb      	strb	r3, [r7, #15]
c:\users\kruci_000\desktop\university\soc\marsfinder\marsfinder\marsfinder_fw\modules\mavlink/checksum.h:41
        *crcAccum = (*crcAccum>>8) ^ (tmp<<8) ^ (tmp <<3) ^ (tmp>>4);
    1f56:	683b      	ldr	r3, [r7, #0]
    1f58:	881b      	ldrh	r3, [r3, #0]
    1f5a:	0a1b      	lsrs	r3, r3, #8
    1f5c:	b29b      	uxth	r3, r3
    1f5e:	b29a      	uxth	r2, r3
    1f60:	7bfb      	ldrb	r3, [r7, #15]
    1f62:	021b      	lsls	r3, r3, #8
    1f64:	b29b      	uxth	r3, r3
    1f66:	4053      	eors	r3, r2
    1f68:	b29a      	uxth	r2, r3
    1f6a:	7bfb      	ldrb	r3, [r7, #15]
    1f6c:	00db      	lsls	r3, r3, #3
    1f6e:	b29b      	uxth	r3, r3
    1f70:	4053      	eors	r3, r2
    1f72:	b29a      	uxth	r2, r3
    1f74:	7bfb      	ldrb	r3, [r7, #15]
    1f76:	091b      	lsrs	r3, r3, #4
    1f78:	b2db      	uxtb	r3, r3
    1f7a:	b29b      	uxth	r3, r3
    1f7c:	4053      	eors	r3, r2
    1f7e:	b29b      	uxth	r3, r3
    1f80:	b29a      	uxth	r2, r3
    1f82:	683b      	ldr	r3, [r7, #0]
    1f84:	801a      	strh	r2, [r3, #0]
c:\users\kruci_000\desktop\university\soc\marsfinder\marsfinder\marsfinder_fw\modules\mavlink/checksum.h:42
}
    1f86:	3714      	adds	r7, #20
    1f88:	46bd      	mov	sp, r7
    1f8a:	f85d 7b04 	ldr.w	r7, [sp], #4
    1f8e:	4770      	bx	lr

00001f90 <crc_init>:
crc_init():
c:\users\kruci_000\desktop\university\soc\marsfinder\marsfinder\marsfinder_fw\modules\mavlink/checksum.h:52
 * @brief Initiliaze the buffer for the X.25 CRC
 *
 * @param crcAccum the 16 bit X.25 CRC
 */
static inline void crc_init(uint16_t* crcAccum)
{
    1f90:	b480      	push	{r7}
    1f92:	b083      	sub	sp, #12
    1f94:	af00      	add	r7, sp, #0
    1f96:	6078      	str	r0, [r7, #4]
c:\users\kruci_000\desktop\university\soc\marsfinder\marsfinder\marsfinder_fw\modules\mavlink/checksum.h:53
        *crcAccum = X25_INIT_CRC;
    1f98:	687b      	ldr	r3, [r7, #4]
    1f9a:	f64f 72ff 	movw	r2, #65535	; 0xffff
    1f9e:	801a      	strh	r2, [r3, #0]
c:\users\kruci_000\desktop\university\soc\marsfinder\marsfinder\marsfinder_fw\modules\mavlink/checksum.h:54
}
    1fa0:	370c      	adds	r7, #12
    1fa2:	46bd      	mov	sp, r7
    1fa4:	f85d 7b04 	ldr.w	r7, [sp], #4
    1fa8:	4770      	bx	lr
    1faa:	bf00      	nop

00001fac <crc_calculate>:
crc_calculate():
c:\users\kruci_000\desktop\university\soc\marsfinder\marsfinder\marsfinder_fw\modules\mavlink/checksum.h:65
 * @param  pBuffer buffer containing the byte array to hash
 * @param  length  length of the byte array
 * @return the checksum over the buffer bytes
 **/
static inline uint16_t crc_calculate(const uint8_t* pBuffer, uint16_t length)
{
    1fac:	b580      	push	{r7, lr}
    1fae:	b084      	sub	sp, #16
    1fb0:	af00      	add	r7, sp, #0
    1fb2:	6078      	str	r0, [r7, #4]
    1fb4:	460b      	mov	r3, r1
    1fb6:	807b      	strh	r3, [r7, #2]
c:\users\kruci_000\desktop\university\soc\marsfinder\marsfinder\marsfinder_fw\modules\mavlink/checksum.h:67
        uint16_t crcTmp;
        crc_init(&crcTmp);
    1fb8:	f107 030e 	add.w	r3, r7, #14
    1fbc:	4618      	mov	r0, r3
    1fbe:	f7ff ffe7 	bl	1f90 <crc_init>
c:\users\kruci_000\desktop\university\soc\marsfinder\marsfinder\marsfinder_fw\modules\mavlink/checksum.h:68
	while (length--) {
    1fc2:	e009      	b.n	1fd8 <crc_calculate+0x2c>
c:\users\kruci_000\desktop\university\soc\marsfinder\marsfinder\marsfinder_fw\modules\mavlink/checksum.h:69
                crc_accumulate(*pBuffer++, &crcTmp);
    1fc4:	687b      	ldr	r3, [r7, #4]
    1fc6:	1c5a      	adds	r2, r3, #1
    1fc8:	607a      	str	r2, [r7, #4]
    1fca:	781a      	ldrb	r2, [r3, #0]
    1fcc:	f107 030e 	add.w	r3, r7, #14
    1fd0:	4610      	mov	r0, r2
    1fd2:	4619      	mov	r1, r3
    1fd4:	f7ff ffac 	bl	1f30 <crc_accumulate>
c:\users\kruci_000\desktop\university\soc\marsfinder\marsfinder\marsfinder_fw\modules\mavlink/checksum.h:68
 **/
static inline uint16_t crc_calculate(const uint8_t* pBuffer, uint16_t length)
{
        uint16_t crcTmp;
        crc_init(&crcTmp);
	while (length--) {
    1fd8:	887b      	ldrh	r3, [r7, #2]
    1fda:	1e5a      	subs	r2, r3, #1
    1fdc:	807a      	strh	r2, [r7, #2]
    1fde:	2b00      	cmp	r3, #0
    1fe0:	d1f0      	bne.n	1fc4 <crc_calculate+0x18>
c:\users\kruci_000\desktop\university\soc\marsfinder\marsfinder\marsfinder_fw\modules\mavlink/checksum.h:71
                crc_accumulate(*pBuffer++, &crcTmp);
        }
        return crcTmp;
    1fe2:	89fb      	ldrh	r3, [r7, #14]
c:\users\kruci_000\desktop\university\soc\marsfinder\marsfinder\marsfinder_fw\modules\mavlink/checksum.h:72
}
    1fe4:	4618      	mov	r0, r3
    1fe6:	3710      	adds	r7, #16
    1fe8:	46bd      	mov	sp, r7
    1fea:	bd80      	pop	{r7, pc}

00001fec <crc_accumulate_buffer>:
crc_accumulate_buffer():
c:\users\kruci_000\desktop\university\soc\marsfinder\marsfinder\marsfinder_fw\modules\mavlink/checksum.h:85
 *
 * @param data new bytes to hash
 * @param crcAccum the already accumulated checksum
 **/
static inline void crc_accumulate_buffer(uint16_t *crcAccum, const char *pBuffer, uint16_t length)
{
    1fec:	b580      	push	{r7, lr}
    1fee:	b086      	sub	sp, #24
    1ff0:	af00      	add	r7, sp, #0
    1ff2:	60f8      	str	r0, [r7, #12]
    1ff4:	60b9      	str	r1, [r7, #8]
    1ff6:	4613      	mov	r3, r2
    1ff8:	80fb      	strh	r3, [r7, #6]
c:\users\kruci_000\desktop\university\soc\marsfinder\marsfinder\marsfinder_fw\modules\mavlink/checksum.h:86
	const uint8_t *p = (const uint8_t *)pBuffer;
    1ffa:	68bb      	ldr	r3, [r7, #8]
    1ffc:	617b      	str	r3, [r7, #20]
c:\users\kruci_000\desktop\university\soc\marsfinder\marsfinder\marsfinder_fw\modules\mavlink/checksum.h:87
	while (length--) {
    1ffe:	e007      	b.n	2010 <crc_accumulate_buffer+0x24>
c:\users\kruci_000\desktop\university\soc\marsfinder\marsfinder\marsfinder_fw\modules\mavlink/checksum.h:88
                crc_accumulate(*p++, crcAccum);
    2000:	697b      	ldr	r3, [r7, #20]
    2002:	1c5a      	adds	r2, r3, #1
    2004:	617a      	str	r2, [r7, #20]
    2006:	781b      	ldrb	r3, [r3, #0]
    2008:	4618      	mov	r0, r3
    200a:	68f9      	ldr	r1, [r7, #12]
    200c:	f7ff ff90 	bl	1f30 <crc_accumulate>
c:\users\kruci_000\desktop\university\soc\marsfinder\marsfinder\marsfinder_fw\modules\mavlink/checksum.h:87
 * @param crcAccum the already accumulated checksum
 **/
static inline void crc_accumulate_buffer(uint16_t *crcAccum, const char *pBuffer, uint16_t length)
{
	const uint8_t *p = (const uint8_t *)pBuffer;
	while (length--) {
    2010:	88fb      	ldrh	r3, [r7, #6]
    2012:	1e5a      	subs	r2, r3, #1
    2014:	80fa      	strh	r2, [r7, #6]
    2016:	2b00      	cmp	r3, #0
    2018:	d1f2      	bne.n	2000 <crc_accumulate_buffer+0x14>
c:\users\kruci_000\desktop\university\soc\marsfinder\marsfinder\marsfinder_fw\modules\mavlink/checksum.h:90
                crc_accumulate(*p++, crcAccum);
        }
}
    201a:	3718      	adds	r7, #24
    201c:	46bd      	mov	sp, r7
    201e:	bd80      	pop	{r7, pc}

00002020 <mavlink_get_channel_status>:
mavlink_get_channel_status():
c:\users\kruci_000\desktop\university\soc\marsfinder\marsfinder\marsfinder_fw\modules\mavlink/mavlink_helpers.h:21
/*
 * Internal function to give access to the channel status for each channel
 */
#ifndef MAVLINK_GET_CHANNEL_STATUS
MAVLINK_HELPER mavlink_status_t* mavlink_get_channel_status(uint8_t chan)
{
    2020:	b480      	push	{r7}
    2022:	b083      	sub	sp, #12
    2024:	af00      	add	r7, sp, #0
    2026:	4603      	mov	r3, r0
    2028:	71fb      	strb	r3, [r7, #7]
c:\users\kruci_000\desktop\university\soc\marsfinder\marsfinder\marsfinder_fw\modules\mavlink/mavlink_helpers.h:28
	// No m_mavlink_status array defined in function,
	// has to be defined externally
#else
	static mavlink_status_t m_mavlink_status[MAVLINK_COMM_NUM_BUFFERS];
#endif
	return &m_mavlink_status[chan];
    202a:	79fa      	ldrb	r2, [r7, #7]
    202c:	4613      	mov	r3, r2
    202e:	005b      	lsls	r3, r3, #1
    2030:	4413      	add	r3, r2
    2032:	009b      	lsls	r3, r3, #2
    2034:	4a03      	ldr	r2, [pc, #12]	; (2044 <mavlink_get_channel_status+0x24>)
    2036:	4413      	add	r3, r2
c:\users\kruci_000\desktop\university\soc\marsfinder\marsfinder\marsfinder_fw\modules\mavlink/mavlink_helpers.h:29
}
    2038:	4618      	mov	r0, r3
    203a:	370c      	adds	r7, #12
    203c:	46bd      	mov	sp, r7
    203e:	f85d 7b04 	ldr.w	r7, [sp], #4
    2042:	4770      	bx	lr
    2044:	20000164 	.word	0x20000164

00002048 <mavlink_finalize_message_chan>:
mavlink_finalize_message_chan():
c:\users\kruci_000\desktop\university\soc\marsfinder\marsfinder\marsfinder_fw\modules\mavlink/mavlink_helpers.h:77
						      uint8_t chan, uint8_t min_length, uint8_t length, uint8_t crc_extra)
#else
MAVLINK_HELPER uint16_t mavlink_finalize_message_chan(mavlink_message_t* msg, uint8_t system_id, uint8_t component_id,
						      uint8_t chan, uint8_t length)
#endif
{
    2048:	b590      	push	{r4, r7, lr}
    204a:	b083      	sub	sp, #12
    204c:	af00      	add	r7, sp, #0
    204e:	6078      	str	r0, [r7, #4]
    2050:	4608      	mov	r0, r1
    2052:	4611      	mov	r1, r2
    2054:	461a      	mov	r2, r3
    2056:	4603      	mov	r3, r0
    2058:	70fb      	strb	r3, [r7, #3]
    205a:	460b      	mov	r3, r1
    205c:	70bb      	strb	r3, [r7, #2]
    205e:	4613      	mov	r3, r2
    2060:	707b      	strb	r3, [r7, #1]
c:\users\kruci_000\desktop\university\soc\marsfinder\marsfinder\marsfinder_fw\modules\mavlink/mavlink_helpers.h:81
	// This is only used for the v2 protocol and we silence it here
	(void)min_length;
	// This code part is the same for all messages;
	msg->magic = MAVLINK_STX;
    2062:	687b      	ldr	r3, [r7, #4]
    2064:	22fe      	movs	r2, #254	; 0xfe
    2066:	709a      	strb	r2, [r3, #2]
c:\users\kruci_000\desktop\university\soc\marsfinder\marsfinder\marsfinder_fw\modules\mavlink/mavlink_helpers.h:82
	msg->len = length;
    2068:	687b      	ldr	r3, [r7, #4]
    206a:	7f3a      	ldrb	r2, [r7, #28]
    206c:	70da      	strb	r2, [r3, #3]
c:\users\kruci_000\desktop\university\soc\marsfinder\marsfinder\marsfinder_fw\modules\mavlink/mavlink_helpers.h:83
	msg->sysid = system_id;
    206e:	687b      	ldr	r3, [r7, #4]
    2070:	78fa      	ldrb	r2, [r7, #3]
    2072:	715a      	strb	r2, [r3, #5]
c:\users\kruci_000\desktop\university\soc\marsfinder\marsfinder\marsfinder_fw\modules\mavlink/mavlink_helpers.h:84
	msg->compid = component_id;
    2074:	687b      	ldr	r3, [r7, #4]
    2076:	78ba      	ldrb	r2, [r7, #2]
    2078:	719a      	strb	r2, [r3, #6]
c:\users\kruci_000\desktop\university\soc\marsfinder\marsfinder\marsfinder_fw\modules\mavlink/mavlink_helpers.h:86
	// One sequence number per channel
	msg->seq = mavlink_get_channel_status(chan)->current_tx_seq;
    207a:	787b      	ldrb	r3, [r7, #1]
    207c:	4618      	mov	r0, r3
    207e:	f7ff ffcf 	bl	2020 <mavlink_get_channel_status>
    2082:	4603      	mov	r3, r0
    2084:	799a      	ldrb	r2, [r3, #6]
    2086:	687b      	ldr	r3, [r7, #4]
    2088:	711a      	strb	r2, [r3, #4]
c:\users\kruci_000\desktop\university\soc\marsfinder\marsfinder\marsfinder_fw\modules\mavlink/mavlink_helpers.h:87
	mavlink_get_channel_status(chan)->current_tx_seq = mavlink_get_channel_status(chan)->current_tx_seq+1;
    208a:	787b      	ldrb	r3, [r7, #1]
    208c:	4618      	mov	r0, r3
    208e:	f7ff ffc7 	bl	2020 <mavlink_get_channel_status>
    2092:	4604      	mov	r4, r0
    2094:	787b      	ldrb	r3, [r7, #1]
    2096:	4618      	mov	r0, r3
    2098:	f7ff ffc2 	bl	2020 <mavlink_get_channel_status>
    209c:	4603      	mov	r3, r0
    209e:	799b      	ldrb	r3, [r3, #6]
    20a0:	3301      	adds	r3, #1
    20a2:	b2db      	uxtb	r3, r3
    20a4:	71a3      	strb	r3, [r4, #6]
c:\users\kruci_000\desktop\university\soc\marsfinder\marsfinder\marsfinder_fw\modules\mavlink/mavlink_helpers.h:88
	msg->checksum = crc_calculate(((const uint8_t*)(msg)) + 3, MAVLINK_CORE_HEADER_LEN);
    20a6:	687b      	ldr	r3, [r7, #4]
    20a8:	3303      	adds	r3, #3
    20aa:	4618      	mov	r0, r3
    20ac:	2105      	movs	r1, #5
    20ae:	f7ff ff7d 	bl	1fac <crc_calculate>
    20b2:	4603      	mov	r3, r0
    20b4:	461a      	mov	r2, r3
    20b6:	687b      	ldr	r3, [r7, #4]
    20b8:	801a      	strh	r2, [r3, #0]
c:\users\kruci_000\desktop\university\soc\marsfinder\marsfinder\marsfinder_fw\modules\mavlink/mavlink_helpers.h:89
	crc_accumulate_buffer(&msg->checksum, _MAV_PAYLOAD(msg), msg->len);
    20ba:	6879      	ldr	r1, [r7, #4]
    20bc:	687b      	ldr	r3, [r7, #4]
    20be:	f103 0208 	add.w	r2, r3, #8
    20c2:	687b      	ldr	r3, [r7, #4]
    20c4:	78db      	ldrb	r3, [r3, #3]
    20c6:	b29b      	uxth	r3, r3
    20c8:	4608      	mov	r0, r1
    20ca:	4611      	mov	r1, r2
    20cc:	461a      	mov	r2, r3
    20ce:	f7ff ff8d 	bl	1fec <crc_accumulate_buffer>
c:\users\kruci_000\desktop\university\soc\marsfinder\marsfinder\marsfinder_fw\modules\mavlink/mavlink_helpers.h:91
#if MAVLINK_CRC_EXTRA
	crc_accumulate(crc_extra, &msg->checksum);
    20d2:	687b      	ldr	r3, [r7, #4]
    20d4:	f897 2020 	ldrb.w	r2, [r7, #32]
    20d8:	4610      	mov	r0, r2
    20da:	4619      	mov	r1, r3
    20dc:	f7ff ff28 	bl	1f30 <crc_accumulate>
c:\users\kruci_000\desktop\university\soc\marsfinder\marsfinder\marsfinder_fw\modules\mavlink/mavlink_helpers.h:93
#endif
	mavlink_ck_a(msg) = (uint8_t)(msg->checksum & 0xFF);
    20e0:	687b      	ldr	r3, [r7, #4]
    20e2:	3308      	adds	r3, #8
    20e4:	687a      	ldr	r2, [r7, #4]
    20e6:	78d2      	ldrb	r2, [r2, #3]
    20e8:	4413      	add	r3, r2
    20ea:	687a      	ldr	r2, [r7, #4]
    20ec:	8812      	ldrh	r2, [r2, #0]
    20ee:	b292      	uxth	r2, r2
    20f0:	b2d2      	uxtb	r2, r2
    20f2:	701a      	strb	r2, [r3, #0]
c:\users\kruci_000\desktop\university\soc\marsfinder\marsfinder\marsfinder_fw\modules\mavlink/mavlink_helpers.h:94
	mavlink_ck_b(msg) = (uint8_t)(msg->checksum >> 8);
    20f4:	687b      	ldr	r3, [r7, #4]
    20f6:	f103 0208 	add.w	r2, r3, #8
    20fa:	687b      	ldr	r3, [r7, #4]
    20fc:	78db      	ldrb	r3, [r3, #3]
    20fe:	3301      	adds	r3, #1
    2100:	4413      	add	r3, r2
    2102:	687a      	ldr	r2, [r7, #4]
    2104:	8812      	ldrh	r2, [r2, #0]
    2106:	b292      	uxth	r2, r2
    2108:	0a12      	lsrs	r2, r2, #8
    210a:	b292      	uxth	r2, r2
    210c:	b2d2      	uxtb	r2, r2
    210e:	701a      	strb	r2, [r3, #0]
c:\users\kruci_000\desktop\university\soc\marsfinder\marsfinder\marsfinder_fw\modules\mavlink/mavlink_helpers.h:96

	return length + MAVLINK_NUM_NON_PAYLOAD_BYTES;
    2110:	7f3b      	ldrb	r3, [r7, #28]
    2112:	b29b      	uxth	r3, r3
    2114:	3308      	adds	r3, #8
    2116:	b29b      	uxth	r3, r3
c:\users\kruci_000\desktop\university\soc\marsfinder\marsfinder\marsfinder_fw\modules\mavlink/mavlink_helpers.h:97
}
    2118:	4618      	mov	r0, r3
    211a:	370c      	adds	r7, #12
    211c:	46bd      	mov	sp, r7
    211e:	bd90      	pop	{r4, r7, pc}

00002120 <mavlink_finalize_message>:
mavlink_finalize_message():
c:\users\kruci_000\desktop\university\soc\marsfinder\marsfinder\marsfinder_fw\modules\mavlink/mavlink_helpers.h:106
 * @brief Finalize a MAVLink message with MAVLINK_COMM_0 as default channel
 */
#if MAVLINK_CRC_EXTRA
MAVLINK_HELPER uint16_t mavlink_finalize_message(mavlink_message_t* msg, uint8_t system_id, uint8_t component_id,
						 uint8_t min_length, uint8_t length, uint8_t crc_extra)
{
    2120:	b580      	push	{r7, lr}
    2122:	b086      	sub	sp, #24
    2124:	af04      	add	r7, sp, #16
    2126:	6078      	str	r0, [r7, #4]
    2128:	4608      	mov	r0, r1
    212a:	4611      	mov	r1, r2
    212c:	461a      	mov	r2, r3
    212e:	4603      	mov	r3, r0
    2130:	70fb      	strb	r3, [r7, #3]
    2132:	460b      	mov	r3, r1
    2134:	70bb      	strb	r3, [r7, #2]
    2136:	4613      	mov	r3, r2
    2138:	707b      	strb	r3, [r7, #1]
c:\users\kruci_000\desktop\university\soc\marsfinder\marsfinder\marsfinder_fw\modules\mavlink/mavlink_helpers.h:107
    return mavlink_finalize_message_chan(msg, system_id, component_id, MAVLINK_COMM_0, min_length, length, crc_extra);
    213a:	78f9      	ldrb	r1, [r7, #3]
    213c:	78ba      	ldrb	r2, [r7, #2]
    213e:	787b      	ldrb	r3, [r7, #1]
    2140:	9300      	str	r3, [sp, #0]
    2142:	7c3b      	ldrb	r3, [r7, #16]
    2144:	9301      	str	r3, [sp, #4]
    2146:	7d3b      	ldrb	r3, [r7, #20]
    2148:	9302      	str	r3, [sp, #8]
    214a:	6878      	ldr	r0, [r7, #4]
    214c:	2300      	movs	r3, #0
    214e:	f7ff ff7b 	bl	2048 <mavlink_finalize_message_chan>
    2152:	4603      	mov	r3, r0
c:\users\kruci_000\desktop\university\soc\marsfinder\marsfinder\marsfinder_fw\modules\mavlink/mavlink_helpers.h:108
}
    2154:	4618      	mov	r0, r3
    2156:	3708      	adds	r7, #8
    2158:	46bd      	mov	sp, r7
    215a:	bd80      	pop	{r7, pc}

0000215c <mavlink_msg_to_send_buffer>:
mavlink_msg_to_send_buffer():
c:\users\kruci_000\desktop\university\soc\marsfinder\marsfinder\marsfinder_fw\modules\mavlink/mavlink_helpers.h:180

/**
 * @brief Pack a message to send it over a serial byte stream
 */
MAVLINK_HELPER uint16_t mavlink_msg_to_send_buffer(uint8_t *buffer, const mavlink_message_t *msg)
{
    215c:	b580      	push	{r7, lr}
    215e:	b084      	sub	sp, #16
    2160:	af00      	add	r7, sp, #0
    2162:	6078      	str	r0, [r7, #4]
    2164:	6039      	str	r1, [r7, #0]
c:\users\kruci_000\desktop\university\soc\marsfinder\marsfinder\marsfinder_fw\modules\mavlink/mavlink_helpers.h:181
	memcpy(buffer, (const uint8_t *)&msg->magic, MAVLINK_NUM_HEADER_BYTES + (uint16_t)msg->len);
    2166:	683b      	ldr	r3, [r7, #0]
    2168:	1c9a      	adds	r2, r3, #2
    216a:	683b      	ldr	r3, [r7, #0]
    216c:	78db      	ldrb	r3, [r3, #3]
    216e:	3306      	adds	r3, #6
    2170:	6878      	ldr	r0, [r7, #4]
    2172:	4611      	mov	r1, r2
    2174:	461a      	mov	r2, r3
    2176:	f003 fa11 	bl	559c <memcpy>
c:\users\kruci_000\desktop\university\soc\marsfinder\marsfinder\marsfinder_fw\modules\mavlink/mavlink_helpers.h:183

	uint8_t *ck = buffer + (MAVLINK_NUM_HEADER_BYTES + (uint16_t)msg->len);
    217a:	683b      	ldr	r3, [r7, #0]
    217c:	78db      	ldrb	r3, [r3, #3]
    217e:	3306      	adds	r3, #6
    2180:	461a      	mov	r2, r3
    2182:	687b      	ldr	r3, [r7, #4]
    2184:	4413      	add	r3, r2
    2186:	60fb      	str	r3, [r7, #12]
c:\users\kruci_000\desktop\university\soc\marsfinder\marsfinder\marsfinder_fw\modules\mavlink/mavlink_helpers.h:185

	ck[0] = (uint8_t)(msg->checksum & 0xFF);
    2188:	683b      	ldr	r3, [r7, #0]
    218a:	881b      	ldrh	r3, [r3, #0]
    218c:	b29b      	uxth	r3, r3
    218e:	b2da      	uxtb	r2, r3
    2190:	68fb      	ldr	r3, [r7, #12]
    2192:	701a      	strb	r2, [r3, #0]
c:\users\kruci_000\desktop\university\soc\marsfinder\marsfinder\marsfinder_fw\modules\mavlink/mavlink_helpers.h:186
	ck[1] = (uint8_t)(msg->checksum >> 8);
    2194:	68fb      	ldr	r3, [r7, #12]
    2196:	3301      	adds	r3, #1
    2198:	683a      	ldr	r2, [r7, #0]
    219a:	8812      	ldrh	r2, [r2, #0]
    219c:	b292      	uxth	r2, r2
    219e:	0a12      	lsrs	r2, r2, #8
    21a0:	b292      	uxth	r2, r2
    21a2:	b2d2      	uxtb	r2, r2
    21a4:	701a      	strb	r2, [r3, #0]
c:\users\kruci_000\desktop\university\soc\marsfinder\marsfinder\marsfinder_fw\modules\mavlink/mavlink_helpers.h:188

	return MAVLINK_NUM_NON_PAYLOAD_BYTES + (uint16_t)msg->len;
    21a6:	683b      	ldr	r3, [r7, #0]
    21a8:	78db      	ldrb	r3, [r3, #3]
    21aa:	b29b      	uxth	r3, r3
    21ac:	3308      	adds	r3, #8
    21ae:	b29b      	uxth	r3, r3
c:\users\kruci_000\desktop\university\soc\marsfinder\marsfinder\marsfinder_fw\modules\mavlink/mavlink_helpers.h:189
}
    21b0:	4618      	mov	r0, r3
    21b2:	3710      	adds	r7, #16
    21b4:	46bd      	mov	sp, r7
    21b6:	bd80      	pop	{r7, pc}

000021b8 <mav_array_memcpy>:
mav_array_memcpy():
c:\users\kruci_000\desktop\university\soc\marsfinder\marsfinder\marsfinder_fw\modules\mavlink/protocol.h:177

/*
  like memcpy(), but if src is NULL, do a memset to zero
*/
static inline void mav_array_memcpy(void *dest, const void *src, size_t n)
{
    21b8:	b580      	push	{r7, lr}
    21ba:	b084      	sub	sp, #16
    21bc:	af00      	add	r7, sp, #0
    21be:	60f8      	str	r0, [r7, #12]
    21c0:	60b9      	str	r1, [r7, #8]
    21c2:	607a      	str	r2, [r7, #4]
c:\users\kruci_000\desktop\university\soc\marsfinder\marsfinder\marsfinder_fw\modules\mavlink/protocol.h:178
	if (src == NULL) {
    21c4:	68bb      	ldr	r3, [r7, #8]
    21c6:	2b00      	cmp	r3, #0
    21c8:	d105      	bne.n	21d6 <mav_array_memcpy+0x1e>
c:\users\kruci_000\desktop\university\soc\marsfinder\marsfinder\marsfinder_fw\modules\mavlink/protocol.h:179
		memset(dest, 0, n);
    21ca:	68f8      	ldr	r0, [r7, #12]
    21cc:	2100      	movs	r1, #0
    21ce:	687a      	ldr	r2, [r7, #4]
    21d0:	f003 f9ef 	bl	55b2 <memset>
    21d4:	e004      	b.n	21e0 <mav_array_memcpy+0x28>
c:\users\kruci_000\desktop\university\soc\marsfinder\marsfinder\marsfinder_fw\modules\mavlink/protocol.h:181
	} else {
		memcpy(dest, src, n);
    21d6:	68f8      	ldr	r0, [r7, #12]
    21d8:	68b9      	ldr	r1, [r7, #8]
    21da:	687a      	ldr	r2, [r7, #4]
    21dc:	f003 f9de 	bl	559c <memcpy>
c:\users\kruci_000\desktop\university\soc\marsfinder\marsfinder\marsfinder_fw\modules\mavlink/protocol.h:183
	}
}
    21e0:	3710      	adds	r7, #16
    21e2:	46bd      	mov	sp, r7
    21e4:	bd80      	pop	{r7, pc}
    21e6:	bf00      	nop

000021e8 <mavlink_msg_param_value_pack>:
mavlink_msg_param_value_pack():
c:\users\kruci_000\desktop\university\soc\marsfinder\marsfinder\marsfinder_fw\modules\mavlink\common/mavlink_msg_param_value.h:64
 * @param param_index Index of this onboard parameter
 * @return length of the message in bytes (excluding serial stream start sign)
 */
static inline uint16_t mavlink_msg_param_value_pack(uint8_t system_id, uint8_t component_id, mavlink_message_t* msg,
						       const char *param_id, float param_value, uint8_t param_type, uint16_t param_count, uint16_t param_index)
{
    21e8:	b580      	push	{r7, lr}
    21ea:	b08e      	sub	sp, #56	; 0x38
    21ec:	af02      	add	r7, sp, #8
    21ee:	60ba      	str	r2, [r7, #8]
    21f0:	607b      	str	r3, [r7, #4]
    21f2:	4603      	mov	r3, r0
    21f4:	73fb      	strb	r3, [r7, #15]
    21f6:	460b      	mov	r3, r1
    21f8:	73bb      	strb	r3, [r7, #14]
c:\users\kruci_000\desktop\university\soc\marsfinder\marsfinder\marsfinder_fw\modules\mavlink\common/mavlink_msg_param_value.h:75
	_mav_put_uint8_t(buf, 24, param_type);
	_mav_put_char_array(buf, 8, param_id, 16);
        memcpy(_MAV_PAYLOAD_NON_CONST(msg), buf, MAVLINK_MSG_ID_PARAM_VALUE_LEN);
#else
	mavlink_param_value_t packet;
	packet.param_value = param_value;
    21fa:	6bbb      	ldr	r3, [r7, #56]	; 0x38
    21fc:	617b      	str	r3, [r7, #20]
c:\users\kruci_000\desktop\university\soc\marsfinder\marsfinder\marsfinder_fw\modules\mavlink\common/mavlink_msg_param_value.h:76
	packet.param_count = param_count;
    21fe:	f8b7 3040 	ldrh.w	r3, [r7, #64]	; 0x40
    2202:	833b      	strh	r3, [r7, #24]
c:\users\kruci_000\desktop\university\soc\marsfinder\marsfinder\marsfinder_fw\modules\mavlink\common/mavlink_msg_param_value.h:77
	packet.param_index = param_index;
    2204:	f8b7 3044 	ldrh.w	r3, [r7, #68]	; 0x44
    2208:	837b      	strh	r3, [r7, #26]
c:\users\kruci_000\desktop\university\soc\marsfinder\marsfinder\marsfinder_fw\modules\mavlink\common/mavlink_msg_param_value.h:78
	packet.param_type = param_type;
    220a:	f897 303c 	ldrb.w	r3, [r7, #60]	; 0x3c
    220e:	f887 302c 	strb.w	r3, [r7, #44]	; 0x2c
c:\users\kruci_000\desktop\university\soc\marsfinder\marsfinder\marsfinder_fw\modules\mavlink\common/mavlink_msg_param_value.h:79
	mav_array_memcpy(packet.param_id, param_id, sizeof(char)*16);
    2212:	f107 0314 	add.w	r3, r7, #20
    2216:	3308      	adds	r3, #8
    2218:	4618      	mov	r0, r3
    221a:	6879      	ldr	r1, [r7, #4]
    221c:	2210      	movs	r2, #16
    221e:	f7ff ffcb 	bl	21b8 <mav_array_memcpy>
c:\users\kruci_000\desktop\university\soc\marsfinder\marsfinder\marsfinder_fw\modules\mavlink\common/mavlink_msg_param_value.h:80
        memcpy(_MAV_PAYLOAD_NON_CONST(msg), &packet, MAVLINK_MSG_ID_PARAM_VALUE_LEN);
    2222:	68bb      	ldr	r3, [r7, #8]
    2224:	f103 0208 	add.w	r2, r3, #8
    2228:	f107 0314 	add.w	r3, r7, #20
    222c:	4610      	mov	r0, r2
    222e:	4619      	mov	r1, r3
    2230:	2219      	movs	r2, #25
    2232:	f003 f9b3 	bl	559c <memcpy>
c:\users\kruci_000\desktop\university\soc\marsfinder\marsfinder\marsfinder_fw\modules\mavlink\common/mavlink_msg_param_value.h:83
#endif

	msg->msgid = MAVLINK_MSG_ID_PARAM_VALUE;
    2236:	68bb      	ldr	r3, [r7, #8]
    2238:	2216      	movs	r2, #22
    223a:	71da      	strb	r2, [r3, #7]
c:\users\kruci_000\desktop\university\soc\marsfinder\marsfinder\marsfinder_fw\modules\mavlink\common/mavlink_msg_param_value.h:84
    return mavlink_finalize_message(msg, system_id, component_id, MAVLINK_MSG_ID_PARAM_VALUE_MIN_LEN, MAVLINK_MSG_ID_PARAM_VALUE_LEN, MAVLINK_MSG_ID_PARAM_VALUE_CRC);
    223c:	7bf9      	ldrb	r1, [r7, #15]
    223e:	7bba      	ldrb	r2, [r7, #14]
    2240:	2319      	movs	r3, #25
    2242:	9300      	str	r3, [sp, #0]
    2244:	23dc      	movs	r3, #220	; 0xdc
    2246:	9301      	str	r3, [sp, #4]
    2248:	68b8      	ldr	r0, [r7, #8]
    224a:	2319      	movs	r3, #25
    224c:	f7ff ff68 	bl	2120 <mavlink_finalize_message>
    2250:	4603      	mov	r3, r0
c:\users\kruci_000\desktop\university\soc\marsfinder\marsfinder\marsfinder_fw\modules\mavlink\common/mavlink_msg_param_value.h:85
}
    2252:	4618      	mov	r0, r3
    2254:	3730      	adds	r7, #48	; 0x30
    2256:	46bd      	mov	sp, r7
    2258:	bd80      	pop	{r7, pc}
    225a:	bf00      	nop

0000225c <param_send>:
param_send():
C:\Users\kruci_000\Desktop\University\SoC\Marsfinder\Marsfinder\Marsfinder_FW\Debug/../Modules/Parameters_Holder/param_holder.c:27
             "TEMP_CS",
             "CONTROL"}};

static uint16_t m_parameter_i = 0;

void param_send(uint8_t index) {
    225c:	b5b0      	push	{r4, r5, r7, lr}
    225e:	f5ad 7d0e 	sub.w	sp, sp, #568	; 0x238
    2262:	af04      	add	r7, sp, #16
    2264:	4602      	mov	r2, r0
    2266:	1dfb      	adds	r3, r7, #7
    2268:	701a      	strb	r2, [r3, #0]
C:\Users\kruci_000\Desktop\University\SoC\Marsfinder\Marsfinder\Marsfinder_FW\Debug/../Modules/Parameters_Holder/param_holder.c:32
    mavlink_message_t message;
    uint8_t buffer[MAVLINK_MAX_PACKET_LEN];
    uint8_t len;

    mavlink_msg_param_value_pack(
    226a:	4b1b      	ldr	r3, [pc, #108]	; (22d8 <param_send+0x7c>)
    226c:	7818      	ldrb	r0, [r3, #0]
    226e:	4b1a      	ldr	r3, [pc, #104]	; (22d8 <param_send+0x7c>)
    2270:	7859      	ldrb	r1, [r3, #1]
C:\Users\kruci_000\Desktop\University\SoC\Marsfinder\Marsfinder\Marsfinder_FW\Debug/../Modules/Parameters_Holder/param_holder.c:36
        mavlink_system.sysid,
        mavlink_system.compid,
        &message,
        params.param_name[index],
    2272:	1dfb      	adds	r3, r7, #7
    2274:	781b      	ldrb	r3, [r3, #0]
    2276:	011b      	lsls	r3, r3, #4
    2278:	3328      	adds	r3, #40	; 0x28
    227a:	4a18      	ldr	r2, [pc, #96]	; (22dc <param_send+0x80>)
    227c:	4413      	add	r3, r2
    227e:	1d1c      	adds	r4, r3, #4
C:\Users\kruci_000\Desktop\University\SoC\Marsfinder\Marsfinder\Marsfinder_FW\Debug/../Modules/Parameters_Holder/param_holder.c:32
void param_send(uint8_t index) {
    mavlink_message_t message;
    uint8_t buffer[MAVLINK_MAX_PACKET_LEN];
    uint8_t len;

    mavlink_msg_param_value_pack(
    2280:	1dfb      	adds	r3, r7, #7
    2282:	781b      	ldrb	r3, [r3, #0]
    2284:	4a15      	ldr	r2, [pc, #84]	; (22dc <param_send+0x80>)
    2286:	f852 2023 	ldr.w	r2, [r2, r3, lsl #2]
    228a:	1dfb      	adds	r3, r7, #7
    228c:	781b      	ldrb	r3, [r3, #0]
    228e:	b29b      	uxth	r3, r3
    2290:	f507 758a 	add.w	r5, r7, #276	; 0x114
    2294:	9200      	str	r2, [sp, #0]
    2296:	2204      	movs	r2, #4
    2298:	9201      	str	r2, [sp, #4]
    229a:	220b      	movs	r2, #11
    229c:	9202      	str	r2, [sp, #8]
    229e:	9303      	str	r3, [sp, #12]
    22a0:	462a      	mov	r2, r5
    22a2:	4623      	mov	r3, r4
    22a4:	f7ff ffa0 	bl	21e8 <mavlink_msg_param_value_pack>
C:\Users\kruci_000\Desktop\University\SoC\Marsfinder\Marsfinder\Marsfinder_FW\Debug/../Modules/Parameters_Holder/param_holder.c:41
        params.param_name[index],
        params.param[index],
        MAVLINK_TYPE_INT16_T,
        ONBOARD_PARAM_COUNT,
        index);
    len = mavlink_msg_to_send_buffer(buffer, &message);
    22a8:	f107 020c 	add.w	r2, r7, #12
    22ac:	f507 738a 	add.w	r3, r7, #276	; 0x114
    22b0:	4610      	mov	r0, r2
    22b2:	4619      	mov	r1, r3
    22b4:	f7ff ff52 	bl	215c <mavlink_msg_to_send_buffer>
    22b8:	4603      	mov	r3, r0
    22ba:	f887 3227 	strb.w	r3, [r7, #551]	; 0x227
C:\Users\kruci_000\Desktop\University\SoC\Marsfinder\Marsfinder\Marsfinder_FW\Debug/../Modules/Parameters_Holder/param_holder.c:42
    BT_send(buffer, len);
    22be:	f897 3227 	ldrb.w	r3, [r7, #551]	; 0x227
    22c2:	f107 020c 	add.w	r2, r7, #12
    22c6:	4610      	mov	r0, r2
    22c8:	4619      	mov	r1, r3
    22ca:	f7ff fdb3 	bl	1e34 <BT_send>
C:\Users\kruci_000\Desktop\University\SoC\Marsfinder\Marsfinder\Marsfinder_FW\Debug/../Modules/Parameters_Holder/param_holder.c:43
}
    22ce:	f507 770a 	add.w	r7, r7, #552	; 0x228
    22d2:	46bd      	mov	sp, r7
    22d4:	bdb0      	pop	{r4, r5, r7, pc}
    22d6:	bf00      	nop
    22d8:	200000e0 	.word	0x200000e0
    22dc:	20000004 	.word	0x20000004

000022e0 <param_queued_send_start>:
param_queued_send_start():
C:\Users\kruci_000\Desktop\University\SoC\Marsfinder\Marsfinder\Marsfinder_FW\Debug/../Modules/Parameters_Holder/param_holder.c:45

void param_queued_send_start(void) {
    22e0:	b480      	push	{r7}
    22e2:	af00      	add	r7, sp, #0
C:\Users\kruci_000\Desktop\University\SoC\Marsfinder\Marsfinder\Marsfinder_FW\Debug/../Modules/Parameters_Holder/param_holder.c:46
    m_parameter_i = 0;
    22e4:	4b03      	ldr	r3, [pc, #12]	; (22f4 <param_queued_send_start+0x14>)
    22e6:	2200      	movs	r2, #0
    22e8:	801a      	strh	r2, [r3, #0]
C:\Users\kruci_000\Desktop\University\SoC\Marsfinder\Marsfinder\Marsfinder_FW\Debug/../Modules/Parameters_Holder/param_holder.c:47
}
    22ea:	46bd      	mov	sp, r7
    22ec:	f85d 7b04 	ldr.w	r7, [sp], #4
    22f0:	4770      	bx	lr
    22f2:	bf00      	nop
    22f4:	20000160 	.word	0x20000160

000022f8 <param_queued_send_routine>:
param_queued_send_routine():
C:\Users\kruci_000\Desktop\University\SoC\Marsfinder\Marsfinder\Marsfinder_FW\Debug/../Modules/Parameters_Holder/param_holder.c:49

void param_queued_send_routine(void) {
    22f8:	b580      	push	{r7, lr}
    22fa:	af00      	add	r7, sp, #0
C:\Users\kruci_000\Desktop\University\SoC\Marsfinder\Marsfinder\Marsfinder_FW\Debug/../Modules/Parameters_Holder/param_holder.c:50
    if (m_parameter_i < ONBOARD_PARAM_COUNT) {
    22fc:	4b08      	ldr	r3, [pc, #32]	; (2320 <param_queued_send_routine+0x28>)
    22fe:	881b      	ldrh	r3, [r3, #0]
    2300:	2b0a      	cmp	r3, #10
    2302:	d80b      	bhi.n	231c <param_queued_send_routine+0x24>
C:\Users\kruci_000\Desktop\University\SoC\Marsfinder\Marsfinder\Marsfinder_FW\Debug/../Modules/Parameters_Holder/param_holder.c:51
        param_send(m_parameter_i);
    2304:	4b06      	ldr	r3, [pc, #24]	; (2320 <param_queued_send_routine+0x28>)
    2306:	881b      	ldrh	r3, [r3, #0]
    2308:	b2db      	uxtb	r3, r3
    230a:	4618      	mov	r0, r3
    230c:	f7ff ffa6 	bl	225c <param_send>
C:\Users\kruci_000\Desktop\University\SoC\Marsfinder\Marsfinder\Marsfinder_FW\Debug/../Modules/Parameters_Holder/param_holder.c:52
        m_parameter_i++;
    2310:	4b03      	ldr	r3, [pc, #12]	; (2320 <param_queued_send_routine+0x28>)
    2312:	881b      	ldrh	r3, [r3, #0]
    2314:	3301      	adds	r3, #1
    2316:	b29a      	uxth	r2, r3
    2318:	4b01      	ldr	r3, [pc, #4]	; (2320 <param_queued_send_routine+0x28>)
    231a:	801a      	strh	r2, [r3, #0]
C:\Users\kruci_000\Desktop\University\SoC\Marsfinder\Marsfinder\Marsfinder_FW\Debug/../Modules/Parameters_Holder/param_holder.c:54
    }
}
    231c:	bd80      	pop	{r7, pc}
    231e:	bf00      	nop
    2320:	20000160 	.word	0x20000160

00002324 <MPU6050_init>:
MPU6050_init():
C:\Users\kruci_000\Desktop\University\SoC\Marsfinder\Marsfinder\Marsfinder_FW\Debug/../Modules/MPU6050/mpu6050.c:14
               c_gx,
               c_gy,
               c_gz,
               c_t;

void MPU6050_init() {
    2324:	b580      	push	{r7, lr}
    2326:	af00      	add	r7, sp, #0
C:\Users\kruci_000\Desktop\University\SoC\Marsfinder\Marsfinder\Marsfinder_FW\Debug/../Modules/MPU6050/mpu6050.c:15
    MPU6050_setClockSource(MPU6050_CLOCK_PLL_XGYRO);
    2328:	2001      	movs	r0, #1
    232a:	f000 f813 	bl	2354 <MPU6050_setClockSource>
C:\Users\kruci_000\Desktop\University\SoC\Marsfinder\Marsfinder\Marsfinder_FW\Debug/../Modules/MPU6050/mpu6050.c:16
    MPU6050_setFullScaleGyroRange(MPU6050_GYRO_FS_1000);
    232e:	2002      	movs	r0, #2
    2330:	f000 f820 	bl	2374 <MPU6050_setFullScaleGyroRange>
C:\Users\kruci_000\Desktop\University\SoC\Marsfinder\Marsfinder\Marsfinder_FW\Debug/../Modules/MPU6050/mpu6050.c:17
    MPU6050_setFullScaleAccelRange(MPU6050_ACCEL_FS_4);
    2334:	2001      	movs	r0, #1
    2336:	f000 f833 	bl	23a0 <MPU6050_setFullScaleAccelRange>
C:\Users\kruci_000\Desktop\University\SoC\Marsfinder\Marsfinder\Marsfinder_FW\Debug/../Modules/MPU6050/mpu6050.c:18
    MPU6050_setBypassMode(1);
    233a:	2001      	movs	r0, #1
    233c:	f000 f854 	bl	23e8 <MPU6050_setBypassMode>
C:\Users\kruci_000\Desktop\University\SoC\Marsfinder\Marsfinder\Marsfinder_FW\Debug/../Modules/MPU6050/mpu6050.c:19
    MPU6050_setSleepEnabled(0); // thanks to Jack Elston for pointing this one out!
    2340:	2000      	movs	r0, #0
    2342:	f000 f843 	bl	23cc <MPU6050_setSleepEnabled>
C:\Users\kruci_000\Desktop\University\SoC\Marsfinder\Marsfinder\Marsfinder_FW\Debug/../Modules/MPU6050/mpu6050.c:21

    MPU6050_setDLPFMode(MPU6050_DLPF_BW_42);
    2346:	2003      	movs	r0, #3
    2348:	f000 f85c 	bl	2404 <MPU6050_setDLPFMode>
C:\Users\kruci_000\Desktop\University\SoC\Marsfinder\Marsfinder\Marsfinder_FW\Debug/../Modules/MPU6050/mpu6050.c:23

    MPU6050_calibration();
    234c:	f000 f86a 	bl	2424 <MPU6050_calibration>
C:\Users\kruci_000\Desktop\University\SoC\Marsfinder\Marsfinder\Marsfinder_FW\Debug/../Modules/MPU6050/mpu6050.c:24
}
    2350:	bd80      	pop	{r7, pc}
    2352:	bf00      	nop

00002354 <MPU6050_setClockSource>:
MPU6050_setClockSource():
C:\Users\kruci_000\Desktop\University\SoC\Marsfinder\Marsfinder\Marsfinder_FW\Debug/../Modules/MPU6050/mpu6050.c:26

void MPU6050_setClockSource(uint8_t source) {
    2354:	b580      	push	{r7, lr}
    2356:	b084      	sub	sp, #16
    2358:	af02      	add	r7, sp, #8
    235a:	4603      	mov	r3, r0
    235c:	71fb      	strb	r3, [r7, #7]
C:\Users\kruci_000\Desktop\University\SoC\Marsfinder\Marsfinder\Marsfinder_FW\Debug/../Modules/MPU6050/mpu6050.c:27
    i2c_writeBits(MPU6050_ADDRESS,
    235e:	79fb      	ldrb	r3, [r7, #7]
    2360:	9300      	str	r3, [sp, #0]
    2362:	2068      	movs	r0, #104	; 0x68
    2364:	216b      	movs	r1, #107	; 0x6b
    2366:	2202      	movs	r2, #2
    2368:	2303      	movs	r3, #3
    236a:	f000 fbd5 	bl	2b18 <i2c_writeBits>
C:\Users\kruci_000\Desktop\University\SoC\Marsfinder\Marsfinder\Marsfinder_FW\Debug/../Modules/MPU6050/mpu6050.c:31
    MPU6050_RA_PWR_MGMT_1,
    MPU6050_PWR1_CLKSEL_BIT,
    MPU6050_PWR1_CLKSEL_LENGTH, source);
}
    236e:	3708      	adds	r7, #8
    2370:	46bd      	mov	sp, r7
    2372:	bd80      	pop	{r7, pc}

00002374 <MPU6050_setFullScaleGyroRange>:
MPU6050_setFullScaleGyroRange():
C:\Users\kruci_000\Desktop\University\SoC\Marsfinder\Marsfinder\Marsfinder_FW\Debug/../Modules/MPU6050/mpu6050.c:33

void MPU6050_setFullScaleGyroRange(uint8_t range) {
    2374:	b580      	push	{r7, lr}
    2376:	b084      	sub	sp, #16
    2378:	af02      	add	r7, sp, #8
    237a:	4603      	mov	r3, r0
    237c:	71fb      	strb	r3, [r7, #7]
C:\Users\kruci_000\Desktop\University\SoC\Marsfinder\Marsfinder\Marsfinder_FW\Debug/../Modules/MPU6050/mpu6050.c:34
    cur_gyro_range = range;
    237e:	4a07      	ldr	r2, [pc, #28]	; (239c <MPU6050_setFullScaleGyroRange+0x28>)
    2380:	79fb      	ldrb	r3, [r7, #7]
    2382:	7013      	strb	r3, [r2, #0]
C:\Users\kruci_000\Desktop\University\SoC\Marsfinder\Marsfinder\Marsfinder_FW\Debug/../Modules/MPU6050/mpu6050.c:35
    i2c_writeBits(MPU6050_ADDRESS,
    2384:	79fb      	ldrb	r3, [r7, #7]
    2386:	9300      	str	r3, [sp, #0]
    2388:	2068      	movs	r0, #104	; 0x68
    238a:	211b      	movs	r1, #27
    238c:	2204      	movs	r2, #4
    238e:	2302      	movs	r3, #2
    2390:	f000 fbc2 	bl	2b18 <i2c_writeBits>
C:\Users\kruci_000\Desktop\University\SoC\Marsfinder\Marsfinder\Marsfinder_FW\Debug/../Modules/MPU6050/mpu6050.c:39
    MPU6050_RA_GYRO_CONFIG,
    MPU6050_GCONFIG_FS_SEL_BIT,
    MPU6050_GCONFIG_FS_SEL_LENGTH, range);
}
    2394:	3708      	adds	r7, #8
    2396:	46bd      	mov	sp, r7
    2398:	bd80      	pop	{r7, pc}
    239a:	bf00      	nop
    239c:	20000194 	.word	0x20000194

000023a0 <MPU6050_setFullScaleAccelRange>:
MPU6050_setFullScaleAccelRange():
C:\Users\kruci_000\Desktop\University\SoC\Marsfinder\Marsfinder\Marsfinder_FW\Debug/../Modules/MPU6050/mpu6050.c:41

void MPU6050_setFullScaleAccelRange(uint8_t range) {
    23a0:	b580      	push	{r7, lr}
    23a2:	b084      	sub	sp, #16
    23a4:	af02      	add	r7, sp, #8
    23a6:	4603      	mov	r3, r0
    23a8:	71fb      	strb	r3, [r7, #7]
C:\Users\kruci_000\Desktop\University\SoC\Marsfinder\Marsfinder\Marsfinder_FW\Debug/../Modules/MPU6050/mpu6050.c:42
    cur_accel_range = range;
    23aa:	4a07      	ldr	r2, [pc, #28]	; (23c8 <MPU6050_setFullScaleAccelRange+0x28>)
    23ac:	79fb      	ldrb	r3, [r7, #7]
    23ae:	7013      	strb	r3, [r2, #0]
C:\Users\kruci_000\Desktop\University\SoC\Marsfinder\Marsfinder\Marsfinder_FW\Debug/../Modules/MPU6050/mpu6050.c:43
    i2c_writeBits(MPU6050_ADDRESS,
    23b0:	79fb      	ldrb	r3, [r7, #7]
    23b2:	9300      	str	r3, [sp, #0]
    23b4:	2068      	movs	r0, #104	; 0x68
    23b6:	211c      	movs	r1, #28
    23b8:	2204      	movs	r2, #4
    23ba:	2302      	movs	r3, #2
    23bc:	f000 fbac 	bl	2b18 <i2c_writeBits>
C:\Users\kruci_000\Desktop\University\SoC\Marsfinder\Marsfinder\Marsfinder_FW\Debug/../Modules/MPU6050/mpu6050.c:47
    MPU6050_RA_ACCEL_CONFIG,
    MPU6050_ACONFIG_AFS_SEL_BIT,
    MPU6050_ACONFIG_AFS_SEL_LENGTH, range);
}
    23c0:	3708      	adds	r7, #8
    23c2:	46bd      	mov	sp, r7
    23c4:	bd80      	pop	{r7, pc}
    23c6:	bf00      	nop
    23c8:	20000195 	.word	0x20000195

000023cc <MPU6050_setSleepEnabled>:
MPU6050_setSleepEnabled():
C:\Users\kruci_000\Desktop\University\SoC\Marsfinder\Marsfinder\Marsfinder_FW\Debug/../Modules/MPU6050/mpu6050.c:49

void MPU6050_setSleepEnabled(uint8_t enabled) {
    23cc:	b580      	push	{r7, lr}
    23ce:	b082      	sub	sp, #8
    23d0:	af00      	add	r7, sp, #0
    23d2:	4603      	mov	r3, r0
    23d4:	71fb      	strb	r3, [r7, #7]
C:\Users\kruci_000\Desktop\University\SoC\Marsfinder\Marsfinder\Marsfinder_FW\Debug/../Modules/MPU6050/mpu6050.c:50
    i2c_writeBit(MPU6050_ADDRESS,
    23d6:	79fb      	ldrb	r3, [r7, #7]
    23d8:	2068      	movs	r0, #104	; 0x68
    23da:	216b      	movs	r1, #107	; 0x6b
    23dc:	2206      	movs	r2, #6
    23de:	f000 fc09 	bl	2bf4 <i2c_writeBit>
C:\Users\kruci_000\Desktop\University\SoC\Marsfinder\Marsfinder\Marsfinder_FW\Debug/../Modules/MPU6050/mpu6050.c:53
    MPU6050_RA_PWR_MGMT_1,
    MPU6050_PWR1_SLEEP_BIT, enabled);
}
    23e2:	3708      	adds	r7, #8
    23e4:	46bd      	mov	sp, r7
    23e6:	bd80      	pop	{r7, pc}

000023e8 <MPU6050_setBypassMode>:
MPU6050_setBypassMode():
C:\Users\kruci_000\Desktop\University\SoC\Marsfinder\Marsfinder\Marsfinder_FW\Debug/../Modules/MPU6050/mpu6050.c:59

/*
 * Just for accessing HMC from MC
 * data got from http://forum.arduino.cc/index.php?topic=223345.msg2142479#msg2142479
 */
void MPU6050_setBypassMode(uint8_t enabled) {
    23e8:	b580      	push	{r7, lr}
    23ea:	b082      	sub	sp, #8
    23ec:	af00      	add	r7, sp, #0
    23ee:	4603      	mov	r3, r0
    23f0:	71fb      	strb	r3, [r7, #7]
C:\Users\kruci_000\Desktop\University\SoC\Marsfinder\Marsfinder\Marsfinder_FW\Debug/../Modules/MPU6050/mpu6050.c:74
     tx_buf[0] = 0x6A; // register address
     tx_buf[1] = 0x00; // needed value

     i2c_writeBytes(MPU6050_ADDRESS, tx_buf, tx_len);
     */
    i2c_writeBit(MPU6050_ADDRESS,
    23f2:	79fb      	ldrb	r3, [r7, #7]
    23f4:	2068      	movs	r0, #104	; 0x68
    23f6:	2137      	movs	r1, #55	; 0x37
    23f8:	2201      	movs	r2, #1
    23fa:	f000 fbfb 	bl	2bf4 <i2c_writeBit>
C:\Users\kruci_000\Desktop\University\SoC\Marsfinder\Marsfinder\Marsfinder_FW\Debug/../Modules/MPU6050/mpu6050.c:77
    MPU6050_RA_INT_PIN_CFG,
    MPU6050_INTCFG_I2C_BYPASS_EN_BIT, enabled);
}
    23fe:	3708      	adds	r7, #8
    2400:	46bd      	mov	sp, r7
    2402:	bd80      	pop	{r7, pc}

00002404 <MPU6050_setDLPFMode>:
MPU6050_setDLPFMode():
C:\Users\kruci_000\Desktop\University\SoC\Marsfinder\Marsfinder\Marsfinder_FW\Debug/../Modules/MPU6050/mpu6050.c:79

void MPU6050_setDLPFMode(uint8_t mode) {
    2404:	b580      	push	{r7, lr}
    2406:	b084      	sub	sp, #16
    2408:	af02      	add	r7, sp, #8
    240a:	4603      	mov	r3, r0
    240c:	71fb      	strb	r3, [r7, #7]
C:\Users\kruci_000\Desktop\University\SoC\Marsfinder\Marsfinder\Marsfinder_FW\Debug/../Modules/MPU6050/mpu6050.c:80
    i2c_writeBits(MPU6050_ADDRESS,
    240e:	79fb      	ldrb	r3, [r7, #7]
    2410:	9300      	str	r3, [sp, #0]
    2412:	2068      	movs	r0, #104	; 0x68
    2414:	211a      	movs	r1, #26
    2416:	2202      	movs	r2, #2
    2418:	2303      	movs	r3, #3
    241a:	f000 fb7d 	bl	2b18 <i2c_writeBits>
C:\Users\kruci_000\Desktop\University\SoC\Marsfinder\Marsfinder\Marsfinder_FW\Debug/../Modules/MPU6050/mpu6050.c:84
    MPU6050_RA_CONFIG,
    MPU6050_CFG_DLPF_CFG_BIT,
    MPU6050_CFG_DLPF_CFG_LENGTH, mode);
}
    241e:	3708      	adds	r7, #8
    2420:	46bd      	mov	sp, r7
    2422:	bd80      	pop	{r7, pc}

00002424 <MPU6050_calibration>:
MPU6050_calibration():
C:\Users\kruci_000\Desktop\University\SoC\Marsfinder\Marsfinder\Marsfinder_FW\Debug/../Modules/MPU6050/mpu6050.c:86

void MPU6050_calibration() {
    2424:	b590      	push	{r4, r7, lr}
    2426:	b089      	sub	sp, #36	; 0x24
    2428:	af04      	add	r7, sp, #16
C:\Users\kruci_000\Desktop\University\SoC\Marsfinder\Marsfinder\Marsfinder_FW\Debug/../Modules/MPU6050/mpu6050.c:97
    int16_t _gx;
    int16_t _gy;
    int16_t _gz;
    int16_t _t;

    MPU6050_getRawData(&c_ax, &c_ay, &c_az,
    242a:	4b37      	ldr	r3, [pc, #220]	; (2508 <MPU6050_calibration+0xe4>)
    242c:	9300      	str	r3, [sp, #0]
    242e:	4b37      	ldr	r3, [pc, #220]	; (250c <MPU6050_calibration+0xe8>)
    2430:	9301      	str	r3, [sp, #4]
    2432:	4b37      	ldr	r3, [pc, #220]	; (2510 <MPU6050_calibration+0xec>)
    2434:	9302      	str	r3, [sp, #8]
    2436:	4837      	ldr	r0, [pc, #220]	; (2514 <MPU6050_calibration+0xf0>)
    2438:	4937      	ldr	r1, [pc, #220]	; (2518 <MPU6050_calibration+0xf4>)
    243a:	4a38      	ldr	r2, [pc, #224]	; (251c <MPU6050_calibration+0xf8>)
    243c:	4b38      	ldr	r3, [pc, #224]	; (2520 <MPU6050_calibration+0xfc>)
    243e:	f000 f871 	bl	2524 <MPU6050_getRawData>
C:\Users\kruci_000\Desktop\University\SoC\Marsfinder\Marsfinder\Marsfinder_FW\Debug/../Modules/MPU6050/mpu6050.c:99
                       &c_gx, &c_gy, &c_gz, &c_t);
    for (i = 0; i < MPU_CALIBRATION_SAMPLES_COUNT; i++) {
    2442:	2300      	movs	r3, #0
    2444:	81fb      	strh	r3, [r7, #14]
    2446:	e058      	b.n	24fa <MPU6050_calibration+0xd6>
C:\Users\kruci_000\Desktop\University\SoC\Marsfinder\Marsfinder\Marsfinder_FW\Debug/../Modules/MPU6050/mpu6050.c:100 (discriminator 3)
        MPU6050_getRawData(&_ax, &_ay, &_az, &_gx, &_gy, &_gz, &_t);
    2448:	f107 000c 	add.w	r0, r7, #12
    244c:	f107 010a 	add.w	r1, r7, #10
    2450:	f107 0208 	add.w	r2, r7, #8
    2454:	1dbc      	adds	r4, r7, #6
    2456:	1d3b      	adds	r3, r7, #4
    2458:	9300      	str	r3, [sp, #0]
    245a:	1cbb      	adds	r3, r7, #2
    245c:	9301      	str	r3, [sp, #4]
    245e:	463b      	mov	r3, r7
    2460:	9302      	str	r3, [sp, #8]
    2462:	4623      	mov	r3, r4
    2464:	f000 f85e 	bl	2524 <MPU6050_getRawData>
C:\Users\kruci_000\Desktop\University\SoC\Marsfinder\Marsfinder\Marsfinder_FW\Debug/../Modules/MPU6050/mpu6050.c:101 (discriminator 3)
        c_ax = ((uint32_t)(c_ax + _ax)) / 2;
    2468:	4b2a      	ldr	r3, [pc, #168]	; (2514 <MPU6050_calibration+0xf0>)
    246a:	881b      	ldrh	r3, [r3, #0]
    246c:	b21a      	sxth	r2, r3
    246e:	89bb      	ldrh	r3, [r7, #12]
    2470:	b21b      	sxth	r3, r3
    2472:	4413      	add	r3, r2
    2474:	085b      	lsrs	r3, r3, #1
    2476:	b29a      	uxth	r2, r3
    2478:	4b26      	ldr	r3, [pc, #152]	; (2514 <MPU6050_calibration+0xf0>)
    247a:	801a      	strh	r2, [r3, #0]
C:\Users\kruci_000\Desktop\University\SoC\Marsfinder\Marsfinder\Marsfinder_FW\Debug/../Modules/MPU6050/mpu6050.c:102 (discriminator 3)
        c_ay = ((uint32_t)(c_ay + _ay)) / 2;
    247c:	4b26      	ldr	r3, [pc, #152]	; (2518 <MPU6050_calibration+0xf4>)
    247e:	881b      	ldrh	r3, [r3, #0]
    2480:	b21a      	sxth	r2, r3
    2482:	897b      	ldrh	r3, [r7, #10]
    2484:	b21b      	sxth	r3, r3
    2486:	4413      	add	r3, r2
    2488:	085b      	lsrs	r3, r3, #1
    248a:	b29a      	uxth	r2, r3
    248c:	4b22      	ldr	r3, [pc, #136]	; (2518 <MPU6050_calibration+0xf4>)
    248e:	801a      	strh	r2, [r3, #0]
C:\Users\kruci_000\Desktop\University\SoC\Marsfinder\Marsfinder\Marsfinder_FW\Debug/../Modules/MPU6050/mpu6050.c:103 (discriminator 3)
        c_az = ((uint32_t)(c_az + _az)) / 2;
    2490:	4b22      	ldr	r3, [pc, #136]	; (251c <MPU6050_calibration+0xf8>)
    2492:	881b      	ldrh	r3, [r3, #0]
    2494:	b21a      	sxth	r2, r3
    2496:	893b      	ldrh	r3, [r7, #8]
    2498:	b21b      	sxth	r3, r3
    249a:	4413      	add	r3, r2
    249c:	085b      	lsrs	r3, r3, #1
    249e:	b29a      	uxth	r2, r3
    24a0:	4b1e      	ldr	r3, [pc, #120]	; (251c <MPU6050_calibration+0xf8>)
    24a2:	801a      	strh	r2, [r3, #0]
C:\Users\kruci_000\Desktop\University\SoC\Marsfinder\Marsfinder\Marsfinder_FW\Debug/../Modules/MPU6050/mpu6050.c:104 (discriminator 3)
        c_gx = ((uint32_t)(c_gx + _gx)) / 2;
    24a4:	4b1e      	ldr	r3, [pc, #120]	; (2520 <MPU6050_calibration+0xfc>)
    24a6:	881b      	ldrh	r3, [r3, #0]
    24a8:	b21a      	sxth	r2, r3
    24aa:	88fb      	ldrh	r3, [r7, #6]
    24ac:	b21b      	sxth	r3, r3
    24ae:	4413      	add	r3, r2
    24b0:	085b      	lsrs	r3, r3, #1
    24b2:	b29a      	uxth	r2, r3
    24b4:	4b1a      	ldr	r3, [pc, #104]	; (2520 <MPU6050_calibration+0xfc>)
    24b6:	801a      	strh	r2, [r3, #0]
C:\Users\kruci_000\Desktop\University\SoC\Marsfinder\Marsfinder\Marsfinder_FW\Debug/../Modules/MPU6050/mpu6050.c:105 (discriminator 3)
        c_gy = ((uint32_t)(c_gy + _gy)) / 2;
    24b8:	4b13      	ldr	r3, [pc, #76]	; (2508 <MPU6050_calibration+0xe4>)
    24ba:	881b      	ldrh	r3, [r3, #0]
    24bc:	b21a      	sxth	r2, r3
    24be:	88bb      	ldrh	r3, [r7, #4]
    24c0:	b21b      	sxth	r3, r3
    24c2:	4413      	add	r3, r2
    24c4:	085b      	lsrs	r3, r3, #1
    24c6:	b29a      	uxth	r2, r3
    24c8:	4b0f      	ldr	r3, [pc, #60]	; (2508 <MPU6050_calibration+0xe4>)
    24ca:	801a      	strh	r2, [r3, #0]
C:\Users\kruci_000\Desktop\University\SoC\Marsfinder\Marsfinder\Marsfinder_FW\Debug/../Modules/MPU6050/mpu6050.c:106 (discriminator 3)
        c_gz = ((uint32_t)(c_gz + _gz)) / 2;
    24cc:	4b0f      	ldr	r3, [pc, #60]	; (250c <MPU6050_calibration+0xe8>)
    24ce:	881b      	ldrh	r3, [r3, #0]
    24d0:	b21a      	sxth	r2, r3
    24d2:	887b      	ldrh	r3, [r7, #2]
    24d4:	b21b      	sxth	r3, r3
    24d6:	4413      	add	r3, r2
    24d8:	085b      	lsrs	r3, r3, #1
    24da:	b29a      	uxth	r2, r3
    24dc:	4b0b      	ldr	r3, [pc, #44]	; (250c <MPU6050_calibration+0xe8>)
    24de:	801a      	strh	r2, [r3, #0]
C:\Users\kruci_000\Desktop\University\SoC\Marsfinder\Marsfinder\Marsfinder_FW\Debug/../Modules/MPU6050/mpu6050.c:107 (discriminator 3)
        c_t  = ((uint32_t)(c_t  + _t )) / 2;
    24e0:	4b0b      	ldr	r3, [pc, #44]	; (2510 <MPU6050_calibration+0xec>)
    24e2:	881b      	ldrh	r3, [r3, #0]
    24e4:	b21a      	sxth	r2, r3
    24e6:	883b      	ldrh	r3, [r7, #0]
    24e8:	b21b      	sxth	r3, r3
    24ea:	4413      	add	r3, r2
    24ec:	085b      	lsrs	r3, r3, #1
    24ee:	b29a      	uxth	r2, r3
    24f0:	4b07      	ldr	r3, [pc, #28]	; (2510 <MPU6050_calibration+0xec>)
    24f2:	801a      	strh	r2, [r3, #0]
C:\Users\kruci_000\Desktop\University\SoC\Marsfinder\Marsfinder\Marsfinder_FW\Debug/../Modules/MPU6050/mpu6050.c:99 (discriminator 3)
    int16_t _gz;
    int16_t _t;

    MPU6050_getRawData(&c_ax, &c_ay, &c_az,
                       &c_gx, &c_gy, &c_gz, &c_t);
    for (i = 0; i < MPU_CALIBRATION_SAMPLES_COUNT; i++) {
    24f4:	89fb      	ldrh	r3, [r7, #14]
    24f6:	3301      	adds	r3, #1
    24f8:	81fb      	strh	r3, [r7, #14]
C:\Users\kruci_000\Desktop\University\SoC\Marsfinder\Marsfinder\Marsfinder_FW\Debug/../Modules/MPU6050/mpu6050.c:99 (discriminator 1)
    24fa:	89fb      	ldrh	r3, [r7, #14]
    24fc:	f5b3 7f7a 	cmp.w	r3, #1000	; 0x3e8
    2500:	d3a2      	bcc.n	2448 <MPU6050_calibration+0x24>
C:\Users\kruci_000\Desktop\University\SoC\Marsfinder\Marsfinder\Marsfinder_FW\Debug/../Modules/MPU6050/mpu6050.c:109
        c_gx = ((uint32_t)(c_gx + _gx)) / 2;
        c_gy = ((uint32_t)(c_gy + _gy)) / 2;
        c_gz = ((uint32_t)(c_gz + _gz)) / 2;
        c_t  = ((uint32_t)(c_t  + _t )) / 2;
    }
}
    2502:	3714      	adds	r7, #20
    2504:	46bd      	mov	sp, r7
    2506:	bd90      	pop	{r4, r7, pc}
    2508:	2000019e 	.word	0x2000019e
    250c:	200001a0 	.word	0x200001a0
    2510:	200001a2 	.word	0x200001a2
    2514:	20000196 	.word	0x20000196
    2518:	20000198 	.word	0x20000198
    251c:	2000019a 	.word	0x2000019a
    2520:	2000019c 	.word	0x2000019c

00002524 <MPU6050_getRawData>:
MPU6050_getRawData():
C:\Users\kruci_000\Desktop\University\SoC\Marsfinder\Marsfinder\Marsfinder_FW\Debug/../Modules/MPU6050/mpu6050.c:112

void MPU6050_getRawData(int16_t* ax, int16_t* ay, int16_t* az,
                        int16_t* gx, int16_t* gy, int16_t* gz, int16_t* t) {
    2524:	e92d 4ff0 	stmdb	sp!, {r4, r5, r6, r7, r8, r9, sl, fp, lr}
    2528:	b08d      	sub	sp, #52	; 0x34
    252a:	af00      	add	r7, sp, #0
    252c:	6178      	str	r0, [r7, #20]
    252e:	6139      	str	r1, [r7, #16]
    2530:	60fa      	str	r2, [r7, #12]
    2532:	60bb      	str	r3, [r7, #8]
    2534:	466b      	mov	r3, sp
    2536:	461e      	mov	r6, r3
C:\Users\kruci_000\Desktop\University\SoC\Marsfinder\Marsfinder\Marsfinder_FW\Debug/../Modules/MPU6050/mpu6050.c:113
    uint8_t tx_len = 1;
    2538:	2301      	movs	r3, #1
    253a:	f887 302f 	strb.w	r3, [r7, #47]	; 0x2f
C:\Users\kruci_000\Desktop\University\SoC\Marsfinder\Marsfinder\Marsfinder_FW\Debug/../Modules/MPU6050/mpu6050.c:114
    uint8_t tx_buf[tx_len];
    253e:	f897 102f 	ldrb.w	r1, [r7, #47]	; 0x2f
    2542:	460b      	mov	r3, r1
    2544:	3b01      	subs	r3, #1
    2546:	62bb      	str	r3, [r7, #40]	; 0x28
    2548:	b2ca      	uxtb	r2, r1
    254a:	f04f 0300 	mov.w	r3, #0
    254e:	00d8      	lsls	r0, r3, #3
    2550:	6078      	str	r0, [r7, #4]
    2552:	6878      	ldr	r0, [r7, #4]
    2554:	ea40 7052 	orr.w	r0, r0, r2, lsr #29
    2558:	6078      	str	r0, [r7, #4]
    255a:	00d3      	lsls	r3, r2, #3
    255c:	603b      	str	r3, [r7, #0]
    255e:	b2ca      	uxtb	r2, r1
    2560:	f04f 0300 	mov.w	r3, #0
    2564:	ea4f 0bc3 	mov.w	fp, r3, lsl #3
    2568:	ea4b 7b52 	orr.w	fp, fp, r2, lsr #29
    256c:	ea4f 0ac2 	mov.w	sl, r2, lsl #3
    2570:	460b      	mov	r3, r1
    2572:	3307      	adds	r3, #7
    2574:	08db      	lsrs	r3, r3, #3
    2576:	00db      	lsls	r3, r3, #3
    2578:	ebad 0d03 	sub.w	sp, sp, r3
    257c:	466b      	mov	r3, sp
    257e:	3300      	adds	r3, #0
    2580:	627b      	str	r3, [r7, #36]	; 0x24
C:\Users\kruci_000\Desktop\University\SoC\Marsfinder\Marsfinder\Marsfinder_FW\Debug/../Modules/MPU6050/mpu6050.c:116

    tx_buf[0] = MPU6050_RA_ACCEL_XOUT_H;
    2582:	6a7b      	ldr	r3, [r7, #36]	; 0x24
    2584:	223b      	movs	r2, #59	; 0x3b
    2586:	701a      	strb	r2, [r3, #0]
C:\Users\kruci_000\Desktop\University\SoC\Marsfinder\Marsfinder\Marsfinder_FW\Debug/../Modules/MPU6050/mpu6050.c:118

    uint8_t rx_len = 14;
    2588:	230e      	movs	r3, #14
    258a:	f887 3023 	strb.w	r3, [r7, #35]	; 0x23
C:\Users\kruci_000\Desktop\University\SoC\Marsfinder\Marsfinder\Marsfinder_FW\Debug/../Modules/MPU6050/mpu6050.c:119
    uint8_t rx_buf[rx_len];
    258e:	f897 1023 	ldrb.w	r1, [r7, #35]	; 0x23
    2592:	460b      	mov	r3, r1
    2594:	3b01      	subs	r3, #1
    2596:	61fb      	str	r3, [r7, #28]
    2598:	b2ca      	uxtb	r2, r1
    259a:	f04f 0300 	mov.w	r3, #0
    259e:	ea4f 09c3 	mov.w	r9, r3, lsl #3
    25a2:	ea49 7952 	orr.w	r9, r9, r2, lsr #29
    25a6:	ea4f 08c2 	mov.w	r8, r2, lsl #3
    25aa:	b2ca      	uxtb	r2, r1
    25ac:	f04f 0300 	mov.w	r3, #0
    25b0:	00dd      	lsls	r5, r3, #3
    25b2:	ea45 7552 	orr.w	r5, r5, r2, lsr #29
    25b6:	00d4      	lsls	r4, r2, #3
    25b8:	460b      	mov	r3, r1
    25ba:	3307      	adds	r3, #7
    25bc:	08db      	lsrs	r3, r3, #3
    25be:	00db      	lsls	r3, r3, #3
    25c0:	ebad 0d03 	sub.w	sp, sp, r3
    25c4:	466b      	mov	r3, sp
    25c6:	3300      	adds	r3, #0
    25c8:	61bb      	str	r3, [r7, #24]
C:\Users\kruci_000\Desktop\University\SoC\Marsfinder\Marsfinder\Marsfinder_FW\Debug/../Modules/MPU6050/mpu6050.c:121

    i2c_writeBytes(MPU6050_ADDRESS, tx_buf, tx_len);
    25ca:	6a7a      	ldr	r2, [r7, #36]	; 0x24
    25cc:	f897 302f 	ldrb.w	r3, [r7, #47]	; 0x2f
    25d0:	2068      	movs	r0, #104	; 0x68
    25d2:	4611      	mov	r1, r2
    25d4:	461a      	mov	r2, r3
    25d6:	f000 fa7d 	bl	2ad4 <i2c_writeBytes>
C:\Users\kruci_000\Desktop\University\SoC\Marsfinder\Marsfinder\Marsfinder_FW\Debug/../Modules/MPU6050/mpu6050.c:122
    i2c_readBytes(MPU6050_ADDRESS, rx_buf, rx_len);
    25da:	69ba      	ldr	r2, [r7, #24]
    25dc:	f897 3023 	ldrb.w	r3, [r7, #35]	; 0x23
    25e0:	2068      	movs	r0, #104	; 0x68
    25e2:	4611      	mov	r1, r2
    25e4:	461a      	mov	r2, r3
    25e6:	f000 fa53 	bl	2a90 <i2c_readBytes>
C:\Users\kruci_000\Desktop\University\SoC\Marsfinder\Marsfinder\Marsfinder_FW\Debug/../Modules/MPU6050/mpu6050.c:125

    // Because of wrong assembled sensor
    *ax = (int16_t)   (((rx_buf[2])  << 8) | rx_buf[3]);
    25ea:	69bb      	ldr	r3, [r7, #24]
    25ec:	789b      	ldrb	r3, [r3, #2]
    25ee:	021b      	lsls	r3, r3, #8
    25f0:	b29a      	uxth	r2, r3
    25f2:	69bb      	ldr	r3, [r7, #24]
    25f4:	78db      	ldrb	r3, [r3, #3]
    25f6:	b29b      	uxth	r3, r3
    25f8:	4313      	orrs	r3, r2
    25fa:	b29a      	uxth	r2, r3
    25fc:	697b      	ldr	r3, [r7, #20]
    25fe:	801a      	strh	r2, [r3, #0]
C:\Users\kruci_000\Desktop\University\SoC\Marsfinder\Marsfinder\Marsfinder_FW\Debug/../Modules/MPU6050/mpu6050.c:126
    *ay = (int16_t)   (((rx_buf[0])  << 8) | rx_buf[1]);
    2600:	69bb      	ldr	r3, [r7, #24]
    2602:	781b      	ldrb	r3, [r3, #0]
    2604:	021b      	lsls	r3, r3, #8
    2606:	b29a      	uxth	r2, r3
    2608:	69bb      	ldr	r3, [r7, #24]
    260a:	785b      	ldrb	r3, [r3, #1]
    260c:	b29b      	uxth	r3, r3
    260e:	4313      	orrs	r3, r2
    2610:	b29a      	uxth	r2, r3
    2612:	693b      	ldr	r3, [r7, #16]
    2614:	801a      	strh	r2, [r3, #0]
C:\Users\kruci_000\Desktop\University\SoC\Marsfinder\Marsfinder\Marsfinder_FW\Debug/../Modules/MPU6050/mpu6050.c:127
    *az = (int16_t)   (((rx_buf[4])  << 8) | rx_buf[5]);
    2616:	69bb      	ldr	r3, [r7, #24]
    2618:	791b      	ldrb	r3, [r3, #4]
    261a:	021b      	lsls	r3, r3, #8
    261c:	b29a      	uxth	r2, r3
    261e:	69bb      	ldr	r3, [r7, #24]
    2620:	795b      	ldrb	r3, [r3, #5]
    2622:	b29b      	uxth	r3, r3
    2624:	4313      	orrs	r3, r2
    2626:	b29a      	uxth	r2, r3
    2628:	68fb      	ldr	r3, [r7, #12]
    262a:	801a      	strh	r2, [r3, #0]
C:\Users\kruci_000\Desktop\University\SoC\Marsfinder\Marsfinder\Marsfinder_FW\Debug/../Modules/MPU6050/mpu6050.c:128
    *t =  (int16_t)   (((rx_buf[6])  << 8) | rx_buf[7]);
    262c:	69bb      	ldr	r3, [r7, #24]
    262e:	799b      	ldrb	r3, [r3, #6]
    2630:	021b      	lsls	r3, r3, #8
    2632:	b29a      	uxth	r2, r3
    2634:	69bb      	ldr	r3, [r7, #24]
    2636:	79db      	ldrb	r3, [r3, #7]
    2638:	b29b      	uxth	r3, r3
    263a:	4313      	orrs	r3, r2
    263c:	b29a      	uxth	r2, r3
    263e:	6e3b      	ldr	r3, [r7, #96]	; 0x60
    2640:	801a      	strh	r2, [r3, #0]
C:\Users\kruci_000\Desktop\University\SoC\Marsfinder\Marsfinder\Marsfinder_FW\Debug/../Modules/MPU6050/mpu6050.c:129
    *gx = (int16_t) - (((rx_buf[10]) << 8) | rx_buf[11]);
    2642:	69bb      	ldr	r3, [r7, #24]
    2644:	7a9b      	ldrb	r3, [r3, #10]
    2646:	021b      	lsls	r3, r3, #8
    2648:	b29a      	uxth	r2, r3
    264a:	69bb      	ldr	r3, [r7, #24]
    264c:	7adb      	ldrb	r3, [r3, #11]
    264e:	b29b      	uxth	r3, r3
    2650:	4313      	orrs	r3, r2
    2652:	b29b      	uxth	r3, r3
    2654:	b29b      	uxth	r3, r3
    2656:	425b      	negs	r3, r3
    2658:	b29b      	uxth	r3, r3
    265a:	b29a      	uxth	r2, r3
    265c:	68bb      	ldr	r3, [r7, #8]
    265e:	801a      	strh	r2, [r3, #0]
C:\Users\kruci_000\Desktop\University\SoC\Marsfinder\Marsfinder\Marsfinder_FW\Debug/../Modules/MPU6050/mpu6050.c:130
    *gy = (int16_t) - (((rx_buf[8])  << 8) | rx_buf[9]);
    2660:	69bb      	ldr	r3, [r7, #24]
    2662:	7a1b      	ldrb	r3, [r3, #8]
    2664:	021b      	lsls	r3, r3, #8
    2666:	b29a      	uxth	r2, r3
    2668:	69bb      	ldr	r3, [r7, #24]
    266a:	7a5b      	ldrb	r3, [r3, #9]
    266c:	b29b      	uxth	r3, r3
    266e:	4313      	orrs	r3, r2
    2670:	b29b      	uxth	r3, r3
    2672:	b29b      	uxth	r3, r3
    2674:	425b      	negs	r3, r3
    2676:	b29b      	uxth	r3, r3
    2678:	b29a      	uxth	r2, r3
    267a:	6dbb      	ldr	r3, [r7, #88]	; 0x58
    267c:	801a      	strh	r2, [r3, #0]
C:\Users\kruci_000\Desktop\University\SoC\Marsfinder\Marsfinder\Marsfinder_FW\Debug/../Modules/MPU6050/mpu6050.c:131
    *gz = (int16_t) - (((rx_buf[12]) << 8) | rx_buf[13]);
    267e:	69bb      	ldr	r3, [r7, #24]
    2680:	7b1b      	ldrb	r3, [r3, #12]
    2682:	021b      	lsls	r3, r3, #8
    2684:	b29a      	uxth	r2, r3
    2686:	69bb      	ldr	r3, [r7, #24]
    2688:	7b5b      	ldrb	r3, [r3, #13]
    268a:	b29b      	uxth	r3, r3
    268c:	4313      	orrs	r3, r2
    268e:	b29b      	uxth	r3, r3
    2690:	b29b      	uxth	r3, r3
    2692:	425b      	negs	r3, r3
    2694:	b29b      	uxth	r3, r3
    2696:	b29a      	uxth	r2, r3
    2698:	6dfb      	ldr	r3, [r7, #92]	; 0x5c
    269a:	801a      	strh	r2, [r3, #0]
    269c:	46b5      	mov	sp, r6
C:\Users\kruci_000\Desktop\University\SoC\Marsfinder\Marsfinder\Marsfinder_FW\Debug/../Modules/MPU6050/mpu6050.c:132
}
    269e:	3734      	adds	r7, #52	; 0x34
    26a0:	46bd      	mov	sp, r7
    26a2:	e8bd 8ff0 	ldmia.w	sp!, {r4, r5, r6, r7, r8, r9, sl, fp, pc}
    26a6:	bf00      	nop

000026a8 <MPU6050_getData>:
MPU6050_getData():
C:\Users\kruci_000\Desktop\University\SoC\Marsfinder\Marsfinder\Marsfinder_FW\Debug/../Modules/MPU6050/mpu6050.c:135

void MPU6050_getData(int16_t* ax, int16_t* ay, int16_t* az,
                     int16_t* gx, int16_t* gy, int16_t* gz, int16_t* t) {
    26a8:	e92d 4ff0 	stmdb	sp!, {r4, r5, r6, r7, r8, r9, sl, fp, lr}
    26ac:	b08d      	sub	sp, #52	; 0x34
    26ae:	af00      	add	r7, sp, #0
    26b0:	6178      	str	r0, [r7, #20]
    26b2:	6139      	str	r1, [r7, #16]
    26b4:	60fa      	str	r2, [r7, #12]
    26b6:	60bb      	str	r3, [r7, #8]
    26b8:	466b      	mov	r3, sp
    26ba:	461e      	mov	r6, r3
C:\Users\kruci_000\Desktop\University\SoC\Marsfinder\Marsfinder\Marsfinder_FW\Debug/../Modules/MPU6050/mpu6050.c:136
    uint8_t tx_len = 1;
    26bc:	2301      	movs	r3, #1
    26be:	f887 302f 	strb.w	r3, [r7, #47]	; 0x2f
C:\Users\kruci_000\Desktop\University\SoC\Marsfinder\Marsfinder\Marsfinder_FW\Debug/../Modules/MPU6050/mpu6050.c:137
    uint8_t tx_buf[tx_len];
    26c2:	f897 102f 	ldrb.w	r1, [r7, #47]	; 0x2f
    26c6:	460b      	mov	r3, r1
    26c8:	3b01      	subs	r3, #1
    26ca:	62bb      	str	r3, [r7, #40]	; 0x28
    26cc:	b2ca      	uxtb	r2, r1
    26ce:	f04f 0300 	mov.w	r3, #0
    26d2:	00d8      	lsls	r0, r3, #3
    26d4:	6078      	str	r0, [r7, #4]
    26d6:	6878      	ldr	r0, [r7, #4]
    26d8:	ea40 7052 	orr.w	r0, r0, r2, lsr #29
    26dc:	6078      	str	r0, [r7, #4]
    26de:	00d3      	lsls	r3, r2, #3
    26e0:	603b      	str	r3, [r7, #0]
    26e2:	b2ca      	uxtb	r2, r1
    26e4:	f04f 0300 	mov.w	r3, #0
    26e8:	ea4f 0bc3 	mov.w	fp, r3, lsl #3
    26ec:	ea4b 7b52 	orr.w	fp, fp, r2, lsr #29
    26f0:	ea4f 0ac2 	mov.w	sl, r2, lsl #3
    26f4:	460b      	mov	r3, r1
    26f6:	3307      	adds	r3, #7
    26f8:	08db      	lsrs	r3, r3, #3
    26fa:	00db      	lsls	r3, r3, #3
    26fc:	ebad 0d03 	sub.w	sp, sp, r3
    2700:	466b      	mov	r3, sp
    2702:	3300      	adds	r3, #0
    2704:	627b      	str	r3, [r7, #36]	; 0x24
C:\Users\kruci_000\Desktop\University\SoC\Marsfinder\Marsfinder\Marsfinder_FW\Debug/../Modules/MPU6050/mpu6050.c:139

    tx_buf[0] = MPU6050_RA_ACCEL_XOUT_H;
    2706:	6a7b      	ldr	r3, [r7, #36]	; 0x24
    2708:	223b      	movs	r2, #59	; 0x3b
    270a:	701a      	strb	r2, [r3, #0]
C:\Users\kruci_000\Desktop\University\SoC\Marsfinder\Marsfinder\Marsfinder_FW\Debug/../Modules/MPU6050/mpu6050.c:141

    uint8_t rx_len = 14;
    270c:	230e      	movs	r3, #14
    270e:	f887 3023 	strb.w	r3, [r7, #35]	; 0x23
C:\Users\kruci_000\Desktop\University\SoC\Marsfinder\Marsfinder\Marsfinder_FW\Debug/../Modules/MPU6050/mpu6050.c:142
    uint8_t rx_buf[rx_len];
    2712:	f897 1023 	ldrb.w	r1, [r7, #35]	; 0x23
    2716:	460b      	mov	r3, r1
    2718:	3b01      	subs	r3, #1
    271a:	61fb      	str	r3, [r7, #28]
    271c:	b2ca      	uxtb	r2, r1
    271e:	f04f 0300 	mov.w	r3, #0
    2722:	ea4f 09c3 	mov.w	r9, r3, lsl #3
    2726:	ea49 7952 	orr.w	r9, r9, r2, lsr #29
    272a:	ea4f 08c2 	mov.w	r8, r2, lsl #3
    272e:	b2ca      	uxtb	r2, r1
    2730:	f04f 0300 	mov.w	r3, #0
    2734:	00dd      	lsls	r5, r3, #3
    2736:	ea45 7552 	orr.w	r5, r5, r2, lsr #29
    273a:	00d4      	lsls	r4, r2, #3
    273c:	460b      	mov	r3, r1
    273e:	3307      	adds	r3, #7
    2740:	08db      	lsrs	r3, r3, #3
    2742:	00db      	lsls	r3, r3, #3
    2744:	ebad 0d03 	sub.w	sp, sp, r3
    2748:	466b      	mov	r3, sp
    274a:	3300      	adds	r3, #0
    274c:	61bb      	str	r3, [r7, #24]
C:\Users\kruci_000\Desktop\University\SoC\Marsfinder\Marsfinder\Marsfinder_FW\Debug/../Modules/MPU6050/mpu6050.c:144

    i2c_writeBytes(MPU6050_ADDRESS, tx_buf, tx_len);
    274e:	6a7a      	ldr	r2, [r7, #36]	; 0x24
    2750:	f897 302f 	ldrb.w	r3, [r7, #47]	; 0x2f
    2754:	2068      	movs	r0, #104	; 0x68
    2756:	4611      	mov	r1, r2
    2758:	461a      	mov	r2, r3
    275a:	f000 f9bb 	bl	2ad4 <i2c_writeBytes>
C:\Users\kruci_000\Desktop\University\SoC\Marsfinder\Marsfinder\Marsfinder_FW\Debug/../Modules/MPU6050/mpu6050.c:145
    i2c_readBytes(MPU6050_ADDRESS, rx_buf, rx_len);
    275e:	69ba      	ldr	r2, [r7, #24]
    2760:	f897 3023 	ldrb.w	r3, [r7, #35]	; 0x23
    2764:	2068      	movs	r0, #104	; 0x68
    2766:	4611      	mov	r1, r2
    2768:	461a      	mov	r2, r3
    276a:	f000 f991 	bl	2a90 <i2c_readBytes>
C:\Users\kruci_000\Desktop\University\SoC\Marsfinder\Marsfinder\Marsfinder_FW\Debug/../Modules/MPU6050/mpu6050.c:148

    // Because of wrong assembled sensor
    *ax = (int16_t)   (((rx_buf[2])  << 8) | rx_buf[3]);
    276e:	69bb      	ldr	r3, [r7, #24]
    2770:	789b      	ldrb	r3, [r3, #2]
    2772:	021b      	lsls	r3, r3, #8
    2774:	b29a      	uxth	r2, r3
    2776:	69bb      	ldr	r3, [r7, #24]
    2778:	78db      	ldrb	r3, [r3, #3]
    277a:	b29b      	uxth	r3, r3
    277c:	4313      	orrs	r3, r2
    277e:	b29a      	uxth	r2, r3
    2780:	697b      	ldr	r3, [r7, #20]
    2782:	801a      	strh	r2, [r3, #0]
C:\Users\kruci_000\Desktop\University\SoC\Marsfinder\Marsfinder\Marsfinder_FW\Debug/../Modules/MPU6050/mpu6050.c:149
    *ay = (int16_t)   (((rx_buf[0])  << 8) | rx_buf[1]);
    2784:	69bb      	ldr	r3, [r7, #24]
    2786:	781b      	ldrb	r3, [r3, #0]
    2788:	021b      	lsls	r3, r3, #8
    278a:	b29a      	uxth	r2, r3
    278c:	69bb      	ldr	r3, [r7, #24]
    278e:	785b      	ldrb	r3, [r3, #1]
    2790:	b29b      	uxth	r3, r3
    2792:	4313      	orrs	r3, r2
    2794:	b29a      	uxth	r2, r3
    2796:	693b      	ldr	r3, [r7, #16]
    2798:	801a      	strh	r2, [r3, #0]
C:\Users\kruci_000\Desktop\University\SoC\Marsfinder\Marsfinder\Marsfinder_FW\Debug/../Modules/MPU6050/mpu6050.c:150
    *az = (int16_t)   (((rx_buf[4])  << 8) | rx_buf[5]);
    279a:	69bb      	ldr	r3, [r7, #24]
    279c:	791b      	ldrb	r3, [r3, #4]
    279e:	021b      	lsls	r3, r3, #8
    27a0:	b29a      	uxth	r2, r3
    27a2:	69bb      	ldr	r3, [r7, #24]
    27a4:	795b      	ldrb	r3, [r3, #5]
    27a6:	b29b      	uxth	r3, r3
    27a8:	4313      	orrs	r3, r2
    27aa:	b29a      	uxth	r2, r3
    27ac:	68fb      	ldr	r3, [r7, #12]
    27ae:	801a      	strh	r2, [r3, #0]
C:\Users\kruci_000\Desktop\University\SoC\Marsfinder\Marsfinder\Marsfinder_FW\Debug/../Modules/MPU6050/mpu6050.c:151
    *t =  (int16_t)   (((rx_buf[6])  << 8) | rx_buf[7]);
    27b0:	69bb      	ldr	r3, [r7, #24]
    27b2:	799b      	ldrb	r3, [r3, #6]
    27b4:	021b      	lsls	r3, r3, #8
    27b6:	b29a      	uxth	r2, r3
    27b8:	69bb      	ldr	r3, [r7, #24]
    27ba:	79db      	ldrb	r3, [r3, #7]
    27bc:	b29b      	uxth	r3, r3
    27be:	4313      	orrs	r3, r2
    27c0:	b29a      	uxth	r2, r3
    27c2:	6e3b      	ldr	r3, [r7, #96]	; 0x60
    27c4:	801a      	strh	r2, [r3, #0]
C:\Users\kruci_000\Desktop\University\SoC\Marsfinder\Marsfinder\Marsfinder_FW\Debug/../Modules/MPU6050/mpu6050.c:152
    *gx = (int16_t) - (((rx_buf[10]) << 8) | rx_buf[11]);
    27c6:	69bb      	ldr	r3, [r7, #24]
    27c8:	7a9b      	ldrb	r3, [r3, #10]
    27ca:	021b      	lsls	r3, r3, #8
    27cc:	b29a      	uxth	r2, r3
    27ce:	69bb      	ldr	r3, [r7, #24]
    27d0:	7adb      	ldrb	r3, [r3, #11]
    27d2:	b29b      	uxth	r3, r3
    27d4:	4313      	orrs	r3, r2
    27d6:	b29b      	uxth	r3, r3
    27d8:	b29b      	uxth	r3, r3
    27da:	425b      	negs	r3, r3
    27dc:	b29b      	uxth	r3, r3
    27de:	b29a      	uxth	r2, r3
    27e0:	68bb      	ldr	r3, [r7, #8]
    27e2:	801a      	strh	r2, [r3, #0]
C:\Users\kruci_000\Desktop\University\SoC\Marsfinder\Marsfinder\Marsfinder_FW\Debug/../Modules/MPU6050/mpu6050.c:153
    *gy = (int16_t) - (((rx_buf[8])  << 8) | rx_buf[9]);
    27e4:	69bb      	ldr	r3, [r7, #24]
    27e6:	7a1b      	ldrb	r3, [r3, #8]
    27e8:	021b      	lsls	r3, r3, #8
    27ea:	b29a      	uxth	r2, r3
    27ec:	69bb      	ldr	r3, [r7, #24]
    27ee:	7a5b      	ldrb	r3, [r3, #9]
    27f0:	b29b      	uxth	r3, r3
    27f2:	4313      	orrs	r3, r2
    27f4:	b29b      	uxth	r3, r3
    27f6:	b29b      	uxth	r3, r3
    27f8:	425b      	negs	r3, r3
    27fa:	b29b      	uxth	r3, r3
    27fc:	b29a      	uxth	r2, r3
    27fe:	6dbb      	ldr	r3, [r7, #88]	; 0x58
    2800:	801a      	strh	r2, [r3, #0]
C:\Users\kruci_000\Desktop\University\SoC\Marsfinder\Marsfinder\Marsfinder_FW\Debug/../Modules/MPU6050/mpu6050.c:154
    *gz = (int16_t) - (((rx_buf[12]) << 8) | rx_buf[13]);
    2802:	69bb      	ldr	r3, [r7, #24]
    2804:	7b1b      	ldrb	r3, [r3, #12]
    2806:	021b      	lsls	r3, r3, #8
    2808:	b29a      	uxth	r2, r3
    280a:	69bb      	ldr	r3, [r7, #24]
    280c:	7b5b      	ldrb	r3, [r3, #13]
    280e:	b29b      	uxth	r3, r3
    2810:	4313      	orrs	r3, r2
    2812:	b29b      	uxth	r3, r3
    2814:	b29b      	uxth	r3, r3
    2816:	425b      	negs	r3, r3
    2818:	b29b      	uxth	r3, r3
    281a:	b29a      	uxth	r2, r3
    281c:	6dfb      	ldr	r3, [r7, #92]	; 0x5c
    281e:	801a      	strh	r2, [r3, #0]
C:\Users\kruci_000\Desktop\University\SoC\Marsfinder\Marsfinder\Marsfinder_FW\Debug/../Modules/MPU6050/mpu6050.c:161
    // Because of wrong assembled sensor

    if (USE_CALIBRATED_MASK & CALIBRATED_ACCX)  {*ax -= c_ax;}
    if (USE_CALIBRATED_MASK & CALIBRATED_ACCY)  {*ay -= c_ay;}
    if (USE_CALIBRATED_MASK & CALIBRATED_ACCZ)  {*az -= c_az;}
    if (USE_CALIBRATED_MASK & CALIBRATED_GYROX) {*gx -= c_gx;}
    2820:	68bb      	ldr	r3, [r7, #8]
    2822:	881b      	ldrh	r3, [r3, #0]
    2824:	b29a      	uxth	r2, r3
    2826:	4b11      	ldr	r3, [pc, #68]	; (286c <MPU6050_getData+0x1c4>)
    2828:	881b      	ldrh	r3, [r3, #0]
    282a:	b29b      	uxth	r3, r3
    282c:	1ad3      	subs	r3, r2, r3
    282e:	b29b      	uxth	r3, r3
    2830:	b29a      	uxth	r2, r3
    2832:	68bb      	ldr	r3, [r7, #8]
    2834:	801a      	strh	r2, [r3, #0]
C:\Users\kruci_000\Desktop\University\SoC\Marsfinder\Marsfinder\Marsfinder_FW\Debug/../Modules/MPU6050/mpu6050.c:162
    if (USE_CALIBRATED_MASK & CALIBRATED_GYROY) {*gy -= c_gy;}
    2836:	6dbb      	ldr	r3, [r7, #88]	; 0x58
    2838:	881b      	ldrh	r3, [r3, #0]
    283a:	b29a      	uxth	r2, r3
    283c:	4b0c      	ldr	r3, [pc, #48]	; (2870 <MPU6050_getData+0x1c8>)
    283e:	881b      	ldrh	r3, [r3, #0]
    2840:	b29b      	uxth	r3, r3
    2842:	1ad3      	subs	r3, r2, r3
    2844:	b29b      	uxth	r3, r3
    2846:	b29a      	uxth	r2, r3
    2848:	6dbb      	ldr	r3, [r7, #88]	; 0x58
    284a:	801a      	strh	r2, [r3, #0]
C:\Users\kruci_000\Desktop\University\SoC\Marsfinder\Marsfinder\Marsfinder_FW\Debug/../Modules/MPU6050/mpu6050.c:163
    if (USE_CALIBRATED_MASK & CALIBRATED_GYROZ) {*gz -= c_gz;}
    284c:	6dfb      	ldr	r3, [r7, #92]	; 0x5c
    284e:	881b      	ldrh	r3, [r3, #0]
    2850:	b29a      	uxth	r2, r3
    2852:	4b08      	ldr	r3, [pc, #32]	; (2874 <MPU6050_getData+0x1cc>)
    2854:	881b      	ldrh	r3, [r3, #0]
    2856:	b29b      	uxth	r3, r3
    2858:	1ad3      	subs	r3, r2, r3
    285a:	b29b      	uxth	r3, r3
    285c:	b29a      	uxth	r2, r3
    285e:	6dfb      	ldr	r3, [r7, #92]	; 0x5c
    2860:	801a      	strh	r2, [r3, #0]
    2862:	46b5      	mov	sp, r6
C:\Users\kruci_000\Desktop\University\SoC\Marsfinder\Marsfinder\Marsfinder_FW\Debug/../Modules/MPU6050/mpu6050.c:165
    if (USE_CALIBRATED_MASK & CALIBRATED_TEMP)  {*t  -= c_t ;}
}
    2864:	3734      	adds	r7, #52	; 0x34
    2866:	46bd      	mov	sp, r7
    2868:	e8bd 8ff0 	ldmia.w	sp!, {r4, r5, r6, r7, r8, r9, sl, fp, pc}
    286c:	2000019c 	.word	0x2000019c
    2870:	2000019e 	.word	0x2000019e
    2874:	200001a0 	.word	0x200001a0

00002878 <MPU6050_getScaledData>:
MPU6050_getScaledData():
C:\Users\kruci_000\Desktop\University\SoC\Marsfinder\Marsfinder\Marsfinder_FW\Debug/../Modules/MPU6050/mpu6050.c:169

void MPU6050_getScaledData(
        float* ax, float* ay, float* az,
        float* gx, float* gy, float* gz, float* t) {
    2878:	b590      	push	{r4, r7, lr}
    287a:	b091      	sub	sp, #68	; 0x44
    287c:	af04      	add	r7, sp, #16
    287e:	60f8      	str	r0, [r7, #12]
    2880:	60b9      	str	r1, [r7, #8]
    2882:	607a      	str	r2, [r7, #4]
    2884:	603b      	str	r3, [r7, #0]
C:\Users\kruci_000\Desktop\University\SoC\Marsfinder\Marsfinder\Marsfinder_FW\Debug/../Modules/MPU6050/mpu6050.c:184
    float gyro_max;

    float accel_factor;
    float gyro_factor;

    MPU6050_getData(&_ax, &_ay, &_az, &_gx, &_gy, &_gz, &_t);
    2886:	f107 001e 	add.w	r0, r7, #30
    288a:	f107 011c 	add.w	r1, r7, #28
    288e:	f107 021a 	add.w	r2, r7, #26
    2892:	f107 0418 	add.w	r4, r7, #24
    2896:	f107 0316 	add.w	r3, r7, #22
    289a:	9300      	str	r3, [sp, #0]
    289c:	f107 0314 	add.w	r3, r7, #20
    28a0:	9301      	str	r3, [sp, #4]
    28a2:	f107 0312 	add.w	r3, r7, #18
    28a6:	9302      	str	r3, [sp, #8]
    28a8:	4623      	mov	r3, r4
    28aa:	f7ff fefd 	bl	26a8 <MPU6050_getData>
C:\Users\kruci_000\Desktop\University\SoC\Marsfinder\Marsfinder\Marsfinder_FW\Debug/../Modules/MPU6050/mpu6050.c:186

    switch (cur_accel_range) {
    28ae:	4b59      	ldr	r3, [pc, #356]	; (2a14 <MPU6050_getScaledData+0x19c>)
    28b0:	781b      	ldrb	r3, [r3, #0]
    28b2:	2b03      	cmp	r3, #3
    28b4:	d816      	bhi.n	28e4 <MPU6050_getScaledData+0x6c>
    28b6:	a201      	add	r2, pc, #4	; (adr r2, 28bc <MPU6050_getScaledData+0x44>)
    28b8:	f852 f023 	ldr.w	pc, [r2, r3, lsl #2]
    28bc:	000028cd 	.word	0x000028cd
    28c0:	000028d3 	.word	0x000028d3
    28c4:	000028d9 	.word	0x000028d9
    28c8:	000028df 	.word	0x000028df
C:\Users\kruci_000\Desktop\University\SoC\Marsfinder\Marsfinder\Marsfinder_FW\Debug/../Modules/MPU6050/mpu6050.c:188
    case MPU6050_ACCEL_FS_2:
        accel_max = 2 * G_CONST;
    28cc:	4b52      	ldr	r3, [pc, #328]	; (2a18 <MPU6050_getScaledData+0x1a0>)
    28ce:	62fb      	str	r3, [r7, #44]	; 0x2c
C:\Users\kruci_000\Desktop\University\SoC\Marsfinder\Marsfinder\Marsfinder_FW\Debug/../Modules/MPU6050/mpu6050.c:189
        break;
    28d0:	e00b      	b.n	28ea <MPU6050_getScaledData+0x72>
C:\Users\kruci_000\Desktop\University\SoC\Marsfinder\Marsfinder\Marsfinder_FW\Debug/../Modules/MPU6050/mpu6050.c:191
    case MPU6050_ACCEL_FS_4:
        accel_max = 4 * G_CONST;
    28d2:	4b52      	ldr	r3, [pc, #328]	; (2a1c <MPU6050_getScaledData+0x1a4>)
    28d4:	62fb      	str	r3, [r7, #44]	; 0x2c
C:\Users\kruci_000\Desktop\University\SoC\Marsfinder\Marsfinder\Marsfinder_FW\Debug/../Modules/MPU6050/mpu6050.c:192
        break;
    28d6:	e008      	b.n	28ea <MPU6050_getScaledData+0x72>
C:\Users\kruci_000\Desktop\University\SoC\Marsfinder\Marsfinder\Marsfinder_FW\Debug/../Modules/MPU6050/mpu6050.c:194
    case MPU6050_ACCEL_FS_8:
        accel_max = 8 * G_CONST;
    28d8:	4b51      	ldr	r3, [pc, #324]	; (2a20 <MPU6050_getScaledData+0x1a8>)
    28da:	62fb      	str	r3, [r7, #44]	; 0x2c
C:\Users\kruci_000\Desktop\University\SoC\Marsfinder\Marsfinder\Marsfinder_FW\Debug/../Modules/MPU6050/mpu6050.c:195
        break;
    28dc:	e005      	b.n	28ea <MPU6050_getScaledData+0x72>
C:\Users\kruci_000\Desktop\University\SoC\Marsfinder\Marsfinder\Marsfinder_FW\Debug/../Modules/MPU6050/mpu6050.c:197
    case MPU6050_ACCEL_FS_16:
        accel_max = 16 * G_CONST;
    28de:	4b51      	ldr	r3, [pc, #324]	; (2a24 <MPU6050_getScaledData+0x1ac>)
    28e0:	62fb      	str	r3, [r7, #44]	; 0x2c
C:\Users\kruci_000\Desktop\University\SoC\Marsfinder\Marsfinder\Marsfinder_FW\Debug/../Modules/MPU6050/mpu6050.c:198
        break;
    28e2:	e002      	b.n	28ea <MPU6050_getScaledData+0x72>
C:\Users\kruci_000\Desktop\University\SoC\Marsfinder\Marsfinder\Marsfinder_FW\Debug/../Modules/MPU6050/mpu6050.c:200
    default:
        accel_max = 0.0f;
    28e4:	f04f 0300 	mov.w	r3, #0
    28e8:	62fb      	str	r3, [r7, #44]	; 0x2c
C:\Users\kruci_000\Desktop\University\SoC\Marsfinder\Marsfinder\Marsfinder_FW\Debug/../Modules/MPU6050/mpu6050.c:203
    }

    switch (cur_gyro_range) {
    28ea:	4b4f      	ldr	r3, [pc, #316]	; (2a28 <MPU6050_getScaledData+0x1b0>)
    28ec:	781b      	ldrb	r3, [r3, #0]
    28ee:	2b03      	cmp	r3, #3
    28f0:	d816      	bhi.n	2920 <MPU6050_getScaledData+0xa8>
    28f2:	a201      	add	r2, pc, #4	; (adr r2, 28f8 <MPU6050_getScaledData+0x80>)
    28f4:	f852 f023 	ldr.w	pc, [r2, r3, lsl #2]
    28f8:	00002909 	.word	0x00002909
    28fc:	0000290f 	.word	0x0000290f
    2900:	00002915 	.word	0x00002915
    2904:	0000291b 	.word	0x0000291b
C:\Users\kruci_000\Desktop\University\SoC\Marsfinder\Marsfinder\Marsfinder_FW\Debug/../Modules/MPU6050/mpu6050.c:205
    case MPU6050_GYRO_FS_250:
        gyro_max = 250.0f;
    2908:	4b48      	ldr	r3, [pc, #288]	; (2a2c <MPU6050_getScaledData+0x1b4>)
    290a:	62bb      	str	r3, [r7, #40]	; 0x28
C:\Users\kruci_000\Desktop\University\SoC\Marsfinder\Marsfinder\Marsfinder_FW\Debug/../Modules/MPU6050/mpu6050.c:206
        break;
    290c:	e00c      	b.n	2928 <MPU6050_getScaledData+0xb0>
C:\Users\kruci_000\Desktop\University\SoC\Marsfinder\Marsfinder\Marsfinder_FW\Debug/../Modules/MPU6050/mpu6050.c:208
    case MPU6050_GYRO_FS_500:
        gyro_max = 500.0f;
    290e:	4b48      	ldr	r3, [pc, #288]	; (2a30 <MPU6050_getScaledData+0x1b8>)
    2910:	62bb      	str	r3, [r7, #40]	; 0x28
C:\Users\kruci_000\Desktop\University\SoC\Marsfinder\Marsfinder\Marsfinder_FW\Debug/../Modules/MPU6050/mpu6050.c:209
        break;
    2912:	e009      	b.n	2928 <MPU6050_getScaledData+0xb0>
C:\Users\kruci_000\Desktop\University\SoC\Marsfinder\Marsfinder\Marsfinder_FW\Debug/../Modules/MPU6050/mpu6050.c:211
    case MPU6050_GYRO_FS_1000:
        gyro_max = 1000.0f;
    2914:	4b47      	ldr	r3, [pc, #284]	; (2a34 <MPU6050_getScaledData+0x1bc>)
    2916:	62bb      	str	r3, [r7, #40]	; 0x28
C:\Users\kruci_000\Desktop\University\SoC\Marsfinder\Marsfinder\Marsfinder_FW\Debug/../Modules/MPU6050/mpu6050.c:212
        break;
    2918:	e006      	b.n	2928 <MPU6050_getScaledData+0xb0>
C:\Users\kruci_000\Desktop\University\SoC\Marsfinder\Marsfinder\Marsfinder_FW\Debug/../Modules/MPU6050/mpu6050.c:214
    case MPU6050_GYRO_FS_2000:
        gyro_max = 2000.0f;
    291a:	4b47      	ldr	r3, [pc, #284]	; (2a38 <MPU6050_getScaledData+0x1c0>)
    291c:	62bb      	str	r3, [r7, #40]	; 0x28
C:\Users\kruci_000\Desktop\University\SoC\Marsfinder\Marsfinder\Marsfinder_FW\Debug/../Modules/MPU6050/mpu6050.c:215
        break;
    291e:	e003      	b.n	2928 <MPU6050_getScaledData+0xb0>
C:\Users\kruci_000\Desktop\University\SoC\Marsfinder\Marsfinder\Marsfinder_FW\Debug/../Modules/MPU6050/mpu6050.c:217
    default:
        gyro_max = 0.0f;
    2920:	f04f 0300 	mov.w	r3, #0
    2924:	62bb      	str	r3, [r7, #40]	; 0x28
C:\Users\kruci_000\Desktop\University\SoC\Marsfinder\Marsfinder\Marsfinder_FW\Debug/../Modules/MPU6050/mpu6050.c:218
        break;
    2926:	bf00      	nop
C:\Users\kruci_000\Desktop\University\SoC\Marsfinder\Marsfinder\Marsfinder_FW\Debug/../Modules/MPU6050/mpu6050.c:221
    }

    accel_factor = accel_max / INT_LEAST16_MAX;
    2928:	6af8      	ldr	r0, [r7, #44]	; 0x2c
    292a:	4944      	ldr	r1, [pc, #272]	; (2a3c <MPU6050_getScaledData+0x1c4>)
    292c:	f002 fcfe 	bl	532c <__aeabi_fdiv>
    2930:	4603      	mov	r3, r0
    2932:	627b      	str	r3, [r7, #36]	; 0x24
C:\Users\kruci_000\Desktop\University\SoC\Marsfinder\Marsfinder\Marsfinder_FW\Debug/../Modules/MPU6050/mpu6050.c:222
    gyro_factor = gyro_max / INT_LEAST16_MAX;
    2934:	6ab8      	ldr	r0, [r7, #40]	; 0x28
    2936:	4941      	ldr	r1, [pc, #260]	; (2a3c <MPU6050_getScaledData+0x1c4>)
    2938:	f002 fcf8 	bl	532c <__aeabi_fdiv>
    293c:	4603      	mov	r3, r0
    293e:	623b      	str	r3, [r7, #32]
C:\Users\kruci_000\Desktop\University\SoC\Marsfinder\Marsfinder\Marsfinder_FW\Debug/../Modules/MPU6050/mpu6050.c:224

    *ax = _ax * accel_factor;
    2940:	8bfb      	ldrh	r3, [r7, #30]
    2942:	b21b      	sxth	r3, r3
    2944:	4618      	mov	r0, r3
    2946:	f002 fbe9 	bl	511c <__aeabi_i2f>
    294a:	4603      	mov	r3, r0
    294c:	4618      	mov	r0, r3
    294e:	6a79      	ldr	r1, [r7, #36]	; 0x24
    2950:	f002 fc38 	bl	51c4 <__aeabi_fmul>
    2954:	4603      	mov	r3, r0
    2956:	461a      	mov	r2, r3
    2958:	68fb      	ldr	r3, [r7, #12]
    295a:	601a      	str	r2, [r3, #0]
C:\Users\kruci_000\Desktop\University\SoC\Marsfinder\Marsfinder\Marsfinder_FW\Debug/../Modules/MPU6050/mpu6050.c:225
    *ay = _ay * accel_factor;
    295c:	8bbb      	ldrh	r3, [r7, #28]
    295e:	b21b      	sxth	r3, r3
    2960:	4618      	mov	r0, r3
    2962:	f002 fbdb 	bl	511c <__aeabi_i2f>
    2966:	4603      	mov	r3, r0
    2968:	4618      	mov	r0, r3
    296a:	6a79      	ldr	r1, [r7, #36]	; 0x24
    296c:	f002 fc2a 	bl	51c4 <__aeabi_fmul>
    2970:	4603      	mov	r3, r0
    2972:	461a      	mov	r2, r3
    2974:	68bb      	ldr	r3, [r7, #8]
    2976:	601a      	str	r2, [r3, #0]
C:\Users\kruci_000\Desktop\University\SoC\Marsfinder\Marsfinder\Marsfinder_FW\Debug/../Modules/MPU6050/mpu6050.c:226
    *az = _az * accel_factor;
    2978:	8b7b      	ldrh	r3, [r7, #26]
    297a:	b21b      	sxth	r3, r3
    297c:	4618      	mov	r0, r3
    297e:	f002 fbcd 	bl	511c <__aeabi_i2f>
    2982:	4603      	mov	r3, r0
    2984:	4618      	mov	r0, r3
    2986:	6a79      	ldr	r1, [r7, #36]	; 0x24
    2988:	f002 fc1c 	bl	51c4 <__aeabi_fmul>
    298c:	4603      	mov	r3, r0
    298e:	461a      	mov	r2, r3
    2990:	687b      	ldr	r3, [r7, #4]
    2992:	601a      	str	r2, [r3, #0]
C:\Users\kruci_000\Desktop\University\SoC\Marsfinder\Marsfinder\Marsfinder_FW\Debug/../Modules/MPU6050/mpu6050.c:228

    *gx = _gx * gyro_factor;
    2994:	8b3b      	ldrh	r3, [r7, #24]
    2996:	b21b      	sxth	r3, r3
    2998:	4618      	mov	r0, r3
    299a:	f002 fbbf 	bl	511c <__aeabi_i2f>
    299e:	4603      	mov	r3, r0
    29a0:	4618      	mov	r0, r3
    29a2:	6a39      	ldr	r1, [r7, #32]
    29a4:	f002 fc0e 	bl	51c4 <__aeabi_fmul>
    29a8:	4603      	mov	r3, r0
    29aa:	461a      	mov	r2, r3
    29ac:	683b      	ldr	r3, [r7, #0]
    29ae:	601a      	str	r2, [r3, #0]
C:\Users\kruci_000\Desktop\University\SoC\Marsfinder\Marsfinder\Marsfinder_FW\Debug/../Modules/MPU6050/mpu6050.c:229
    *gy = _gy * gyro_factor;
    29b0:	8afb      	ldrh	r3, [r7, #22]
    29b2:	b21b      	sxth	r3, r3
    29b4:	4618      	mov	r0, r3
    29b6:	f002 fbb1 	bl	511c <__aeabi_i2f>
    29ba:	4603      	mov	r3, r0
    29bc:	4618      	mov	r0, r3
    29be:	6a39      	ldr	r1, [r7, #32]
    29c0:	f002 fc00 	bl	51c4 <__aeabi_fmul>
    29c4:	4603      	mov	r3, r0
    29c6:	461a      	mov	r2, r3
    29c8:	6c3b      	ldr	r3, [r7, #64]	; 0x40
    29ca:	601a      	str	r2, [r3, #0]
C:\Users\kruci_000\Desktop\University\SoC\Marsfinder\Marsfinder\Marsfinder_FW\Debug/../Modules/MPU6050/mpu6050.c:230
    *gz = _gz * gyro_factor;
    29cc:	8abb      	ldrh	r3, [r7, #20]
    29ce:	b21b      	sxth	r3, r3
    29d0:	4618      	mov	r0, r3
    29d2:	f002 fba3 	bl	511c <__aeabi_i2f>
    29d6:	4603      	mov	r3, r0
    29d8:	4618      	mov	r0, r3
    29da:	6a39      	ldr	r1, [r7, #32]
    29dc:	f002 fbf2 	bl	51c4 <__aeabi_fmul>
    29e0:	4603      	mov	r3, r0
    29e2:	461a      	mov	r2, r3
    29e4:	6c7b      	ldr	r3, [r7, #68]	; 0x44
    29e6:	601a      	str	r2, [r3, #0]
C:\Users\kruci_000\Desktop\University\SoC\Marsfinder\Marsfinder\Marsfinder_FW\Debug/../Modules/MPU6050/mpu6050.c:232

    *t = (_t + 12420.2f) / 340; // According to formula from Register Map
    29e8:	8a7b      	ldrh	r3, [r7, #18]
    29ea:	b21b      	sxth	r3, r3
    29ec:	4618      	mov	r0, r3
    29ee:	f002 fb95 	bl	511c <__aeabi_i2f>
    29f2:	4603      	mov	r3, r0
    29f4:	4618      	mov	r0, r3
    29f6:	4912      	ldr	r1, [pc, #72]	; (2a40 <MPU6050_getScaledData+0x1c8>)
    29f8:	f002 fadc 	bl	4fb4 <__addsf3>
    29fc:	4603      	mov	r3, r0
    29fe:	4618      	mov	r0, r3
    2a00:	4910      	ldr	r1, [pc, #64]	; (2a44 <MPU6050_getScaledData+0x1cc>)
    2a02:	f002 fc93 	bl	532c <__aeabi_fdiv>
    2a06:	4603      	mov	r3, r0
    2a08:	461a      	mov	r2, r3
    2a0a:	6cbb      	ldr	r3, [r7, #72]	; 0x48
    2a0c:	601a      	str	r2, [r3, #0]
C:\Users\kruci_000\Desktop\University\SoC\Marsfinder\Marsfinder\Marsfinder_FW\Debug/../Modules/MPU6050/mpu6050.c:233
}
    2a0e:	3734      	adds	r7, #52	; 0x34
    2a10:	46bd      	mov	sp, r7
    2a12:	bd90      	pop	{r4, r7, pc}
    2a14:	20000195 	.word	0x20000195
    2a18:	419ccccd 	.word	0x419ccccd
    2a1c:	421ccccd 	.word	0x421ccccd
    2a20:	429ccccd 	.word	0x429ccccd
    2a24:	431ccccd 	.word	0x431ccccd
    2a28:	20000194 	.word	0x20000194
    2a2c:	437a0000 	.word	0x437a0000
    2a30:	43fa0000 	.word	0x43fa0000
    2a34:	447a0000 	.word	0x447a0000
    2a38:	44fa0000 	.word	0x44fa0000
    2a3c:	46fffe00 	.word	0x46fffe00
    2a40:	464210cd 	.word	0x464210cd
    2a44:	43aa0000 	.word	0x43aa0000

00002a48 <mavlink_sys_update>:
mavlink_sys_update():
C:\Users\kruci_000\Desktop\University\SoC\Marsfinder\Marsfinder\Marsfinder_FW\Debug/../Modules/MAVLink/system.c:15
mavlink_system_t mavlink_system  = {.sysid = 20,
                                    .compid = 0};
uint8_t mavlink_sys_mode;
uint8_t mavlink_sys_state;

inline void mavlink_sys_update(uint8_t mode, uint8_t state) {
    2a48:	b480      	push	{r7}
    2a4a:	b083      	sub	sp, #12
    2a4c:	af00      	add	r7, sp, #0
    2a4e:	4603      	mov	r3, r0
    2a50:	460a      	mov	r2, r1
    2a52:	71fb      	strb	r3, [r7, #7]
    2a54:	4613      	mov	r3, r2
    2a56:	71bb      	strb	r3, [r7, #6]
C:\Users\kruci_000\Desktop\University\SoC\Marsfinder\Marsfinder\Marsfinder_FW\Debug/../Modules/MAVLink/system.c:16
   mavlink_sys_mode = mode;
    2a58:	4a05      	ldr	r2, [pc, #20]	; (2a70 <mavlink_sys_update+0x28>)
    2a5a:	79fb      	ldrb	r3, [r7, #7]
    2a5c:	7013      	strb	r3, [r2, #0]
C:\Users\kruci_000\Desktop\University\SoC\Marsfinder\Marsfinder\Marsfinder_FW\Debug/../Modules/MAVLink/system.c:17
   mavlink_sys_state = state;
    2a5e:	4a05      	ldr	r2, [pc, #20]	; (2a74 <mavlink_sys_update+0x2c>)
    2a60:	79bb      	ldrb	r3, [r7, #6]
    2a62:	7013      	strb	r3, [r2, #0]
C:\Users\kruci_000\Desktop\University\SoC\Marsfinder\Marsfinder\Marsfinder_FW\Debug/../Modules/MAVLink/system.c:18
}
    2a64:	370c      	adds	r7, #12
    2a66:	46bd      	mov	sp, r7
    2a68:	f85d 7b04 	ldr.w	r7, [sp], #4
    2a6c:	4770      	bx	lr
    2a6e:	bf00      	nop
    2a70:	20000629 	.word	0x20000629
    2a74:	20000628 	.word	0x20000628

00002a78 <i2c_init>:
i2c_init():
C:\Users\kruci_000\Desktop\University\SoC\Marsfinder\Marsfinder\Marsfinder_FW\Debug/../Modules/I2C/i2c.c:12

#include "i2c.h"

i2c_instance_t g_core_i2c;

void i2c_init() {
    2a78:	b580      	push	{r7, lr}
    2a7a:	af00      	add	r7, sp, #0
C:\Users\kruci_000\Desktop\University\SoC\Marsfinder\Marsfinder\Marsfinder_FW\Debug/../Modules/I2C/i2c.c:17
    /*-------------------------------------------------------------------------
     * Initialize the CoreI2C driver with its base address, I2C serial address
     * and serial clock divider.
     */
    I2C_init(&g_core_i2c, COREI2C_0_0, MY_SERIAL_ADDR, I2C_PCLK_DIV_256);
    2a7c:	4803      	ldr	r0, [pc, #12]	; (2a8c <i2c_init+0x14>)
    2a7e:	f04f 41a0 	mov.w	r1, #1342177280	; 0x50000000
    2a82:	2242      	movs	r2, #66	; 0x42
    2a84:	2300      	movs	r3, #0
    2a86:	f7fe fb43 	bl	1110 <I2C_init>
C:\Users\kruci_000\Desktop\University\SoC\Marsfinder\Marsfinder\Marsfinder_FW\Debug/../Modules/I2C/i2c.c:18
}
    2a8a:	bd80      	pop	{r7, pc}
    2a8c:	2000062c 	.word	0x2000062c

00002a90 <i2c_readBytes>:
i2c_readBytes():
C:\Users\kruci_000\Desktop\University\SoC\Marsfinder\Marsfinder\Marsfinder_FW\Debug/../Modules/I2C/i2c.c:32
}

i2c_status_t i2c_readBytes(
        uint8_t serial_addr,
        uint8_t* rx_buffer,
        uint8_t read_length) {
    2a90:	b590      	push	{r4, r7, lr}
    2a92:	b087      	sub	sp, #28
    2a94:	af02      	add	r7, sp, #8
    2a96:	4603      	mov	r3, r0
    2a98:	6039      	str	r1, [r7, #0]
    2a9a:	71fb      	strb	r3, [r7, #7]
    2a9c:	4613      	mov	r3, r2
    2a9e:	71bb      	strb	r3, [r7, #6]
C:\Users\kruci_000\Desktop\University\SoC\Marsfinder\Marsfinder\Marsfinder_FW\Debug/../Modules/I2C/i2c.c:34
    i2c_status_t status;
    I2C_read(&g_core_i2c, serial_addr, rx_buffer, read_length, I2C_RELEASE_BUS);
    2aa0:	79bb      	ldrb	r3, [r7, #6]
    2aa2:	b29c      	uxth	r4, r3
    2aa4:	79fa      	ldrb	r2, [r7, #7]
    2aa6:	2300      	movs	r3, #0
    2aa8:	9300      	str	r3, [sp, #0]
    2aaa:	4809      	ldr	r0, [pc, #36]	; (2ad0 <i2c_readBytes+0x40>)
    2aac:	4611      	mov	r1, r2
    2aae:	683a      	ldr	r2, [r7, #0]
    2ab0:	4623      	mov	r3, r4
    2ab2:	f7fe fbf7 	bl	12a4 <I2C_read>
C:\Users\kruci_000\Desktop\University\SoC\Marsfinder\Marsfinder\Marsfinder_FW\Debug/../Modules/I2C/i2c.c:35
    status = I2C_wait_complete(&g_core_i2c, I2C_TIMEOUT);
    2ab6:	4806      	ldr	r0, [pc, #24]	; (2ad0 <i2c_readBytes+0x40>)
    2ab8:	f640 31b8 	movw	r1, #3000	; 0xbb8
    2abc:	f7fe fc56 	bl	136c <I2C_wait_complete>
    2ac0:	4603      	mov	r3, r0
    2ac2:	73fb      	strb	r3, [r7, #15]
C:\Users\kruci_000\Desktop\University\SoC\Marsfinder\Marsfinder\Marsfinder_FW\Debug/../Modules/I2C/i2c.c:36
    return status;
    2ac4:	7bfb      	ldrb	r3, [r7, #15]
C:\Users\kruci_000\Desktop\University\SoC\Marsfinder\Marsfinder\Marsfinder_FW\Debug/../Modules/I2C/i2c.c:37
}
    2ac6:	4618      	mov	r0, r3
    2ac8:	3714      	adds	r7, #20
    2aca:	46bd      	mov	sp, r7
    2acc:	bd90      	pop	{r4, r7, pc}
    2ace:	bf00      	nop
    2ad0:	2000062c 	.word	0x2000062c

00002ad4 <i2c_writeBytes>:
i2c_writeBytes():
C:\Users\kruci_000\Desktop\University\SoC\Marsfinder\Marsfinder\Marsfinder_FW\Debug/../Modules/I2C/i2c.c:42

i2c_status_t i2c_writeBytes(
        uint8_t serial_addr,
        uint8_t* tx_buffer,
        uint8_t write_length) {
    2ad4:	b590      	push	{r4, r7, lr}
    2ad6:	b087      	sub	sp, #28
    2ad8:	af02      	add	r7, sp, #8
    2ada:	4603      	mov	r3, r0
    2adc:	6039      	str	r1, [r7, #0]
    2ade:	71fb      	strb	r3, [r7, #7]
    2ae0:	4613      	mov	r3, r2
    2ae2:	71bb      	strb	r3, [r7, #6]
C:\Users\kruci_000\Desktop\University\SoC\Marsfinder\Marsfinder\Marsfinder_FW\Debug/../Modules/I2C/i2c.c:44
    i2c_status_t status;
    I2C_write(&g_core_i2c, serial_addr, tx_buffer, write_length,
    2ae4:	79bb      	ldrb	r3, [r7, #6]
    2ae6:	b29c      	uxth	r4, r3
    2ae8:	79fa      	ldrb	r2, [r7, #7]
    2aea:	2300      	movs	r3, #0
    2aec:	9300      	str	r3, [sp, #0]
    2aee:	4809      	ldr	r0, [pc, #36]	; (2b14 <i2c_writeBytes+0x40>)
    2af0:	4611      	mov	r1, r2
    2af2:	683a      	ldr	r2, [r7, #0]
    2af4:	4623      	mov	r3, r4
    2af6:	f7fe fb71 	bl	11dc <I2C_write>
C:\Users\kruci_000\Desktop\University\SoC\Marsfinder\Marsfinder\Marsfinder_FW\Debug/../Modules/I2C/i2c.c:46
            I2C_RELEASE_BUS);
    status = I2C_wait_complete(&g_core_i2c, I2C_TIMEOUT);
    2afa:	4806      	ldr	r0, [pc, #24]	; (2b14 <i2c_writeBytes+0x40>)
    2afc:	f640 31b8 	movw	r1, #3000	; 0xbb8
    2b00:	f7fe fc34 	bl	136c <I2C_wait_complete>
    2b04:	4603      	mov	r3, r0
    2b06:	73fb      	strb	r3, [r7, #15]
C:\Users\kruci_000\Desktop\University\SoC\Marsfinder\Marsfinder\Marsfinder_FW\Debug/../Modules/I2C/i2c.c:47
    return status;
    2b08:	7bfb      	ldrb	r3, [r7, #15]
C:\Users\kruci_000\Desktop\University\SoC\Marsfinder\Marsfinder\Marsfinder_FW\Debug/../Modules/I2C/i2c.c:48
}
    2b0a:	4618      	mov	r0, r3
    2b0c:	3714      	adds	r7, #20
    2b0e:	46bd      	mov	sp, r7
    2b10:	bd90      	pop	{r4, r7, pc}
    2b12:	bf00      	nop
    2b14:	2000062c 	.word	0x2000062c

00002b18 <i2c_writeBits>:
i2c_writeBits():
C:\Users\kruci_000\Desktop\University\SoC\Marsfinder\Marsfinder\Marsfinder_FW\Debug/../Modules/I2C/i2c.c:55
i2c_status_t i2c_writeBits(
        uint8_t dev_addr,
        uint8_t reg_addr,
        uint8_t bit_start,
        uint8_t length,
        uint8_t data) {
    2b18:	b590      	push	{r4, r7, lr}
    2b1a:	b085      	sub	sp, #20
    2b1c:	af00      	add	r7, sp, #0
    2b1e:	4604      	mov	r4, r0
    2b20:	4608      	mov	r0, r1
    2b22:	4611      	mov	r1, r2
    2b24:	461a      	mov	r2, r3
    2b26:	4623      	mov	r3, r4
    2b28:	71fb      	strb	r3, [r7, #7]
    2b2a:	4603      	mov	r3, r0
    2b2c:	71bb      	strb	r3, [r7, #6]
    2b2e:	460b      	mov	r3, r1
    2b30:	717b      	strb	r3, [r7, #5]
    2b32:	4613      	mov	r3, r2
    2b34:	713b      	strb	r3, [r7, #4]
C:\Users\kruci_000\Desktop\University\SoC\Marsfinder\Marsfinder\Marsfinder_FW\Debug/../Modules/I2C/i2c.c:65
    // 10101111 : original value (sample)
    // 10100011 : original & ~mask
    // 10101011 : masked | value
    uint8_t b;
    i2c_status_t status;
    status = i2c_writeBytes(dev_addr, &reg_addr, 1);
    2b36:	79fa      	ldrb	r2, [r7, #7]
    2b38:	1dbb      	adds	r3, r7, #6
    2b3a:	4610      	mov	r0, r2
    2b3c:	4619      	mov	r1, r3
    2b3e:	2201      	movs	r2, #1
    2b40:	f7ff ffc8 	bl	2ad4 <i2c_writeBytes>
    2b44:	4603      	mov	r3, r0
    2b46:	73fb      	strb	r3, [r7, #15]
C:\Users\kruci_000\Desktop\University\SoC\Marsfinder\Marsfinder\Marsfinder_FW\Debug/../Modules/I2C/i2c.c:66
    status |= i2c_readBytes(dev_addr, &b, 1);
    2b48:	79fa      	ldrb	r2, [r7, #7]
    2b4a:	f107 030c 	add.w	r3, r7, #12
    2b4e:	4610      	mov	r0, r2
    2b50:	4619      	mov	r1, r3
    2b52:	2201      	movs	r2, #1
    2b54:	f7ff ff9c 	bl	2a90 <i2c_readBytes>
    2b58:	4603      	mov	r3, r0
    2b5a:	461a      	mov	r2, r3
    2b5c:	7bfb      	ldrb	r3, [r7, #15]
    2b5e:	4313      	orrs	r3, r2
    2b60:	73fb      	strb	r3, [r7, #15]
C:\Users\kruci_000\Desktop\University\SoC\Marsfinder\Marsfinder\Marsfinder_FW\Debug/../Modules/I2C/i2c.c:67
    if (status == I2C_SUCCESS) {
    2b62:	7bfb      	ldrb	r3, [r7, #15]
    2b64:	2b00      	cmp	r3, #0
    2b66:	d140      	bne.n	2bea <i2c_writeBits+0xd2>
C:\Users\kruci_000\Desktop\University\SoC\Marsfinder\Marsfinder\Marsfinder_FW\Debug/../Modules/I2C/i2c.c:68
        uint8_t mask = ((1 << length) - 1) << (bit_start - length + 1);
    2b68:	793b      	ldrb	r3, [r7, #4]
    2b6a:	2201      	movs	r2, #1
    2b6c:	fa02 f303 	lsl.w	r3, r2, r3
    2b70:	1e5a      	subs	r2, r3, #1
    2b72:	7979      	ldrb	r1, [r7, #5]
    2b74:	793b      	ldrb	r3, [r7, #4]
    2b76:	1acb      	subs	r3, r1, r3
    2b78:	3301      	adds	r3, #1
    2b7a:	fa02 f303 	lsl.w	r3, r2, r3
    2b7e:	73bb      	strb	r3, [r7, #14]
C:\Users\kruci_000\Desktop\University\SoC\Marsfinder\Marsfinder\Marsfinder_FW\Debug/../Modules/I2C/i2c.c:69
        data <<= (bit_start - length + 1); // shift data into correct position
    2b80:	f897 2020 	ldrb.w	r2, [r7, #32]
    2b84:	7979      	ldrb	r1, [r7, #5]
    2b86:	793b      	ldrb	r3, [r7, #4]
    2b88:	1acb      	subs	r3, r1, r3
    2b8a:	3301      	adds	r3, #1
    2b8c:	fa02 f303 	lsl.w	r3, r2, r3
    2b90:	f887 3020 	strb.w	r3, [r7, #32]
C:\Users\kruci_000\Desktop\University\SoC\Marsfinder\Marsfinder\Marsfinder_FW\Debug/../Modules/I2C/i2c.c:70
        data &= mask; // zero all non-important bits in data
    2b94:	f897 2020 	ldrb.w	r2, [r7, #32]
    2b98:	7bbb      	ldrb	r3, [r7, #14]
    2b9a:	4013      	ands	r3, r2
    2b9c:	f887 3020 	strb.w	r3, [r7, #32]
C:\Users\kruci_000\Desktop\University\SoC\Marsfinder\Marsfinder\Marsfinder_FW\Debug/../Modules/I2C/i2c.c:71
        b &= ~(mask); // zero all important bits in existing byte
    2ba0:	7bbb      	ldrb	r3, [r7, #14]
    2ba2:	43db      	mvns	r3, r3
    2ba4:	b2da      	uxtb	r2, r3
    2ba6:	7b3b      	ldrb	r3, [r7, #12]
    2ba8:	b2db      	uxtb	r3, r3
    2baa:	4013      	ands	r3, r2
    2bac:	b2db      	uxtb	r3, r3
    2bae:	b2db      	uxtb	r3, r3
    2bb0:	733b      	strb	r3, [r7, #12]
C:\Users\kruci_000\Desktop\University\SoC\Marsfinder\Marsfinder\Marsfinder_FW\Debug/../Modules/I2C/i2c.c:72
        b |= data; // combine data with existing byte
    2bb2:	7b3a      	ldrb	r2, [r7, #12]
    2bb4:	f897 3020 	ldrb.w	r3, [r7, #32]
    2bb8:	4313      	orrs	r3, r2
    2bba:	b2db      	uxtb	r3, r3
    2bbc:	733b      	strb	r3, [r7, #12]
C:\Users\kruci_000\Desktop\University\SoC\Marsfinder\Marsfinder\Marsfinder_FW\Debug/../Modules/I2C/i2c.c:75

        uint8_t tx_buf[2];
        uint8_t tx_len = 2;
    2bbe:	2302      	movs	r3, #2
    2bc0:	737b      	strb	r3, [r7, #13]
C:\Users\kruci_000\Desktop\University\SoC\Marsfinder\Marsfinder\Marsfinder_FW\Debug/../Modules/I2C/i2c.c:77

        tx_buf[0] = reg_addr;
    2bc2:	79bb      	ldrb	r3, [r7, #6]
    2bc4:	723b      	strb	r3, [r7, #8]
C:\Users\kruci_000\Desktop\University\SoC\Marsfinder\Marsfinder\Marsfinder_FW\Debug/../Modules/I2C/i2c.c:78
        tx_buf[1] = b;
    2bc6:	7b3b      	ldrb	r3, [r7, #12]
    2bc8:	727b      	strb	r3, [r7, #9]
C:\Users\kruci_000\Desktop\University\SoC\Marsfinder\Marsfinder\Marsfinder_FW\Debug/../Modules/I2C/i2c.c:80

        status |= i2c_writeBytes(dev_addr, tx_buf, tx_len);
    2bca:	79f9      	ldrb	r1, [r7, #7]
    2bcc:	f107 0208 	add.w	r2, r7, #8
    2bd0:	7b7b      	ldrb	r3, [r7, #13]
    2bd2:	4608      	mov	r0, r1
    2bd4:	4611      	mov	r1, r2
    2bd6:	461a      	mov	r2, r3
    2bd8:	f7ff ff7c 	bl	2ad4 <i2c_writeBytes>
    2bdc:	4603      	mov	r3, r0
    2bde:	461a      	mov	r2, r3
    2be0:	7bfb      	ldrb	r3, [r7, #15]
    2be2:	4313      	orrs	r3, r2
    2be4:	73fb      	strb	r3, [r7, #15]
C:\Users\kruci_000\Desktop\University\SoC\Marsfinder\Marsfinder\Marsfinder_FW\Debug/../Modules/I2C/i2c.c:81
        return status;
    2be6:	7bfb      	ldrb	r3, [r7, #15]
    2be8:	e000      	b.n	2bec <i2c_writeBits+0xd4>
C:\Users\kruci_000\Desktop\University\SoC\Marsfinder\Marsfinder\Marsfinder_FW\Debug/../Modules/I2C/i2c.c:83
    }
    return status;
    2bea:	7bfb      	ldrb	r3, [r7, #15]
C:\Users\kruci_000\Desktop\University\SoC\Marsfinder\Marsfinder\Marsfinder_FW\Debug/../Modules/I2C/i2c.c:84 (discriminator 2)
}
    2bec:	4618      	mov	r0, r3
    2bee:	3714      	adds	r7, #20
    2bf0:	46bd      	mov	sp, r7
    2bf2:	bd90      	pop	{r4, r7, pc}

00002bf4 <i2c_writeBit>:
i2c_writeBit():
C:\Users\kruci_000\Desktop\University\SoC\Marsfinder\Marsfinder\Marsfinder_FW\Debug/../Modules/I2C/i2c.c:90

i2c_status_t i2c_writeBit(
        uint8_t dev_addr,
        uint8_t reg_addr,
        uint8_t bit_num,
        uint8_t data) {
    2bf4:	b590      	push	{r4, r7, lr}
    2bf6:	b085      	sub	sp, #20
    2bf8:	af00      	add	r7, sp, #0
    2bfa:	4604      	mov	r4, r0
    2bfc:	4608      	mov	r0, r1
    2bfe:	4611      	mov	r1, r2
    2c00:	461a      	mov	r2, r3
    2c02:	4623      	mov	r3, r4
    2c04:	71fb      	strb	r3, [r7, #7]
    2c06:	4603      	mov	r3, r0
    2c08:	71bb      	strb	r3, [r7, #6]
    2c0a:	460b      	mov	r3, r1
    2c0c:	717b      	strb	r3, [r7, #5]
    2c0e:	4613      	mov	r3, r2
    2c10:	713b      	strb	r3, [r7, #4]
C:\Users\kruci_000\Desktop\University\SoC\Marsfinder\Marsfinder\Marsfinder_FW\Debug/../Modules/I2C/i2c.c:93
    uint8_t b;
    i2c_status_t status;
    status = i2c_writeBytes(dev_addr, &reg_addr, 1);
    2c12:	79fa      	ldrb	r2, [r7, #7]
    2c14:	1dbb      	adds	r3, r7, #6
    2c16:	4610      	mov	r0, r2
    2c18:	4619      	mov	r1, r3
    2c1a:	2201      	movs	r2, #1
    2c1c:	f7ff ff5a 	bl	2ad4 <i2c_writeBytes>
    2c20:	4603      	mov	r3, r0
    2c22:	73fb      	strb	r3, [r7, #15]
C:\Users\kruci_000\Desktop\University\SoC\Marsfinder\Marsfinder\Marsfinder_FW\Debug/../Modules/I2C/i2c.c:94
    status |= i2c_readBytes(dev_addr, &b, 1);
    2c24:	79fa      	ldrb	r2, [r7, #7]
    2c26:	f107 030d 	add.w	r3, r7, #13
    2c2a:	4610      	mov	r0, r2
    2c2c:	4619      	mov	r1, r3
    2c2e:	2201      	movs	r2, #1
    2c30:	f7ff ff2e 	bl	2a90 <i2c_readBytes>
    2c34:	4603      	mov	r3, r0
    2c36:	461a      	mov	r2, r3
    2c38:	7bfb      	ldrb	r3, [r7, #15]
    2c3a:	4313      	orrs	r3, r2
    2c3c:	73fb      	strb	r3, [r7, #15]
C:\Users\kruci_000\Desktop\University\SoC\Marsfinder\Marsfinder\Marsfinder_FW\Debug/../Modules/I2C/i2c.c:95
    if (status == I2C_SUCCESS) {
    2c3e:	7bfb      	ldrb	r3, [r7, #15]
    2c40:	2b00      	cmp	r3, #0
    2c42:	d130      	bne.n	2ca6 <i2c_writeBit+0xb2>
C:\Users\kruci_000\Desktop\University\SoC\Marsfinder\Marsfinder\Marsfinder_FW\Debug/../Modules/I2C/i2c.c:96
        b = (data != 0) ? (b | (1 << bit_num)) : (b & ~(1 << bit_num));
    2c44:	793b      	ldrb	r3, [r7, #4]
    2c46:	2b00      	cmp	r3, #0
    2c48:	d00a      	beq.n	2c60 <i2c_writeBit+0x6c>
C:\Users\kruci_000\Desktop\University\SoC\Marsfinder\Marsfinder\Marsfinder_FW\Debug/../Modules/I2C/i2c.c:96 (discriminator 1)
    2c4a:	797b      	ldrb	r3, [r7, #5]
    2c4c:	2201      	movs	r2, #1
    2c4e:	fa02 f303 	lsl.w	r3, r2, r3
    2c52:	b2da      	uxtb	r2, r3
    2c54:	7b7b      	ldrb	r3, [r7, #13]
    2c56:	b2db      	uxtb	r3, r3
    2c58:	4313      	orrs	r3, r2
    2c5a:	b2db      	uxtb	r3, r3
    2c5c:	b2db      	uxtb	r3, r3
    2c5e:	e00b      	b.n	2c78 <i2c_writeBit+0x84>
C:\Users\kruci_000\Desktop\University\SoC\Marsfinder\Marsfinder\Marsfinder_FW\Debug/../Modules/I2C/i2c.c:96 (discriminator 2)
    2c60:	797b      	ldrb	r3, [r7, #5]
    2c62:	2201      	movs	r2, #1
    2c64:	fa02 f303 	lsl.w	r3, r2, r3
    2c68:	b2db      	uxtb	r3, r3
    2c6a:	43db      	mvns	r3, r3
    2c6c:	b2da      	uxtb	r2, r3
    2c6e:	7b7b      	ldrb	r3, [r7, #13]
    2c70:	b2db      	uxtb	r3, r3
    2c72:	4013      	ands	r3, r2
    2c74:	b2db      	uxtb	r3, r3
    2c76:	b2db      	uxtb	r3, r3
C:\Users\kruci_000\Desktop\University\SoC\Marsfinder\Marsfinder\Marsfinder_FW\Debug/../Modules/I2C/i2c.c:96 (discriminator 4)
    2c78:	737b      	strb	r3, [r7, #13]
C:\Users\kruci_000\Desktop\University\SoC\Marsfinder\Marsfinder\Marsfinder_FW\Debug/../Modules/I2C/i2c.c:99 (discriminator 4)

        uint8_t tx_buf[2];
        uint8_t tx_len = 2;
    2c7a:	2302      	movs	r3, #2
    2c7c:	73bb      	strb	r3, [r7, #14]
C:\Users\kruci_000\Desktop\University\SoC\Marsfinder\Marsfinder\Marsfinder_FW\Debug/../Modules/I2C/i2c.c:101 (discriminator 4)

        tx_buf[0] = reg_addr;
    2c7e:	79bb      	ldrb	r3, [r7, #6]
    2c80:	723b      	strb	r3, [r7, #8]
C:\Users\kruci_000\Desktop\University\SoC\Marsfinder\Marsfinder\Marsfinder_FW\Debug/../Modules/I2C/i2c.c:102 (discriminator 4)
        tx_buf[1] = b;
    2c82:	7b7b      	ldrb	r3, [r7, #13]
    2c84:	727b      	strb	r3, [r7, #9]
C:\Users\kruci_000\Desktop\University\SoC\Marsfinder\Marsfinder\Marsfinder_FW\Debug/../Modules/I2C/i2c.c:104 (discriminator 4)

        status |= i2c_writeBytes(dev_addr, tx_buf, tx_len);
    2c86:	79f9      	ldrb	r1, [r7, #7]
    2c88:	f107 0208 	add.w	r2, r7, #8
    2c8c:	7bbb      	ldrb	r3, [r7, #14]
    2c8e:	4608      	mov	r0, r1
    2c90:	4611      	mov	r1, r2
    2c92:	461a      	mov	r2, r3
    2c94:	f7ff ff1e 	bl	2ad4 <i2c_writeBytes>
    2c98:	4603      	mov	r3, r0
    2c9a:	461a      	mov	r2, r3
    2c9c:	7bfb      	ldrb	r3, [r7, #15]
    2c9e:	4313      	orrs	r3, r2
    2ca0:	73fb      	strb	r3, [r7, #15]
C:\Users\kruci_000\Desktop\University\SoC\Marsfinder\Marsfinder\Marsfinder_FW\Debug/../Modules/I2C/i2c.c:105 (discriminator 4)
        return status;
    2ca2:	7bfb      	ldrb	r3, [r7, #15]
    2ca4:	e000      	b.n	2ca8 <i2c_writeBit+0xb4>
C:\Users\kruci_000\Desktop\University\SoC\Marsfinder\Marsfinder\Marsfinder_FW\Debug/../Modules/I2C/i2c.c:107
    }
    return status;
    2ca6:	7bfb      	ldrb	r3, [r7, #15]
C:\Users\kruci_000\Desktop\University\SoC\Marsfinder\Marsfinder\Marsfinder_FW\Debug/../Modules/I2C/i2c.c:108 (discriminator 2)
}
    2ca8:	4618      	mov	r0, r3
    2caa:	3714      	adds	r7, #20
    2cac:	46bd      	mov	sp, r7
    2cae:	bd90      	pop	{r4, r7, pc}

00002cb0 <MadgwickAHRSupdateIMU>:
MadgwickAHRSupdateIMU():
C:\Users\kruci_000\Desktop\University\SoC\Marsfinder\Marsfinder\Marsfinder_FW\Debug/../Modules/AHRS/MadgwickAHRS.c:189

//---------------------------------------------------------------------------------------------------
// IMU algorithm update

void MadgwickAHRSupdateIMU(float gx, float gy, float gz,
                           float ax, float ay, float az) {
    2cb0:	b590      	push	{r4, r7, lr}
    2cb2:	b09b      	sub	sp, #108	; 0x6c
    2cb4:	af00      	add	r7, sp, #0
    2cb6:	60f8      	str	r0, [r7, #12]
    2cb8:	60b9      	str	r1, [r7, #8]
    2cba:	607a      	str	r2, [r7, #4]
    2cbc:	603b      	str	r3, [r7, #0]
C:\Users\kruci_000\Desktop\University\SoC\Marsfinder\Marsfinder\Marsfinder_FW\Debug/../Modules/AHRS/MadgwickAHRS.c:197
    float qDot1, qDot2, qDot3, qDot4;
    float _2q0, _2q1, _2q2, _2q3, _4q0, _4q1, _4q2, _8q1, _8q2, q0q0, q1q1,
            q2q2, q3q3;

    // Rate of change of quaternion from gyroscope
    qDot1 = 0.5f * (-q1 * gx - q2 * gy - q3 * gz);
    2cbe:	4b9e      	ldr	r3, [pc, #632]	; (2f38 <MadgwickAHRSupdateIMU+0x288>)
    2cc0:	681b      	ldr	r3, [r3, #0]
    2cc2:	f083 4300 	eor.w	r3, r3, #2147483648	; 0x80000000
    2cc6:	4618      	mov	r0, r3
    2cc8:	68f9      	ldr	r1, [r7, #12]
    2cca:	f002 fa7b 	bl	51c4 <__aeabi_fmul>
    2cce:	4603      	mov	r3, r0
    2cd0:	461c      	mov	r4, r3
    2cd2:	4b9a      	ldr	r3, [pc, #616]	; (2f3c <MadgwickAHRSupdateIMU+0x28c>)
    2cd4:	681b      	ldr	r3, [r3, #0]
    2cd6:	4618      	mov	r0, r3
    2cd8:	68b9      	ldr	r1, [r7, #8]
    2cda:	f002 fa73 	bl	51c4 <__aeabi_fmul>
    2cde:	4603      	mov	r3, r0
    2ce0:	4620      	mov	r0, r4
    2ce2:	4619      	mov	r1, r3
    2ce4:	f002 f964 	bl	4fb0 <__aeabi_fsub>
    2ce8:	4603      	mov	r3, r0
    2cea:	461c      	mov	r4, r3
    2cec:	4b94      	ldr	r3, [pc, #592]	; (2f40 <MadgwickAHRSupdateIMU+0x290>)
    2cee:	681b      	ldr	r3, [r3, #0]
    2cf0:	4618      	mov	r0, r3
    2cf2:	6879      	ldr	r1, [r7, #4]
    2cf4:	f002 fa66 	bl	51c4 <__aeabi_fmul>
    2cf8:	4603      	mov	r3, r0
    2cfa:	4620      	mov	r0, r4
    2cfc:	4619      	mov	r1, r3
    2cfe:	f002 f957 	bl	4fb0 <__aeabi_fsub>
    2d02:	4603      	mov	r3, r0
    2d04:	4618      	mov	r0, r3
    2d06:	f04f 517c 	mov.w	r1, #1056964608	; 0x3f000000
    2d0a:	f002 fa5b 	bl	51c4 <__aeabi_fmul>
    2d0e:	4603      	mov	r3, r0
    2d10:	667b      	str	r3, [r7, #100]	; 0x64
C:\Users\kruci_000\Desktop\University\SoC\Marsfinder\Marsfinder\Marsfinder_FW\Debug/../Modules/AHRS/MadgwickAHRS.c:198
    qDot2 = 0.5f * (q0 * gx + q2 * gz - q3 * gy);
    2d12:	4b8c      	ldr	r3, [pc, #560]	; (2f44 <MadgwickAHRSupdateIMU+0x294>)
    2d14:	681b      	ldr	r3, [r3, #0]
    2d16:	4618      	mov	r0, r3
    2d18:	68f9      	ldr	r1, [r7, #12]
    2d1a:	f002 fa53 	bl	51c4 <__aeabi_fmul>
    2d1e:	4603      	mov	r3, r0
    2d20:	461c      	mov	r4, r3
    2d22:	4b86      	ldr	r3, [pc, #536]	; (2f3c <MadgwickAHRSupdateIMU+0x28c>)
    2d24:	681b      	ldr	r3, [r3, #0]
    2d26:	4618      	mov	r0, r3
    2d28:	6879      	ldr	r1, [r7, #4]
    2d2a:	f002 fa4b 	bl	51c4 <__aeabi_fmul>
    2d2e:	4603      	mov	r3, r0
    2d30:	4620      	mov	r0, r4
    2d32:	4619      	mov	r1, r3
    2d34:	f002 f93e 	bl	4fb4 <__addsf3>
    2d38:	4603      	mov	r3, r0
    2d3a:	461c      	mov	r4, r3
    2d3c:	4b80      	ldr	r3, [pc, #512]	; (2f40 <MadgwickAHRSupdateIMU+0x290>)
    2d3e:	681b      	ldr	r3, [r3, #0]
    2d40:	4618      	mov	r0, r3
    2d42:	68b9      	ldr	r1, [r7, #8]
    2d44:	f002 fa3e 	bl	51c4 <__aeabi_fmul>
    2d48:	4603      	mov	r3, r0
    2d4a:	4620      	mov	r0, r4
    2d4c:	4619      	mov	r1, r3
    2d4e:	f002 f92f 	bl	4fb0 <__aeabi_fsub>
    2d52:	4603      	mov	r3, r0
    2d54:	4618      	mov	r0, r3
    2d56:	f04f 517c 	mov.w	r1, #1056964608	; 0x3f000000
    2d5a:	f002 fa33 	bl	51c4 <__aeabi_fmul>
    2d5e:	4603      	mov	r3, r0
    2d60:	663b      	str	r3, [r7, #96]	; 0x60
C:\Users\kruci_000\Desktop\University\SoC\Marsfinder\Marsfinder\Marsfinder_FW\Debug/../Modules/AHRS/MadgwickAHRS.c:199
    qDot3 = 0.5f * (q0 * gy - q1 * gz + q3 * gx);
    2d62:	4b78      	ldr	r3, [pc, #480]	; (2f44 <MadgwickAHRSupdateIMU+0x294>)
    2d64:	681b      	ldr	r3, [r3, #0]
    2d66:	4618      	mov	r0, r3
    2d68:	68b9      	ldr	r1, [r7, #8]
    2d6a:	f002 fa2b 	bl	51c4 <__aeabi_fmul>
    2d6e:	4603      	mov	r3, r0
    2d70:	461c      	mov	r4, r3
    2d72:	4b71      	ldr	r3, [pc, #452]	; (2f38 <MadgwickAHRSupdateIMU+0x288>)
    2d74:	681b      	ldr	r3, [r3, #0]
    2d76:	4618      	mov	r0, r3
    2d78:	6879      	ldr	r1, [r7, #4]
    2d7a:	f002 fa23 	bl	51c4 <__aeabi_fmul>
    2d7e:	4603      	mov	r3, r0
    2d80:	4620      	mov	r0, r4
    2d82:	4619      	mov	r1, r3
    2d84:	f002 f914 	bl	4fb0 <__aeabi_fsub>
    2d88:	4603      	mov	r3, r0
    2d8a:	461c      	mov	r4, r3
    2d8c:	4b6c      	ldr	r3, [pc, #432]	; (2f40 <MadgwickAHRSupdateIMU+0x290>)
    2d8e:	681b      	ldr	r3, [r3, #0]
    2d90:	4618      	mov	r0, r3
    2d92:	68f9      	ldr	r1, [r7, #12]
    2d94:	f002 fa16 	bl	51c4 <__aeabi_fmul>
    2d98:	4603      	mov	r3, r0
    2d9a:	4620      	mov	r0, r4
    2d9c:	4619      	mov	r1, r3
    2d9e:	f002 f909 	bl	4fb4 <__addsf3>
    2da2:	4603      	mov	r3, r0
    2da4:	4618      	mov	r0, r3
    2da6:	f04f 517c 	mov.w	r1, #1056964608	; 0x3f000000
    2daa:	f002 fa0b 	bl	51c4 <__aeabi_fmul>
    2dae:	4603      	mov	r3, r0
    2db0:	65fb      	str	r3, [r7, #92]	; 0x5c
C:\Users\kruci_000\Desktop\University\SoC\Marsfinder\Marsfinder\Marsfinder_FW\Debug/../Modules/AHRS/MadgwickAHRS.c:200
    qDot4 = 0.5f * (q0 * gz + q1 * gy - q2 * gx);
    2db2:	4b64      	ldr	r3, [pc, #400]	; (2f44 <MadgwickAHRSupdateIMU+0x294>)
    2db4:	681b      	ldr	r3, [r3, #0]
    2db6:	4618      	mov	r0, r3
    2db8:	6879      	ldr	r1, [r7, #4]
    2dba:	f002 fa03 	bl	51c4 <__aeabi_fmul>
    2dbe:	4603      	mov	r3, r0
    2dc0:	461c      	mov	r4, r3
    2dc2:	4b5d      	ldr	r3, [pc, #372]	; (2f38 <MadgwickAHRSupdateIMU+0x288>)
    2dc4:	681b      	ldr	r3, [r3, #0]
    2dc6:	4618      	mov	r0, r3
    2dc8:	68b9      	ldr	r1, [r7, #8]
    2dca:	f002 f9fb 	bl	51c4 <__aeabi_fmul>
    2dce:	4603      	mov	r3, r0
    2dd0:	4620      	mov	r0, r4
    2dd2:	4619      	mov	r1, r3
    2dd4:	f002 f8ee 	bl	4fb4 <__addsf3>
    2dd8:	4603      	mov	r3, r0
    2dda:	461c      	mov	r4, r3
    2ddc:	4b57      	ldr	r3, [pc, #348]	; (2f3c <MadgwickAHRSupdateIMU+0x28c>)
    2dde:	681b      	ldr	r3, [r3, #0]
    2de0:	4618      	mov	r0, r3
    2de2:	68f9      	ldr	r1, [r7, #12]
    2de4:	f002 f9ee 	bl	51c4 <__aeabi_fmul>
    2de8:	4603      	mov	r3, r0
    2dea:	4620      	mov	r0, r4
    2dec:	4619      	mov	r1, r3
    2dee:	f002 f8df 	bl	4fb0 <__aeabi_fsub>
    2df2:	4603      	mov	r3, r0
    2df4:	4618      	mov	r0, r3
    2df6:	f04f 517c 	mov.w	r1, #1056964608	; 0x3f000000
    2dfa:	f002 f9e3 	bl	51c4 <__aeabi_fmul>
    2dfe:	4603      	mov	r3, r0
    2e00:	65bb      	str	r3, [r7, #88]	; 0x58
C:\Users\kruci_000\Desktop\University\SoC\Marsfinder\Marsfinder\Marsfinder_FW\Debug/../Modules/AHRS/MadgwickAHRS.c:203

    // Compute feedback only if accelerometer measurement valid (avoids NaN in accelerometer normalisation)
    if (!((ax == 0.0f) && (ay == 0.0f) && (az == 0.0f))) {
    2e02:	6838      	ldr	r0, [r7, #0]
    2e04:	f04f 0100 	mov.w	r1, #0
    2e08:	f002 fb70 	bl	54ec <__aeabi_fcmpeq>
    2e0c:	4603      	mov	r3, r0
    2e0e:	2b00      	cmp	r3, #0
    2e10:	d010      	beq.n	2e34 <MadgwickAHRSupdateIMU+0x184>
C:\Users\kruci_000\Desktop\University\SoC\Marsfinder\Marsfinder\Marsfinder_FW\Debug/../Modules/AHRS/MadgwickAHRS.c:203 (discriminator 1)
    2e12:	6fb8      	ldr	r0, [r7, #120]	; 0x78
    2e14:	f04f 0100 	mov.w	r1, #0
    2e18:	f002 fb68 	bl	54ec <__aeabi_fcmpeq>
    2e1c:	4603      	mov	r3, r0
    2e1e:	2b00      	cmp	r3, #0
    2e20:	d008      	beq.n	2e34 <MadgwickAHRSupdateIMU+0x184>
C:\Users\kruci_000\Desktop\University\SoC\Marsfinder\Marsfinder\Marsfinder_FW\Debug/../Modules/AHRS/MadgwickAHRS.c:203 (discriminator 2)
    2e22:	6ff8      	ldr	r0, [r7, #124]	; 0x7c
    2e24:	f04f 0100 	mov.w	r1, #0
    2e28:	f002 fb60 	bl	54ec <__aeabi_fcmpeq>
    2e2c:	4603      	mov	r3, r0
    2e2e:	2b00      	cmp	r3, #0
    2e30:	f040 823c 	bne.w	32ac <MadgwickAHRSupdateIMU+0x5fc>
C:\Users\kruci_000\Desktop\University\SoC\Marsfinder\Marsfinder\Marsfinder_FW\Debug/../Modules/AHRS/MadgwickAHRS.c:206

        // Normalise accelerometer measurement
        recipNorm = invSqrt(ax * ax + ay * ay + az * az);
    2e34:	6838      	ldr	r0, [r7, #0]
    2e36:	6839      	ldr	r1, [r7, #0]
    2e38:	f002 f9c4 	bl	51c4 <__aeabi_fmul>
    2e3c:	4603      	mov	r3, r0
    2e3e:	461c      	mov	r4, r3
    2e40:	6fb8      	ldr	r0, [r7, #120]	; 0x78
    2e42:	6fb9      	ldr	r1, [r7, #120]	; 0x78
    2e44:	f002 f9be 	bl	51c4 <__aeabi_fmul>
    2e48:	4603      	mov	r3, r0
    2e4a:	4620      	mov	r0, r4
    2e4c:	4619      	mov	r1, r3
    2e4e:	f002 f8b1 	bl	4fb4 <__addsf3>
    2e52:	4603      	mov	r3, r0
    2e54:	461c      	mov	r4, r3
    2e56:	6ff8      	ldr	r0, [r7, #124]	; 0x7c
    2e58:	6ff9      	ldr	r1, [r7, #124]	; 0x7c
    2e5a:	f002 f9b3 	bl	51c4 <__aeabi_fmul>
    2e5e:	4603      	mov	r3, r0
    2e60:	4620      	mov	r0, r4
    2e62:	4619      	mov	r1, r3
    2e64:	f002 f8a6 	bl	4fb4 <__addsf3>
    2e68:	4603      	mov	r3, r0
    2e6a:	4618      	mov	r0, r3
    2e6c:	f000 fad0 	bl	3410 <invSqrt>
    2e70:	6578      	str	r0, [r7, #84]	; 0x54
C:\Users\kruci_000\Desktop\University\SoC\Marsfinder\Marsfinder\Marsfinder_FW\Debug/../Modules/AHRS/MadgwickAHRS.c:207
        ax *= recipNorm;
    2e72:	6838      	ldr	r0, [r7, #0]
    2e74:	6d79      	ldr	r1, [r7, #84]	; 0x54
    2e76:	f002 f9a5 	bl	51c4 <__aeabi_fmul>
    2e7a:	4603      	mov	r3, r0
    2e7c:	603b      	str	r3, [r7, #0]
C:\Users\kruci_000\Desktop\University\SoC\Marsfinder\Marsfinder\Marsfinder_FW\Debug/../Modules/AHRS/MadgwickAHRS.c:208
        ay *= recipNorm;
    2e7e:	6fb8      	ldr	r0, [r7, #120]	; 0x78
    2e80:	6d79      	ldr	r1, [r7, #84]	; 0x54
    2e82:	f002 f99f 	bl	51c4 <__aeabi_fmul>
    2e86:	4603      	mov	r3, r0
    2e88:	67bb      	str	r3, [r7, #120]	; 0x78
C:\Users\kruci_000\Desktop\University\SoC\Marsfinder\Marsfinder\Marsfinder_FW\Debug/../Modules/AHRS/MadgwickAHRS.c:209
        az *= recipNorm;
    2e8a:	6ff8      	ldr	r0, [r7, #124]	; 0x7c
    2e8c:	6d79      	ldr	r1, [r7, #84]	; 0x54
    2e8e:	f002 f999 	bl	51c4 <__aeabi_fmul>
    2e92:	4603      	mov	r3, r0
    2e94:	67fb      	str	r3, [r7, #124]	; 0x7c
C:\Users\kruci_000\Desktop\University\SoC\Marsfinder\Marsfinder\Marsfinder_FW\Debug/../Modules/AHRS/MadgwickAHRS.c:212

        // Auxiliary variables to avoid repeated arithmetic
        _2q0 = 2.0f * q0;
    2e96:	4b2b      	ldr	r3, [pc, #172]	; (2f44 <MadgwickAHRSupdateIMU+0x294>)
    2e98:	681b      	ldr	r3, [r3, #0]
    2e9a:	4618      	mov	r0, r3
    2e9c:	4619      	mov	r1, r3
    2e9e:	f002 f889 	bl	4fb4 <__addsf3>
    2ea2:	4603      	mov	r3, r0
    2ea4:	653b      	str	r3, [r7, #80]	; 0x50
C:\Users\kruci_000\Desktop\University\SoC\Marsfinder\Marsfinder\Marsfinder_FW\Debug/../Modules/AHRS/MadgwickAHRS.c:213
        _2q1 = 2.0f * q1;
    2ea6:	4b24      	ldr	r3, [pc, #144]	; (2f38 <MadgwickAHRSupdateIMU+0x288>)
    2ea8:	681b      	ldr	r3, [r3, #0]
    2eaa:	4618      	mov	r0, r3
    2eac:	4619      	mov	r1, r3
    2eae:	f002 f881 	bl	4fb4 <__addsf3>
    2eb2:	4603      	mov	r3, r0
    2eb4:	64fb      	str	r3, [r7, #76]	; 0x4c
C:\Users\kruci_000\Desktop\University\SoC\Marsfinder\Marsfinder\Marsfinder_FW\Debug/../Modules/AHRS/MadgwickAHRS.c:214
        _2q2 = 2.0f * q2;
    2eb6:	4b21      	ldr	r3, [pc, #132]	; (2f3c <MadgwickAHRSupdateIMU+0x28c>)
    2eb8:	681b      	ldr	r3, [r3, #0]
    2eba:	4618      	mov	r0, r3
    2ebc:	4619      	mov	r1, r3
    2ebe:	f002 f879 	bl	4fb4 <__addsf3>
    2ec2:	4603      	mov	r3, r0
    2ec4:	64bb      	str	r3, [r7, #72]	; 0x48
C:\Users\kruci_000\Desktop\University\SoC\Marsfinder\Marsfinder\Marsfinder_FW\Debug/../Modules/AHRS/MadgwickAHRS.c:215
        _2q3 = 2.0f * q3;
    2ec6:	4b1e      	ldr	r3, [pc, #120]	; (2f40 <MadgwickAHRSupdateIMU+0x290>)
    2ec8:	681b      	ldr	r3, [r3, #0]
    2eca:	4618      	mov	r0, r3
    2ecc:	4619      	mov	r1, r3
    2ece:	f002 f871 	bl	4fb4 <__addsf3>
    2ed2:	4603      	mov	r3, r0
    2ed4:	647b      	str	r3, [r7, #68]	; 0x44
C:\Users\kruci_000\Desktop\University\SoC\Marsfinder\Marsfinder\Marsfinder_FW\Debug/../Modules/AHRS/MadgwickAHRS.c:216
        _4q0 = 4.0f * q0;
    2ed6:	4b1b      	ldr	r3, [pc, #108]	; (2f44 <MadgwickAHRSupdateIMU+0x294>)
    2ed8:	681b      	ldr	r3, [r3, #0]
    2eda:	4618      	mov	r0, r3
    2edc:	f04f 4181 	mov.w	r1, #1082130432	; 0x40800000
    2ee0:	f002 f970 	bl	51c4 <__aeabi_fmul>
    2ee4:	4603      	mov	r3, r0
    2ee6:	643b      	str	r3, [r7, #64]	; 0x40
C:\Users\kruci_000\Desktop\University\SoC\Marsfinder\Marsfinder\Marsfinder_FW\Debug/../Modules/AHRS/MadgwickAHRS.c:217
        _4q1 = 4.0f * q1;
    2ee8:	4b13      	ldr	r3, [pc, #76]	; (2f38 <MadgwickAHRSupdateIMU+0x288>)
    2eea:	681b      	ldr	r3, [r3, #0]
    2eec:	4618      	mov	r0, r3
    2eee:	f04f 4181 	mov.w	r1, #1082130432	; 0x40800000
    2ef2:	f002 f967 	bl	51c4 <__aeabi_fmul>
    2ef6:	4603      	mov	r3, r0
    2ef8:	63fb      	str	r3, [r7, #60]	; 0x3c
C:\Users\kruci_000\Desktop\University\SoC\Marsfinder\Marsfinder\Marsfinder_FW\Debug/../Modules/AHRS/MadgwickAHRS.c:218
        _4q2 = 4.0f * q2;
    2efa:	4b10      	ldr	r3, [pc, #64]	; (2f3c <MadgwickAHRSupdateIMU+0x28c>)
    2efc:	681b      	ldr	r3, [r3, #0]
    2efe:	4618      	mov	r0, r3
    2f00:	f04f 4181 	mov.w	r1, #1082130432	; 0x40800000
    2f04:	f002 f95e 	bl	51c4 <__aeabi_fmul>
    2f08:	4603      	mov	r3, r0
    2f0a:	63bb      	str	r3, [r7, #56]	; 0x38
C:\Users\kruci_000\Desktop\University\SoC\Marsfinder\Marsfinder\Marsfinder_FW\Debug/../Modules/AHRS/MadgwickAHRS.c:219
        _8q1 = 8.0f * q1;
    2f0c:	4b0a      	ldr	r3, [pc, #40]	; (2f38 <MadgwickAHRSupdateIMU+0x288>)
    2f0e:	681b      	ldr	r3, [r3, #0]
    2f10:	4618      	mov	r0, r3
    2f12:	f04f 4182 	mov.w	r1, #1090519040	; 0x41000000
    2f16:	f002 f955 	bl	51c4 <__aeabi_fmul>
    2f1a:	4603      	mov	r3, r0
    2f1c:	637b      	str	r3, [r7, #52]	; 0x34
C:\Users\kruci_000\Desktop\University\SoC\Marsfinder\Marsfinder\Marsfinder_FW\Debug/../Modules/AHRS/MadgwickAHRS.c:220
        _8q2 = 8.0f * q2;
    2f1e:	4b07      	ldr	r3, [pc, #28]	; (2f3c <MadgwickAHRSupdateIMU+0x28c>)
    2f20:	681b      	ldr	r3, [r3, #0]
    2f22:	4618      	mov	r0, r3
    2f24:	f04f 4182 	mov.w	r1, #1090519040	; 0x41000000
    2f28:	f002 f94c 	bl	51c4 <__aeabi_fmul>
    2f2c:	4603      	mov	r3, r0
    2f2e:	633b      	str	r3, [r7, #48]	; 0x30
C:\Users\kruci_000\Desktop\University\SoC\Marsfinder\Marsfinder\Marsfinder_FW\Debug/../Modules/AHRS/MadgwickAHRS.c:221
        q0q0 = q0 * q0;
    2f30:	4b04      	ldr	r3, [pc, #16]	; (2f44 <MadgwickAHRSupdateIMU+0x294>)
    2f32:	681a      	ldr	r2, [r3, #0]
    2f34:	e008      	b.n	2f48 <MadgwickAHRSupdateIMU+0x298>
    2f36:	bf00      	nop
    2f38:	200001a4 	.word	0x200001a4
    2f3c:	200001a8 	.word	0x200001a8
    2f40:	200001ac 	.word	0x200001ac
    2f44:	200000e8 	.word	0x200000e8
    2f48:	4b9a      	ldr	r3, [pc, #616]	; (31b4 <MadgwickAHRSupdateIMU+0x504>)
    2f4a:	681b      	ldr	r3, [r3, #0]
    2f4c:	4610      	mov	r0, r2
    2f4e:	4619      	mov	r1, r3
    2f50:	f002 f938 	bl	51c4 <__aeabi_fmul>
    2f54:	4603      	mov	r3, r0
    2f56:	62fb      	str	r3, [r7, #44]	; 0x2c
C:\Users\kruci_000\Desktop\University\SoC\Marsfinder\Marsfinder\Marsfinder_FW\Debug/../Modules/AHRS/MadgwickAHRS.c:222
        q1q1 = q1 * q1;
    2f58:	4b97      	ldr	r3, [pc, #604]	; (31b8 <MadgwickAHRSupdateIMU+0x508>)
    2f5a:	681a      	ldr	r2, [r3, #0]
    2f5c:	4b96      	ldr	r3, [pc, #600]	; (31b8 <MadgwickAHRSupdateIMU+0x508>)
    2f5e:	681b      	ldr	r3, [r3, #0]
    2f60:	4610      	mov	r0, r2
    2f62:	4619      	mov	r1, r3
    2f64:	f002 f92e 	bl	51c4 <__aeabi_fmul>
    2f68:	4603      	mov	r3, r0
    2f6a:	62bb      	str	r3, [r7, #40]	; 0x28
C:\Users\kruci_000\Desktop\University\SoC\Marsfinder\Marsfinder\Marsfinder_FW\Debug/../Modules/AHRS/MadgwickAHRS.c:223
        q2q2 = q2 * q2;
    2f6c:	4b93      	ldr	r3, [pc, #588]	; (31bc <MadgwickAHRSupdateIMU+0x50c>)
    2f6e:	681a      	ldr	r2, [r3, #0]
    2f70:	4b92      	ldr	r3, [pc, #584]	; (31bc <MadgwickAHRSupdateIMU+0x50c>)
    2f72:	681b      	ldr	r3, [r3, #0]
    2f74:	4610      	mov	r0, r2
    2f76:	4619      	mov	r1, r3
    2f78:	f002 f924 	bl	51c4 <__aeabi_fmul>
    2f7c:	4603      	mov	r3, r0
    2f7e:	627b      	str	r3, [r7, #36]	; 0x24
C:\Users\kruci_000\Desktop\University\SoC\Marsfinder\Marsfinder\Marsfinder_FW\Debug/../Modules/AHRS/MadgwickAHRS.c:224
        q3q3 = q3 * q3;
    2f80:	4b8f      	ldr	r3, [pc, #572]	; (31c0 <MadgwickAHRSupdateIMU+0x510>)
    2f82:	681a      	ldr	r2, [r3, #0]
    2f84:	4b8e      	ldr	r3, [pc, #568]	; (31c0 <MadgwickAHRSupdateIMU+0x510>)
    2f86:	681b      	ldr	r3, [r3, #0]
    2f88:	4610      	mov	r0, r2
    2f8a:	4619      	mov	r1, r3
    2f8c:	f002 f91a 	bl	51c4 <__aeabi_fmul>
    2f90:	4603      	mov	r3, r0
    2f92:	623b      	str	r3, [r7, #32]
C:\Users\kruci_000\Desktop\University\SoC\Marsfinder\Marsfinder\Marsfinder_FW\Debug/../Modules/AHRS/MadgwickAHRS.c:227

        // Gradient decent algorithm corrective step
        s0 = _4q0 * q2q2 + _2q2 * ax + _4q0 * q1q1 - _2q1 * ay;
    2f94:	6c38      	ldr	r0, [r7, #64]	; 0x40
    2f96:	6a79      	ldr	r1, [r7, #36]	; 0x24
    2f98:	f002 f914 	bl	51c4 <__aeabi_fmul>
    2f9c:	4603      	mov	r3, r0
    2f9e:	461c      	mov	r4, r3
    2fa0:	6cb8      	ldr	r0, [r7, #72]	; 0x48
    2fa2:	6839      	ldr	r1, [r7, #0]
    2fa4:	f002 f90e 	bl	51c4 <__aeabi_fmul>
    2fa8:	4603      	mov	r3, r0
    2faa:	4620      	mov	r0, r4
    2fac:	4619      	mov	r1, r3
    2fae:	f002 f801 	bl	4fb4 <__addsf3>
    2fb2:	4603      	mov	r3, r0
    2fb4:	461c      	mov	r4, r3
    2fb6:	6c38      	ldr	r0, [r7, #64]	; 0x40
    2fb8:	6ab9      	ldr	r1, [r7, #40]	; 0x28
    2fba:	f002 f903 	bl	51c4 <__aeabi_fmul>
    2fbe:	4603      	mov	r3, r0
    2fc0:	4620      	mov	r0, r4
    2fc2:	4619      	mov	r1, r3
    2fc4:	f001 fff6 	bl	4fb4 <__addsf3>
    2fc8:	4603      	mov	r3, r0
    2fca:	461c      	mov	r4, r3
    2fcc:	6cf8      	ldr	r0, [r7, #76]	; 0x4c
    2fce:	6fb9      	ldr	r1, [r7, #120]	; 0x78
    2fd0:	f002 f8f8 	bl	51c4 <__aeabi_fmul>
    2fd4:	4603      	mov	r3, r0
    2fd6:	4620      	mov	r0, r4
    2fd8:	4619      	mov	r1, r3
    2fda:	f001 ffe9 	bl	4fb0 <__aeabi_fsub>
    2fde:	4603      	mov	r3, r0
    2fe0:	61fb      	str	r3, [r7, #28]
C:\Users\kruci_000\Desktop\University\SoC\Marsfinder\Marsfinder\Marsfinder_FW\Debug/../Modules/AHRS/MadgwickAHRS.c:228
        s1 = _4q1 * q3q3 - _2q3 * ax + 4.0f * q0q0 * q1 - _2q0 * ay - _4q1
    2fe2:	6bf8      	ldr	r0, [r7, #60]	; 0x3c
    2fe4:	6a39      	ldr	r1, [r7, #32]
    2fe6:	f002 f8ed 	bl	51c4 <__aeabi_fmul>
    2fea:	4603      	mov	r3, r0
    2fec:	461c      	mov	r4, r3
    2fee:	6c78      	ldr	r0, [r7, #68]	; 0x44
    2ff0:	6839      	ldr	r1, [r7, #0]
    2ff2:	f002 f8e7 	bl	51c4 <__aeabi_fmul>
    2ff6:	4603      	mov	r3, r0
    2ff8:	4620      	mov	r0, r4
    2ffa:	4619      	mov	r1, r3
    2ffc:	f001 ffd8 	bl	4fb0 <__aeabi_fsub>
    3000:	4603      	mov	r3, r0
    3002:	461c      	mov	r4, r3
    3004:	6af8      	ldr	r0, [r7, #44]	; 0x2c
    3006:	f04f 4181 	mov.w	r1, #1082130432	; 0x40800000
    300a:	f002 f8db 	bl	51c4 <__aeabi_fmul>
    300e:	4603      	mov	r3, r0
    3010:	461a      	mov	r2, r3
    3012:	4b69      	ldr	r3, [pc, #420]	; (31b8 <MadgwickAHRSupdateIMU+0x508>)
    3014:	681b      	ldr	r3, [r3, #0]
    3016:	4610      	mov	r0, r2
    3018:	4619      	mov	r1, r3
    301a:	f002 f8d3 	bl	51c4 <__aeabi_fmul>
    301e:	4603      	mov	r3, r0
    3020:	4620      	mov	r0, r4
    3022:	4619      	mov	r1, r3
    3024:	f001 ffc6 	bl	4fb4 <__addsf3>
    3028:	4603      	mov	r3, r0
    302a:	461c      	mov	r4, r3
    302c:	6d38      	ldr	r0, [r7, #80]	; 0x50
    302e:	6fb9      	ldr	r1, [r7, #120]	; 0x78
    3030:	f002 f8c8 	bl	51c4 <__aeabi_fmul>
    3034:	4603      	mov	r3, r0
    3036:	4620      	mov	r0, r4
    3038:	4619      	mov	r1, r3
    303a:	f001 ffb9 	bl	4fb0 <__aeabi_fsub>
    303e:	4603      	mov	r3, r0
    3040:	4618      	mov	r0, r3
    3042:	6bf9      	ldr	r1, [r7, #60]	; 0x3c
    3044:	f001 ffb4 	bl	4fb0 <__aeabi_fsub>
    3048:	4603      	mov	r3, r0
    304a:	461c      	mov	r4, r3
C:\Users\kruci_000\Desktop\University\SoC\Marsfinder\Marsfinder\Marsfinder_FW\Debug/../Modules/AHRS/MadgwickAHRS.c:229
                + _8q1 * q1q1 + _8q1 * q2q2 + _4q1 * az;
    304c:	6b78      	ldr	r0, [r7, #52]	; 0x34
    304e:	6ab9      	ldr	r1, [r7, #40]	; 0x28
    3050:	f002 f8b8 	bl	51c4 <__aeabi_fmul>
    3054:	4603      	mov	r3, r0
    3056:	4620      	mov	r0, r4
    3058:	4619      	mov	r1, r3
    305a:	f001 ffab 	bl	4fb4 <__addsf3>
    305e:	4603      	mov	r3, r0
    3060:	461c      	mov	r4, r3
    3062:	6b78      	ldr	r0, [r7, #52]	; 0x34
    3064:	6a79      	ldr	r1, [r7, #36]	; 0x24
    3066:	f002 f8ad 	bl	51c4 <__aeabi_fmul>
    306a:	4603      	mov	r3, r0
    306c:	4620      	mov	r0, r4
    306e:	4619      	mov	r1, r3
    3070:	f001 ffa0 	bl	4fb4 <__addsf3>
    3074:	4603      	mov	r3, r0
    3076:	461c      	mov	r4, r3
    3078:	6bf8      	ldr	r0, [r7, #60]	; 0x3c
    307a:	6ff9      	ldr	r1, [r7, #124]	; 0x7c
    307c:	f002 f8a2 	bl	51c4 <__aeabi_fmul>
    3080:	4603      	mov	r3, r0
C:\Users\kruci_000\Desktop\University\SoC\Marsfinder\Marsfinder\Marsfinder_FW\Debug/../Modules/AHRS/MadgwickAHRS.c:228
        q2q2 = q2 * q2;
        q3q3 = q3 * q3;

        // Gradient decent algorithm corrective step
        s0 = _4q0 * q2q2 + _2q2 * ax + _4q0 * q1q1 - _2q1 * ay;
        s1 = _4q1 * q3q3 - _2q3 * ax + 4.0f * q0q0 * q1 - _2q0 * ay - _4q1
    3082:	4620      	mov	r0, r4
    3084:	4619      	mov	r1, r3
    3086:	f001 ff95 	bl	4fb4 <__addsf3>
    308a:	4603      	mov	r3, r0
    308c:	61bb      	str	r3, [r7, #24]
C:\Users\kruci_000\Desktop\University\SoC\Marsfinder\Marsfinder\Marsfinder_FW\Debug/../Modules/AHRS/MadgwickAHRS.c:230
                + _8q1 * q1q1 + _8q1 * q2q2 + _4q1 * az;
        s2 = 4.0f * q0q0 * q2 + _2q0 * ax + _4q2 * q3q3 - _2q3 * ay - _4q2
    308e:	6af8      	ldr	r0, [r7, #44]	; 0x2c
    3090:	f04f 4181 	mov.w	r1, #1082130432	; 0x40800000
    3094:	f002 f896 	bl	51c4 <__aeabi_fmul>
    3098:	4603      	mov	r3, r0
    309a:	461a      	mov	r2, r3
    309c:	4b47      	ldr	r3, [pc, #284]	; (31bc <MadgwickAHRSupdateIMU+0x50c>)
    309e:	681b      	ldr	r3, [r3, #0]
    30a0:	4610      	mov	r0, r2
    30a2:	4619      	mov	r1, r3
    30a4:	f002 f88e 	bl	51c4 <__aeabi_fmul>
    30a8:	4603      	mov	r3, r0
    30aa:	461c      	mov	r4, r3
    30ac:	6d38      	ldr	r0, [r7, #80]	; 0x50
    30ae:	6839      	ldr	r1, [r7, #0]
    30b0:	f002 f888 	bl	51c4 <__aeabi_fmul>
    30b4:	4603      	mov	r3, r0
    30b6:	4620      	mov	r0, r4
    30b8:	4619      	mov	r1, r3
    30ba:	f001 ff7b 	bl	4fb4 <__addsf3>
    30be:	4603      	mov	r3, r0
    30c0:	461c      	mov	r4, r3
    30c2:	6bb8      	ldr	r0, [r7, #56]	; 0x38
    30c4:	6a39      	ldr	r1, [r7, #32]
    30c6:	f002 f87d 	bl	51c4 <__aeabi_fmul>
    30ca:	4603      	mov	r3, r0
    30cc:	4620      	mov	r0, r4
    30ce:	4619      	mov	r1, r3
    30d0:	f001 ff70 	bl	4fb4 <__addsf3>
    30d4:	4603      	mov	r3, r0
    30d6:	461c      	mov	r4, r3
    30d8:	6c78      	ldr	r0, [r7, #68]	; 0x44
    30da:	6fb9      	ldr	r1, [r7, #120]	; 0x78
    30dc:	f002 f872 	bl	51c4 <__aeabi_fmul>
    30e0:	4603      	mov	r3, r0
    30e2:	4620      	mov	r0, r4
    30e4:	4619      	mov	r1, r3
    30e6:	f001 ff63 	bl	4fb0 <__aeabi_fsub>
    30ea:	4603      	mov	r3, r0
    30ec:	4618      	mov	r0, r3
    30ee:	6bb9      	ldr	r1, [r7, #56]	; 0x38
    30f0:	f001 ff5e 	bl	4fb0 <__aeabi_fsub>
    30f4:	4603      	mov	r3, r0
    30f6:	461c      	mov	r4, r3
C:\Users\kruci_000\Desktop\University\SoC\Marsfinder\Marsfinder\Marsfinder_FW\Debug/../Modules/AHRS/MadgwickAHRS.c:231
                + _8q2 * q1q1 + _8q2 * q2q2 + _4q2 * az;
    30f8:	6b38      	ldr	r0, [r7, #48]	; 0x30
    30fa:	6ab9      	ldr	r1, [r7, #40]	; 0x28
    30fc:	f002 f862 	bl	51c4 <__aeabi_fmul>
    3100:	4603      	mov	r3, r0
    3102:	4620      	mov	r0, r4
    3104:	4619      	mov	r1, r3
    3106:	f001 ff55 	bl	4fb4 <__addsf3>
    310a:	4603      	mov	r3, r0
    310c:	461c      	mov	r4, r3
    310e:	6b38      	ldr	r0, [r7, #48]	; 0x30
    3110:	6a79      	ldr	r1, [r7, #36]	; 0x24
    3112:	f002 f857 	bl	51c4 <__aeabi_fmul>
    3116:	4603      	mov	r3, r0
    3118:	4620      	mov	r0, r4
    311a:	4619      	mov	r1, r3
    311c:	f001 ff4a 	bl	4fb4 <__addsf3>
    3120:	4603      	mov	r3, r0
    3122:	461c      	mov	r4, r3
    3124:	6bb8      	ldr	r0, [r7, #56]	; 0x38
    3126:	6ff9      	ldr	r1, [r7, #124]	; 0x7c
    3128:	f002 f84c 	bl	51c4 <__aeabi_fmul>
    312c:	4603      	mov	r3, r0
C:\Users\kruci_000\Desktop\University\SoC\Marsfinder\Marsfinder\Marsfinder_FW\Debug/../Modules/AHRS/MadgwickAHRS.c:230

        // Gradient decent algorithm corrective step
        s0 = _4q0 * q2q2 + _2q2 * ax + _4q0 * q1q1 - _2q1 * ay;
        s1 = _4q1 * q3q3 - _2q3 * ax + 4.0f * q0q0 * q1 - _2q0 * ay - _4q1
                + _8q1 * q1q1 + _8q1 * q2q2 + _4q1 * az;
        s2 = 4.0f * q0q0 * q2 + _2q0 * ax + _4q2 * q3q3 - _2q3 * ay - _4q2
    312e:	4620      	mov	r0, r4
    3130:	4619      	mov	r1, r3
    3132:	f001 ff3f 	bl	4fb4 <__addsf3>
    3136:	4603      	mov	r3, r0
    3138:	617b      	str	r3, [r7, #20]
C:\Users\kruci_000\Desktop\University\SoC\Marsfinder\Marsfinder\Marsfinder_FW\Debug/../Modules/AHRS/MadgwickAHRS.c:232
                + _8q2 * q1q1 + _8q2 * q2q2 + _4q2 * az;
        s3 = 4.0f * q1q1 * q3 - _2q1 * ax + 4.0f * q2q2 * q3 - _2q2 * ay;
    313a:	6ab8      	ldr	r0, [r7, #40]	; 0x28
    313c:	f04f 4181 	mov.w	r1, #1082130432	; 0x40800000
    3140:	f002 f840 	bl	51c4 <__aeabi_fmul>
    3144:	4603      	mov	r3, r0
    3146:	461a      	mov	r2, r3
    3148:	4b1d      	ldr	r3, [pc, #116]	; (31c0 <MadgwickAHRSupdateIMU+0x510>)
    314a:	681b      	ldr	r3, [r3, #0]
    314c:	4610      	mov	r0, r2
    314e:	4619      	mov	r1, r3
    3150:	f002 f838 	bl	51c4 <__aeabi_fmul>
    3154:	4603      	mov	r3, r0
    3156:	461c      	mov	r4, r3
    3158:	6cf8      	ldr	r0, [r7, #76]	; 0x4c
    315a:	6839      	ldr	r1, [r7, #0]
    315c:	f002 f832 	bl	51c4 <__aeabi_fmul>
    3160:	4603      	mov	r3, r0
    3162:	4620      	mov	r0, r4
    3164:	4619      	mov	r1, r3
    3166:	f001 ff23 	bl	4fb0 <__aeabi_fsub>
    316a:	4603      	mov	r3, r0
    316c:	461c      	mov	r4, r3
    316e:	6a78      	ldr	r0, [r7, #36]	; 0x24
    3170:	f04f 4181 	mov.w	r1, #1082130432	; 0x40800000
    3174:	f002 f826 	bl	51c4 <__aeabi_fmul>
    3178:	4603      	mov	r3, r0
    317a:	461a      	mov	r2, r3
    317c:	4b10      	ldr	r3, [pc, #64]	; (31c0 <MadgwickAHRSupdateIMU+0x510>)
    317e:	681b      	ldr	r3, [r3, #0]
    3180:	4610      	mov	r0, r2
    3182:	4619      	mov	r1, r3
    3184:	f002 f81e 	bl	51c4 <__aeabi_fmul>
    3188:	4603      	mov	r3, r0
    318a:	4620      	mov	r0, r4
    318c:	4619      	mov	r1, r3
    318e:	f001 ff11 	bl	4fb4 <__addsf3>
    3192:	4603      	mov	r3, r0
    3194:	461c      	mov	r4, r3
    3196:	6cb8      	ldr	r0, [r7, #72]	; 0x48
    3198:	6fb9      	ldr	r1, [r7, #120]	; 0x78
    319a:	f002 f813 	bl	51c4 <__aeabi_fmul>
    319e:	4603      	mov	r3, r0
    31a0:	4620      	mov	r0, r4
    31a2:	4619      	mov	r1, r3
    31a4:	f001 ff04 	bl	4fb0 <__aeabi_fsub>
    31a8:	4603      	mov	r3, r0
    31aa:	613b      	str	r3, [r7, #16]
C:\Users\kruci_000\Desktop\University\SoC\Marsfinder\Marsfinder\Marsfinder_FW\Debug/../Modules/AHRS/MadgwickAHRS.c:233
        recipNorm = invSqrt(s0 * s0 + s1 * s1 + s2 * s2 + s3 * s3); // normalise step magnitude
    31ac:	69f8      	ldr	r0, [r7, #28]
    31ae:	69f9      	ldr	r1, [r7, #28]
    31b0:	e008      	b.n	31c4 <MadgwickAHRSupdateIMU+0x514>
    31b2:	bf00      	nop
    31b4:	200000e8 	.word	0x200000e8
    31b8:	200001a4 	.word	0x200001a4
    31bc:	200001a8 	.word	0x200001a8
    31c0:	200001ac 	.word	0x200001ac
    31c4:	f001 fffe 	bl	51c4 <__aeabi_fmul>
    31c8:	4603      	mov	r3, r0
    31ca:	461c      	mov	r4, r3
    31cc:	69b8      	ldr	r0, [r7, #24]
    31ce:	69b9      	ldr	r1, [r7, #24]
    31d0:	f001 fff8 	bl	51c4 <__aeabi_fmul>
    31d4:	4603      	mov	r3, r0
    31d6:	4620      	mov	r0, r4
    31d8:	4619      	mov	r1, r3
    31da:	f001 feeb 	bl	4fb4 <__addsf3>
    31de:	4603      	mov	r3, r0
    31e0:	461c      	mov	r4, r3
    31e2:	6978      	ldr	r0, [r7, #20]
    31e4:	6979      	ldr	r1, [r7, #20]
    31e6:	f001 ffed 	bl	51c4 <__aeabi_fmul>
    31ea:	4603      	mov	r3, r0
    31ec:	4620      	mov	r0, r4
    31ee:	4619      	mov	r1, r3
    31f0:	f001 fee0 	bl	4fb4 <__addsf3>
    31f4:	4603      	mov	r3, r0
    31f6:	461c      	mov	r4, r3
    31f8:	6938      	ldr	r0, [r7, #16]
    31fa:	6939      	ldr	r1, [r7, #16]
    31fc:	f001 ffe2 	bl	51c4 <__aeabi_fmul>
    3200:	4603      	mov	r3, r0
    3202:	4620      	mov	r0, r4
    3204:	4619      	mov	r1, r3
    3206:	f001 fed5 	bl	4fb4 <__addsf3>
    320a:	4603      	mov	r3, r0
    320c:	4618      	mov	r0, r3
    320e:	f000 f8ff 	bl	3410 <invSqrt>
    3212:	6578      	str	r0, [r7, #84]	; 0x54
C:\Users\kruci_000\Desktop\University\SoC\Marsfinder\Marsfinder\Marsfinder_FW\Debug/../Modules/AHRS/MadgwickAHRS.c:234
        s0 *= recipNorm;
    3214:	69f8      	ldr	r0, [r7, #28]
    3216:	6d79      	ldr	r1, [r7, #84]	; 0x54
    3218:	f001 ffd4 	bl	51c4 <__aeabi_fmul>
    321c:	4603      	mov	r3, r0
    321e:	61fb      	str	r3, [r7, #28]
C:\Users\kruci_000\Desktop\University\SoC\Marsfinder\Marsfinder\Marsfinder_FW\Debug/../Modules/AHRS/MadgwickAHRS.c:235
        s1 *= recipNorm;
    3220:	69b8      	ldr	r0, [r7, #24]
    3222:	6d79      	ldr	r1, [r7, #84]	; 0x54
    3224:	f001 ffce 	bl	51c4 <__aeabi_fmul>
    3228:	4603      	mov	r3, r0
    322a:	61bb      	str	r3, [r7, #24]
C:\Users\kruci_000\Desktop\University\SoC\Marsfinder\Marsfinder\Marsfinder_FW\Debug/../Modules/AHRS/MadgwickAHRS.c:236
        s2 *= recipNorm;
    322c:	6978      	ldr	r0, [r7, #20]
    322e:	6d79      	ldr	r1, [r7, #84]	; 0x54
    3230:	f001 ffc8 	bl	51c4 <__aeabi_fmul>
    3234:	4603      	mov	r3, r0
    3236:	617b      	str	r3, [r7, #20]
C:\Users\kruci_000\Desktop\University\SoC\Marsfinder\Marsfinder\Marsfinder_FW\Debug/../Modules/AHRS/MadgwickAHRS.c:237
        s3 *= recipNorm;
    3238:	6938      	ldr	r0, [r7, #16]
    323a:	6d79      	ldr	r1, [r7, #84]	; 0x54
    323c:	f001 ffc2 	bl	51c4 <__aeabi_fmul>
    3240:	4603      	mov	r3, r0
    3242:	613b      	str	r3, [r7, #16]
C:\Users\kruci_000\Desktop\University\SoC\Marsfinder\Marsfinder\Marsfinder_FW\Debug/../Modules/AHRS/MadgwickAHRS.c:240

        // Apply feedback step
        qDot1 -= beta * s0;
    3244:	4b6c      	ldr	r3, [pc, #432]	; (33f8 <MadgwickAHRSupdateIMU+0x748>)
    3246:	681b      	ldr	r3, [r3, #0]
    3248:	4618      	mov	r0, r3
    324a:	69f9      	ldr	r1, [r7, #28]
    324c:	f001 ffba 	bl	51c4 <__aeabi_fmul>
    3250:	4603      	mov	r3, r0
    3252:	6e78      	ldr	r0, [r7, #100]	; 0x64
    3254:	4619      	mov	r1, r3
    3256:	f001 feab 	bl	4fb0 <__aeabi_fsub>
    325a:	4603      	mov	r3, r0
    325c:	667b      	str	r3, [r7, #100]	; 0x64
C:\Users\kruci_000\Desktop\University\SoC\Marsfinder\Marsfinder\Marsfinder_FW\Debug/../Modules/AHRS/MadgwickAHRS.c:241
        qDot2 -= beta * s1;
    325e:	4b66      	ldr	r3, [pc, #408]	; (33f8 <MadgwickAHRSupdateIMU+0x748>)
    3260:	681b      	ldr	r3, [r3, #0]
    3262:	4618      	mov	r0, r3
    3264:	69b9      	ldr	r1, [r7, #24]
    3266:	f001 ffad 	bl	51c4 <__aeabi_fmul>
    326a:	4603      	mov	r3, r0
    326c:	6e38      	ldr	r0, [r7, #96]	; 0x60
    326e:	4619      	mov	r1, r3
    3270:	f001 fe9e 	bl	4fb0 <__aeabi_fsub>
    3274:	4603      	mov	r3, r0
    3276:	663b      	str	r3, [r7, #96]	; 0x60
C:\Users\kruci_000\Desktop\University\SoC\Marsfinder\Marsfinder\Marsfinder_FW\Debug/../Modules/AHRS/MadgwickAHRS.c:242
        qDot3 -= beta * s2;
    3278:	4b5f      	ldr	r3, [pc, #380]	; (33f8 <MadgwickAHRSupdateIMU+0x748>)
    327a:	681b      	ldr	r3, [r3, #0]
    327c:	4618      	mov	r0, r3
    327e:	6979      	ldr	r1, [r7, #20]
    3280:	f001 ffa0 	bl	51c4 <__aeabi_fmul>
    3284:	4603      	mov	r3, r0
    3286:	6df8      	ldr	r0, [r7, #92]	; 0x5c
    3288:	4619      	mov	r1, r3
    328a:	f001 fe91 	bl	4fb0 <__aeabi_fsub>
    328e:	4603      	mov	r3, r0
    3290:	65fb      	str	r3, [r7, #92]	; 0x5c
C:\Users\kruci_000\Desktop\University\SoC\Marsfinder\Marsfinder\Marsfinder_FW\Debug/../Modules/AHRS/MadgwickAHRS.c:243
        qDot4 -= beta * s3;
    3292:	4b59      	ldr	r3, [pc, #356]	; (33f8 <MadgwickAHRSupdateIMU+0x748>)
    3294:	681b      	ldr	r3, [r3, #0]
    3296:	4618      	mov	r0, r3
    3298:	6939      	ldr	r1, [r7, #16]
    329a:	f001 ff93 	bl	51c4 <__aeabi_fmul>
    329e:	4603      	mov	r3, r0
    32a0:	6db8      	ldr	r0, [r7, #88]	; 0x58
    32a2:	4619      	mov	r1, r3
    32a4:	f001 fe84 	bl	4fb0 <__aeabi_fsub>
    32a8:	4603      	mov	r3, r0
    32aa:	65bb      	str	r3, [r7, #88]	; 0x58
C:\Users\kruci_000\Desktop\University\SoC\Marsfinder\Marsfinder\Marsfinder_FW\Debug/../Modules/AHRS/MadgwickAHRS.c:247
    }

    // Integrate rate of change of quaternion to yield quaternion
    q0 += qDot1 * (1.0f / sampleFreq);
    32ac:	6e78      	ldr	r0, [r7, #100]	; 0x64
    32ae:	4953      	ldr	r1, [pc, #332]	; (33fc <MadgwickAHRSupdateIMU+0x74c>)
    32b0:	f001 ff88 	bl	51c4 <__aeabi_fmul>
    32b4:	4603      	mov	r3, r0
    32b6:	461a      	mov	r2, r3
    32b8:	4b51      	ldr	r3, [pc, #324]	; (3400 <MadgwickAHRSupdateIMU+0x750>)
    32ba:	681b      	ldr	r3, [r3, #0]
    32bc:	4610      	mov	r0, r2
    32be:	4619      	mov	r1, r3
    32c0:	f001 fe78 	bl	4fb4 <__addsf3>
    32c4:	4603      	mov	r3, r0
    32c6:	461a      	mov	r2, r3
    32c8:	4b4d      	ldr	r3, [pc, #308]	; (3400 <MadgwickAHRSupdateIMU+0x750>)
    32ca:	601a      	str	r2, [r3, #0]
C:\Users\kruci_000\Desktop\University\SoC\Marsfinder\Marsfinder\Marsfinder_FW\Debug/../Modules/AHRS/MadgwickAHRS.c:248
    q1 += qDot2 * (1.0f / sampleFreq);
    32cc:	6e38      	ldr	r0, [r7, #96]	; 0x60
    32ce:	494b      	ldr	r1, [pc, #300]	; (33fc <MadgwickAHRSupdateIMU+0x74c>)
    32d0:	f001 ff78 	bl	51c4 <__aeabi_fmul>
    32d4:	4603      	mov	r3, r0
    32d6:	461a      	mov	r2, r3
    32d8:	4b4a      	ldr	r3, [pc, #296]	; (3404 <MadgwickAHRSupdateIMU+0x754>)
    32da:	681b      	ldr	r3, [r3, #0]
    32dc:	4610      	mov	r0, r2
    32de:	4619      	mov	r1, r3
    32e0:	f001 fe68 	bl	4fb4 <__addsf3>
    32e4:	4603      	mov	r3, r0
    32e6:	461a      	mov	r2, r3
    32e8:	4b46      	ldr	r3, [pc, #280]	; (3404 <MadgwickAHRSupdateIMU+0x754>)
    32ea:	601a      	str	r2, [r3, #0]
C:\Users\kruci_000\Desktop\University\SoC\Marsfinder\Marsfinder\Marsfinder_FW\Debug/../Modules/AHRS/MadgwickAHRS.c:249
    q2 += qDot3 * (1.0f / sampleFreq);
    32ec:	6df8      	ldr	r0, [r7, #92]	; 0x5c
    32ee:	4943      	ldr	r1, [pc, #268]	; (33fc <MadgwickAHRSupdateIMU+0x74c>)
    32f0:	f001 ff68 	bl	51c4 <__aeabi_fmul>
    32f4:	4603      	mov	r3, r0
    32f6:	461a      	mov	r2, r3
    32f8:	4b43      	ldr	r3, [pc, #268]	; (3408 <MadgwickAHRSupdateIMU+0x758>)
    32fa:	681b      	ldr	r3, [r3, #0]
    32fc:	4610      	mov	r0, r2
    32fe:	4619      	mov	r1, r3
    3300:	f001 fe58 	bl	4fb4 <__addsf3>
    3304:	4603      	mov	r3, r0
    3306:	461a      	mov	r2, r3
    3308:	4b3f      	ldr	r3, [pc, #252]	; (3408 <MadgwickAHRSupdateIMU+0x758>)
    330a:	601a      	str	r2, [r3, #0]
C:\Users\kruci_000\Desktop\University\SoC\Marsfinder\Marsfinder\Marsfinder_FW\Debug/../Modules/AHRS/MadgwickAHRS.c:250
    q3 += qDot4 * (1.0f / sampleFreq);
    330c:	6db8      	ldr	r0, [r7, #88]	; 0x58
    330e:	493b      	ldr	r1, [pc, #236]	; (33fc <MadgwickAHRSupdateIMU+0x74c>)
    3310:	f001 ff58 	bl	51c4 <__aeabi_fmul>
    3314:	4603      	mov	r3, r0
    3316:	461a      	mov	r2, r3
    3318:	4b3c      	ldr	r3, [pc, #240]	; (340c <MadgwickAHRSupdateIMU+0x75c>)
    331a:	681b      	ldr	r3, [r3, #0]
    331c:	4610      	mov	r0, r2
    331e:	4619      	mov	r1, r3
    3320:	f001 fe48 	bl	4fb4 <__addsf3>
    3324:	4603      	mov	r3, r0
    3326:	461a      	mov	r2, r3
    3328:	4b38      	ldr	r3, [pc, #224]	; (340c <MadgwickAHRSupdateIMU+0x75c>)
    332a:	601a      	str	r2, [r3, #0]
C:\Users\kruci_000\Desktop\University\SoC\Marsfinder\Marsfinder\Marsfinder_FW\Debug/../Modules/AHRS/MadgwickAHRS.c:253

    // Normalise quaternion
    recipNorm = invSqrt(q0 * q0 + q1 * q1 + q2 * q2 + q3 * q3);
    332c:	4b34      	ldr	r3, [pc, #208]	; (3400 <MadgwickAHRSupdateIMU+0x750>)
    332e:	681a      	ldr	r2, [r3, #0]
    3330:	4b33      	ldr	r3, [pc, #204]	; (3400 <MadgwickAHRSupdateIMU+0x750>)
    3332:	681b      	ldr	r3, [r3, #0]
    3334:	4610      	mov	r0, r2
    3336:	4619      	mov	r1, r3
    3338:	f001 ff44 	bl	51c4 <__aeabi_fmul>
    333c:	4603      	mov	r3, r0
    333e:	461c      	mov	r4, r3
    3340:	4b30      	ldr	r3, [pc, #192]	; (3404 <MadgwickAHRSupdateIMU+0x754>)
    3342:	681a      	ldr	r2, [r3, #0]
    3344:	4b2f      	ldr	r3, [pc, #188]	; (3404 <MadgwickAHRSupdateIMU+0x754>)
    3346:	681b      	ldr	r3, [r3, #0]
    3348:	4610      	mov	r0, r2
    334a:	4619      	mov	r1, r3
    334c:	f001 ff3a 	bl	51c4 <__aeabi_fmul>
    3350:	4603      	mov	r3, r0
    3352:	4620      	mov	r0, r4
    3354:	4619      	mov	r1, r3
    3356:	f001 fe2d 	bl	4fb4 <__addsf3>
    335a:	4603      	mov	r3, r0
    335c:	461c      	mov	r4, r3
    335e:	4b2a      	ldr	r3, [pc, #168]	; (3408 <MadgwickAHRSupdateIMU+0x758>)
    3360:	681a      	ldr	r2, [r3, #0]
    3362:	4b29      	ldr	r3, [pc, #164]	; (3408 <MadgwickAHRSupdateIMU+0x758>)
    3364:	681b      	ldr	r3, [r3, #0]
    3366:	4610      	mov	r0, r2
    3368:	4619      	mov	r1, r3
    336a:	f001 ff2b 	bl	51c4 <__aeabi_fmul>
    336e:	4603      	mov	r3, r0
    3370:	4620      	mov	r0, r4
    3372:	4619      	mov	r1, r3
    3374:	f001 fe1e 	bl	4fb4 <__addsf3>
    3378:	4603      	mov	r3, r0
    337a:	461c      	mov	r4, r3
    337c:	4b23      	ldr	r3, [pc, #140]	; (340c <MadgwickAHRSupdateIMU+0x75c>)
    337e:	681a      	ldr	r2, [r3, #0]
    3380:	4b22      	ldr	r3, [pc, #136]	; (340c <MadgwickAHRSupdateIMU+0x75c>)
    3382:	681b      	ldr	r3, [r3, #0]
    3384:	4610      	mov	r0, r2
    3386:	4619      	mov	r1, r3
    3388:	f001 ff1c 	bl	51c4 <__aeabi_fmul>
    338c:	4603      	mov	r3, r0
    338e:	4620      	mov	r0, r4
    3390:	4619      	mov	r1, r3
    3392:	f001 fe0f 	bl	4fb4 <__addsf3>
    3396:	4603      	mov	r3, r0
    3398:	4618      	mov	r0, r3
    339a:	f000 f839 	bl	3410 <invSqrt>
    339e:	6578      	str	r0, [r7, #84]	; 0x54
C:\Users\kruci_000\Desktop\University\SoC\Marsfinder\Marsfinder\Marsfinder_FW\Debug/../Modules/AHRS/MadgwickAHRS.c:254
    q0 *= recipNorm;
    33a0:	4b17      	ldr	r3, [pc, #92]	; (3400 <MadgwickAHRSupdateIMU+0x750>)
    33a2:	681b      	ldr	r3, [r3, #0]
    33a4:	4618      	mov	r0, r3
    33a6:	6d79      	ldr	r1, [r7, #84]	; 0x54
    33a8:	f001 ff0c 	bl	51c4 <__aeabi_fmul>
    33ac:	4603      	mov	r3, r0
    33ae:	461a      	mov	r2, r3
    33b0:	4b13      	ldr	r3, [pc, #76]	; (3400 <MadgwickAHRSupdateIMU+0x750>)
    33b2:	601a      	str	r2, [r3, #0]
C:\Users\kruci_000\Desktop\University\SoC\Marsfinder\Marsfinder\Marsfinder_FW\Debug/../Modules/AHRS/MadgwickAHRS.c:255
    q1 *= recipNorm;
    33b4:	4b13      	ldr	r3, [pc, #76]	; (3404 <MadgwickAHRSupdateIMU+0x754>)
    33b6:	681b      	ldr	r3, [r3, #0]
    33b8:	4618      	mov	r0, r3
    33ba:	6d79      	ldr	r1, [r7, #84]	; 0x54
    33bc:	f001 ff02 	bl	51c4 <__aeabi_fmul>
    33c0:	4603      	mov	r3, r0
    33c2:	461a      	mov	r2, r3
    33c4:	4b0f      	ldr	r3, [pc, #60]	; (3404 <MadgwickAHRSupdateIMU+0x754>)
    33c6:	601a      	str	r2, [r3, #0]
C:\Users\kruci_000\Desktop\University\SoC\Marsfinder\Marsfinder\Marsfinder_FW\Debug/../Modules/AHRS/MadgwickAHRS.c:256
    q2 *= recipNorm;
    33c8:	4b0f      	ldr	r3, [pc, #60]	; (3408 <MadgwickAHRSupdateIMU+0x758>)
    33ca:	681b      	ldr	r3, [r3, #0]
    33cc:	4618      	mov	r0, r3
    33ce:	6d79      	ldr	r1, [r7, #84]	; 0x54
    33d0:	f001 fef8 	bl	51c4 <__aeabi_fmul>
    33d4:	4603      	mov	r3, r0
    33d6:	461a      	mov	r2, r3
    33d8:	4b0b      	ldr	r3, [pc, #44]	; (3408 <MadgwickAHRSupdateIMU+0x758>)
    33da:	601a      	str	r2, [r3, #0]
C:\Users\kruci_000\Desktop\University\SoC\Marsfinder\Marsfinder\Marsfinder_FW\Debug/../Modules/AHRS/MadgwickAHRS.c:257
    q3 *= recipNorm;
    33dc:	4b0b      	ldr	r3, [pc, #44]	; (340c <MadgwickAHRSupdateIMU+0x75c>)
    33de:	681b      	ldr	r3, [r3, #0]
    33e0:	4618      	mov	r0, r3
    33e2:	6d79      	ldr	r1, [r7, #84]	; 0x54
    33e4:	f001 feee 	bl	51c4 <__aeabi_fmul>
    33e8:	4603      	mov	r3, r0
    33ea:	461a      	mov	r2, r3
    33ec:	4b07      	ldr	r3, [pc, #28]	; (340c <MadgwickAHRSupdateIMU+0x75c>)
    33ee:	601a      	str	r2, [r3, #0]
C:\Users\kruci_000\Desktop\University\SoC\Marsfinder\Marsfinder\Marsfinder_FW\Debug/../Modules/AHRS/MadgwickAHRS.c:258
}
    33f0:	376c      	adds	r7, #108	; 0x6c
    33f2:	46bd      	mov	sp, r7
    33f4:	bd90      	pop	{r4, r7, pc}
    33f6:	bf00      	nop
    33f8:	200000e4 	.word	0x200000e4
    33fc:	3d4ccccd 	.word	0x3d4ccccd
    3400:	200000e8 	.word	0x200000e8
    3404:	200001a4 	.word	0x200001a4
    3408:	200001a8 	.word	0x200001a8
    340c:	200001ac 	.word	0x200001ac

00003410 <invSqrt>:
invSqrt():
C:\Users\kruci_000\Desktop\University\SoC\Marsfinder\Marsfinder\Marsfinder_FW\Debug/../Modules/AHRS/MadgwickAHRS.c:264

//---------------------------------------------------------------------------------------------------
// Fast inverse square-root
// See: http://en.wikipedia.org/wiki/Fast_inverse_square_root

float invSqrt(float x) {
    3410:	b580      	push	{r7, lr}
    3412:	b086      	sub	sp, #24
    3414:	af00      	add	r7, sp, #0
    3416:	6078      	str	r0, [r7, #4]
C:\Users\kruci_000\Desktop\University\SoC\Marsfinder\Marsfinder\Marsfinder_FW\Debug/../Modules/AHRS/MadgwickAHRS.c:265
    float halfx = 0.5f * x;
    3418:	6878      	ldr	r0, [r7, #4]
    341a:	f04f 517c 	mov.w	r1, #1056964608	; 0x3f000000
    341e:	f001 fed1 	bl	51c4 <__aeabi_fmul>
    3422:	4603      	mov	r3, r0
    3424:	617b      	str	r3, [r7, #20]
C:\Users\kruci_000\Desktop\University\SoC\Marsfinder\Marsfinder\Marsfinder_FW\Debug/../Modules/AHRS/MadgwickAHRS.c:266
    float y = x;
    3426:	687b      	ldr	r3, [r7, #4]
    3428:	613b      	str	r3, [r7, #16]
C:\Users\kruci_000\Desktop\University\SoC\Marsfinder\Marsfinder\Marsfinder_FW\Debug/../Modules/AHRS/MadgwickAHRS.c:267
    long i = *(long*) &y;
    342a:	f107 0310 	add.w	r3, r7, #16
    342e:	681b      	ldr	r3, [r3, #0]
    3430:	60fb      	str	r3, [r7, #12]
C:\Users\kruci_000\Desktop\University\SoC\Marsfinder\Marsfinder\Marsfinder_FW\Debug/../Modules/AHRS/MadgwickAHRS.c:268
    i = 0x5f3759df - (i >> 1);
    3432:	68fb      	ldr	r3, [r7, #12]
    3434:	105a      	asrs	r2, r3, #1
    3436:	4b13      	ldr	r3, [pc, #76]	; (3484 <invSqrt+0x74>)
    3438:	1a9b      	subs	r3, r3, r2
    343a:	60fb      	str	r3, [r7, #12]
C:\Users\kruci_000\Desktop\University\SoC\Marsfinder\Marsfinder\Marsfinder_FW\Debug/../Modules/AHRS/MadgwickAHRS.c:269
    y = *(float*) &i;
    343c:	f107 030c 	add.w	r3, r7, #12
    3440:	681b      	ldr	r3, [r3, #0]
    3442:	613b      	str	r3, [r7, #16]
C:\Users\kruci_000\Desktop\University\SoC\Marsfinder\Marsfinder\Marsfinder_FW\Debug/../Modules/AHRS/MadgwickAHRS.c:270
    y = y * (1.5f - (halfx * y * y));
    3444:	693b      	ldr	r3, [r7, #16]
    3446:	4618      	mov	r0, r3
    3448:	6979      	ldr	r1, [r7, #20]
    344a:	f001 febb 	bl	51c4 <__aeabi_fmul>
    344e:	4603      	mov	r3, r0
    3450:	461a      	mov	r2, r3
    3452:	693b      	ldr	r3, [r7, #16]
    3454:	4610      	mov	r0, r2
    3456:	4619      	mov	r1, r3
    3458:	f001 feb4 	bl	51c4 <__aeabi_fmul>
    345c:	4603      	mov	r3, r0
    345e:	f04f 507f 	mov.w	r0, #1069547520	; 0x3fc00000
    3462:	4619      	mov	r1, r3
    3464:	f001 fda4 	bl	4fb0 <__aeabi_fsub>
    3468:	4603      	mov	r3, r0
    346a:	461a      	mov	r2, r3
    346c:	693b      	ldr	r3, [r7, #16]
    346e:	4610      	mov	r0, r2
    3470:	4619      	mov	r1, r3
    3472:	f001 fea7 	bl	51c4 <__aeabi_fmul>
    3476:	4603      	mov	r3, r0
    3478:	613b      	str	r3, [r7, #16]
C:\Users\kruci_000\Desktop\University\SoC\Marsfinder\Marsfinder\Marsfinder_FW\Debug/../Modules/AHRS/MadgwickAHRS.c:271
    return y;
    347a:	693b      	ldr	r3, [r7, #16]
C:\Users\kruci_000\Desktop\University\SoC\Marsfinder\Marsfinder\Marsfinder_FW\Debug/../Modules/AHRS/MadgwickAHRS.c:272
}
    347c:	4618      	mov	r0, r3
    347e:	3718      	adds	r7, #24
    3480:	46bd      	mov	sp, r7
    3482:	bd80      	pop	{r7, pc}
    3484:	5f3759df 	.word	0x5f3759df

00003488 <delay>:
delay():
C:\Users\kruci_000\Desktop\University\SoC\Marsfinder\Marsfinder\Marsfinder_FW\Debug/../Helpers/sys_helper/sys_helper.c:3
#include "sys_helper.h"

void delay(uint64_t us) {
    3488:	b580      	push	{r7, lr}
    348a:	b086      	sub	sp, #24
    348c:	af00      	add	r7, sp, #0
    348e:	e9c7 0100 	strd	r0, r1, [r7]
C:\Users\kruci_000\Desktop\University\SoC\Marsfinder\Marsfinder\Marsfinder_FW\Debug/../Helpers/sys_helper/sys_helper.c:4
    uint64_t start = usec(), cur = usec();
    3492:	f7fe fcf3 	bl	1e7c <usec>
    3496:	e9c7 0102 	strd	r0, r1, [r7, #8]
    349a:	f7fe fcef 	bl	1e7c <usec>
    349e:	e9c7 0104 	strd	r0, r1, [r7, #16]
C:\Users\kruci_000\Desktop\University\SoC\Marsfinder\Marsfinder\Marsfinder_FW\Debug/../Helpers/sys_helper/sys_helper.c:5
    while (cur - start < us) {
    34a2:	e003      	b.n	34ac <delay+0x24>
C:\Users\kruci_000\Desktop\University\SoC\Marsfinder\Marsfinder\Marsfinder_FW\Debug/../Helpers/sys_helper/sys_helper.c:6
        cur = usec();
    34a4:	f7fe fcea 	bl	1e7c <usec>
    34a8:	e9c7 0104 	strd	r0, r1, [r7, #16]
C:\Users\kruci_000\Desktop\University\SoC\Marsfinder\Marsfinder\Marsfinder_FW\Debug/../Helpers/sys_helper/sys_helper.c:5
#include "sys_helper.h"

void delay(uint64_t us) {
    uint64_t start = usec(), cur = usec();
    while (cur - start < us) {
    34ac:	e9d7 0104 	ldrd	r0, r1, [r7, #16]
    34b0:	e9d7 2302 	ldrd	r2, r3, [r7, #8]
    34b4:	1a80      	subs	r0, r0, r2
    34b6:	eb61 0103 	sbc.w	r1, r1, r3
    34ba:	e9d7 2300 	ldrd	r2, r3, [r7]
    34be:	4299      	cmp	r1, r3
    34c0:	bf08      	it	eq
    34c2:	4290      	cmpeq	r0, r2
    34c4:	d3ee      	bcc.n	34a4 <delay+0x1c>
C:\Users\kruci_000\Desktop\University\SoC\Marsfinder\Marsfinder\Marsfinder_FW\Debug/../Helpers/sys_helper/sys_helper.c:8
        cur = usec();
    }
}
    34c6:	3718      	adds	r7, #24
    34c8:	46bd      	mov	sp, r7
    34ca:	bd80      	pop	{r7, pc}

000034cc <NVIC_EnableIRQ>:
NVIC_EnableIRQ():
C:/Microsemi_11.06/SoftConsole_v4.0/CMSIS/V4.3/Include/core_cm3.h:1383
    The function enables a device-specific interrupt in the NVIC interrupt controller.

    \param [in]      IRQn  External interrupt number. Value cannot be negative.
 */
__STATIC_INLINE void NVIC_EnableIRQ(IRQn_Type IRQn)
{
    34cc:	b480      	push	{r7}
    34ce:	b083      	sub	sp, #12
    34d0:	af00      	add	r7, sp, #0
    34d2:	4603      	mov	r3, r0
    34d4:	71fb      	strb	r3, [r7, #7]
C:/Microsemi_11.06/SoftConsole_v4.0/CMSIS/V4.3/Include/core_cm3.h:1384
  NVIC->ISER[(((uint32_t)(int32_t)IRQn) >> 5UL)] = (uint32_t)(1UL << (((uint32_t)(int32_t)IRQn) & 0x1FUL));
    34d6:	4908      	ldr	r1, [pc, #32]	; (34f8 <NVIC_EnableIRQ+0x2c>)
    34d8:	f997 3007 	ldrsb.w	r3, [r7, #7]
    34dc:	095b      	lsrs	r3, r3, #5
    34de:	79fa      	ldrb	r2, [r7, #7]
    34e0:	f002 021f 	and.w	r2, r2, #31
    34e4:	2001      	movs	r0, #1
    34e6:	fa00 f202 	lsl.w	r2, r0, r2
    34ea:	f841 2023 	str.w	r2, [r1, r3, lsl #2]
C:/Microsemi_11.06/SoftConsole_v4.0/CMSIS/V4.3/Include/core_cm3.h:1385
}
    34ee:	370c      	adds	r7, #12
    34f0:	46bd      	mov	sp, r7
    34f2:	f85d 7b04 	ldr.w	r7, [sp], #4
    34f6:	4770      	bx	lr
    34f8:	e000e100 	.word	0xe000e100

000034fc <NVIC_DisableIRQ>:
NVIC_DisableIRQ():
C:/Microsemi_11.06/SoftConsole_v4.0/CMSIS/V4.3/Include/core_cm3.h:1395
    The function disables a device-specific interrupt in the NVIC interrupt controller.

    \param [in]      IRQn  External interrupt number. Value cannot be negative.
 */
__STATIC_INLINE void NVIC_DisableIRQ(IRQn_Type IRQn)
{
    34fc:	b480      	push	{r7}
    34fe:	b083      	sub	sp, #12
    3500:	af00      	add	r7, sp, #0
    3502:	4603      	mov	r3, r0
    3504:	71fb      	strb	r3, [r7, #7]
C:/Microsemi_11.06/SoftConsole_v4.0/CMSIS/V4.3/Include/core_cm3.h:1396
  NVIC->ICER[(((uint32_t)(int32_t)IRQn) >> 5UL)] = (uint32_t)(1UL << (((uint32_t)(int32_t)IRQn) & 0x1FUL));
    3506:	4909      	ldr	r1, [pc, #36]	; (352c <NVIC_DisableIRQ+0x30>)
    3508:	f997 3007 	ldrsb.w	r3, [r7, #7]
    350c:	095b      	lsrs	r3, r3, #5
    350e:	79fa      	ldrb	r2, [r7, #7]
    3510:	f002 021f 	and.w	r2, r2, #31
    3514:	2001      	movs	r0, #1
    3516:	fa00 f202 	lsl.w	r2, r0, r2
    351a:	3320      	adds	r3, #32
    351c:	f841 2023 	str.w	r2, [r1, r3, lsl #2]
C:/Microsemi_11.06/SoftConsole_v4.0/CMSIS/V4.3/Include/core_cm3.h:1397
}
    3520:	370c      	adds	r7, #12
    3522:	46bd      	mov	sp, r7
    3524:	f85d 7b04 	ldr.w	r7, [sp], #4
    3528:	4770      	bx	lr
    352a:	bf00      	nop
    352c:	e000e100 	.word	0xe000e100

00003530 <NVIC_ClearPendingIRQ>:
NVIC_ClearPendingIRQ():
C:/Microsemi_11.06/SoftConsole_v4.0/CMSIS/V4.3/Include/core_cm3.h:1435
    The function clears the pending bit of an external interrupt.

    \param [in]      IRQn  External interrupt number. Value cannot be negative.
 */
__STATIC_INLINE void NVIC_ClearPendingIRQ(IRQn_Type IRQn)
{
    3530:	b480      	push	{r7}
    3532:	b083      	sub	sp, #12
    3534:	af00      	add	r7, sp, #0
    3536:	4603      	mov	r3, r0
    3538:	71fb      	strb	r3, [r7, #7]
C:/Microsemi_11.06/SoftConsole_v4.0/CMSIS/V4.3/Include/core_cm3.h:1436
  NVIC->ICPR[(((uint32_t)(int32_t)IRQn) >> 5UL)] = (uint32_t)(1UL << (((uint32_t)(int32_t)IRQn) & 0x1FUL));
    353a:	4909      	ldr	r1, [pc, #36]	; (3560 <NVIC_ClearPendingIRQ+0x30>)
    353c:	f997 3007 	ldrsb.w	r3, [r7, #7]
    3540:	095b      	lsrs	r3, r3, #5
    3542:	79fa      	ldrb	r2, [r7, #7]
    3544:	f002 021f 	and.w	r2, r2, #31
    3548:	2001      	movs	r0, #1
    354a:	fa00 f202 	lsl.w	r2, r0, r2
    354e:	3360      	adds	r3, #96	; 0x60
    3550:	f841 2023 	str.w	r2, [r1, r3, lsl #2]
C:/Microsemi_11.06/SoftConsole_v4.0/CMSIS/V4.3/Include/core_cm3.h:1437
}
    3554:	370c      	adds	r7, #12
    3556:	46bd      	mov	sp, r7
    3558:	f85d 7b04 	ldr.w	r7, [sp], #4
    355c:	4770      	bx	lr
    355e:	bf00      	nop
    3560:	e000e100 	.word	0xe000e100

00003564 <NVIC_SetPriority>:
NVIC_SetPriority():
C:/Microsemi_11.06/SoftConsole_v4.0/CMSIS/V4.3/Include/core_cm3.h:1465

    \param [in]      IRQn  Interrupt number.
    \param [in]  priority  Priority to set.
 */
__STATIC_INLINE void NVIC_SetPriority(IRQn_Type IRQn, uint32_t priority)
{
    3564:	b480      	push	{r7}
    3566:	b083      	sub	sp, #12
    3568:	af00      	add	r7, sp, #0
    356a:	4603      	mov	r3, r0
    356c:	6039      	str	r1, [r7, #0]
    356e:	71fb      	strb	r3, [r7, #7]
C:/Microsemi_11.06/SoftConsole_v4.0/CMSIS/V4.3/Include/core_cm3.h:1466
  if((int32_t)IRQn < 0) {
    3570:	f997 3007 	ldrsb.w	r3, [r7, #7]
    3574:	2b00      	cmp	r3, #0
    3576:	da0b      	bge.n	3590 <NVIC_SetPriority+0x2c>
C:/Microsemi_11.06/SoftConsole_v4.0/CMSIS/V4.3/Include/core_cm3.h:1467
    SCB->SHP[(((uint32_t)(int32_t)IRQn) & 0xFUL)-4UL] = (uint8_t)((priority << (8 - __NVIC_PRIO_BITS)) & (uint32_t)0xFFUL);
    3578:	490d      	ldr	r1, [pc, #52]	; (35b0 <NVIC_SetPriority+0x4c>)
    357a:	79fb      	ldrb	r3, [r7, #7]
    357c:	f003 030f 	and.w	r3, r3, #15
    3580:	3b04      	subs	r3, #4
    3582:	683a      	ldr	r2, [r7, #0]
    3584:	b2d2      	uxtb	r2, r2
    3586:	0112      	lsls	r2, r2, #4
    3588:	b2d2      	uxtb	r2, r2
    358a:	440b      	add	r3, r1
    358c:	761a      	strb	r2, [r3, #24]
    358e:	e009      	b.n	35a4 <NVIC_SetPriority+0x40>
C:/Microsemi_11.06/SoftConsole_v4.0/CMSIS/V4.3/Include/core_cm3.h:1470
  }
  else {
    NVIC->IP[((uint32_t)(int32_t)IRQn)]               = (uint8_t)((priority << (8 - __NVIC_PRIO_BITS)) & (uint32_t)0xFFUL);
    3590:	4908      	ldr	r1, [pc, #32]	; (35b4 <NVIC_SetPriority+0x50>)
    3592:	f997 3007 	ldrsb.w	r3, [r7, #7]
    3596:	683a      	ldr	r2, [r7, #0]
    3598:	b2d2      	uxtb	r2, r2
    359a:	0112      	lsls	r2, r2, #4
    359c:	b2d2      	uxtb	r2, r2
    359e:	440b      	add	r3, r1
    35a0:	f883 2300 	strb.w	r2, [r3, #768]	; 0x300
C:/Microsemi_11.06/SoftConsole_v4.0/CMSIS/V4.3/Include/core_cm3.h:1472
  }
}
    35a4:	370c      	adds	r7, #12
    35a6:	46bd      	mov	sp, r7
    35a8:	f85d 7b04 	ldr.w	r7, [sp], #4
    35ac:	4770      	bx	lr
    35ae:	bf00      	nop
    35b0:	e000ed00 	.word	0xe000ed00
    35b4:	e000e100 	.word	0xe000e100

000035b8 <SysTick_Config>:
SysTick_Config():
C:/Microsemi_11.06/SoftConsole_v4.0/CMSIS/V4.3/Include/core_cm3.h:1596
    function <b>SysTick_Config</b> is not included. In this case, the file <b><i>device</i>.h</b>
    must contain a vendor-specific implementation of this function.

 */
__STATIC_INLINE uint32_t SysTick_Config(uint32_t ticks)
{
    35b8:	b580      	push	{r7, lr}
    35ba:	b082      	sub	sp, #8
    35bc:	af00      	add	r7, sp, #0
    35be:	6078      	str	r0, [r7, #4]
C:/Microsemi_11.06/SoftConsole_v4.0/CMSIS/V4.3/Include/core_cm3.h:1597
  if ((ticks - 1UL) > SysTick_LOAD_RELOAD_Msk) { return (1UL); }    /* Reload value impossible */
    35c0:	687b      	ldr	r3, [r7, #4]
    35c2:	3b01      	subs	r3, #1
    35c4:	f1b3 7f80 	cmp.w	r3, #16777216	; 0x1000000
    35c8:	d301      	bcc.n	35ce <SysTick_Config+0x16>
C:/Microsemi_11.06/SoftConsole_v4.0/CMSIS/V4.3/Include/core_cm3.h:1597 (discriminator 1)
    35ca:	2301      	movs	r3, #1
    35cc:	e00f      	b.n	35ee <SysTick_Config+0x36>
C:/Microsemi_11.06/SoftConsole_v4.0/CMSIS/V4.3/Include/core_cm3.h:1599

  SysTick->LOAD  = (uint32_t)(ticks - 1UL);                         /* set reload register */
    35ce:	4a0a      	ldr	r2, [pc, #40]	; (35f8 <SysTick_Config+0x40>)
    35d0:	687b      	ldr	r3, [r7, #4]
    35d2:	3b01      	subs	r3, #1
    35d4:	6053      	str	r3, [r2, #4]
C:/Microsemi_11.06/SoftConsole_v4.0/CMSIS/V4.3/Include/core_cm3.h:1600
  NVIC_SetPriority (SysTick_IRQn, (1UL << __NVIC_PRIO_BITS) - 1UL); /* set Priority for Systick Interrupt */
    35d6:	f04f 30ff 	mov.w	r0, #4294967295
    35da:	210f      	movs	r1, #15
    35dc:	f7ff ffc2 	bl	3564 <NVIC_SetPriority>
C:/Microsemi_11.06/SoftConsole_v4.0/CMSIS/V4.3/Include/core_cm3.h:1601
  SysTick->VAL   = 0UL;                                             /* Load the SysTick Counter Value */
    35e0:	4b05      	ldr	r3, [pc, #20]	; (35f8 <SysTick_Config+0x40>)
    35e2:	2200      	movs	r2, #0
    35e4:	609a      	str	r2, [r3, #8]
C:/Microsemi_11.06/SoftConsole_v4.0/CMSIS/V4.3/Include/core_cm3.h:1602
  SysTick->CTRL  = SysTick_CTRL_CLKSOURCE_Msk |
    35e6:	4b04      	ldr	r3, [pc, #16]	; (35f8 <SysTick_Config+0x40>)
    35e8:	2207      	movs	r2, #7
    35ea:	601a      	str	r2, [r3, #0]
C:/Microsemi_11.06/SoftConsole_v4.0/CMSIS/V4.3/Include/core_cm3.h:1605
                   SysTick_CTRL_TICKINT_Msk   |
                   SysTick_CTRL_ENABLE_Msk;                         /* Enable SysTick IRQ and SysTick Timer */
  return (0UL);                                                     /* Function successful */
    35ec:	2300      	movs	r3, #0
C:/Microsemi_11.06/SoftConsole_v4.0/CMSIS/V4.3/Include/core_cm3.h:1606
}
    35ee:	4618      	mov	r0, r3
    35f0:	3708      	adds	r7, #8
    35f2:	46bd      	mov	sp, r7
    35f4:	bd80      	pop	{r7, pc}
    35f6:	bf00      	nop
    35f8:	e000e010 	.word	0xe000e010

000035fc <MSS_TIM1_init>:
MSS_TIM1_init():
C:\Users\kruci_000\Desktop\University\SoC\Marsfinder\Marsfinder\Marsfinder_FW\drivers/mss_timer/mss_timer.h:144
    one-shot mode. Allowed values for this parameter are:
        - MSS_TIMER_PERIODIC_MODE
        - MSS_TIMER_ONE_SHOT_MODE
 */
static __INLINE void MSS_TIM1_init(mss_timer_mode_t mode)
{
    35fc:	b580      	push	{r7, lr}
    35fe:	b082      	sub	sp, #8
    3600:	af00      	add	r7, sp, #0
    3602:	4603      	mov	r3, r0
    3604:	71fb      	strb	r3, [r7, #7]
C:\Users\kruci_000\Desktop\University\SoC\Marsfinder\Marsfinder\Marsfinder_FW\drivers/mss_timer/mss_timer.h:145
    NVIC_DisableIRQ(Timer1_IRQn);             /* Disable timer 1 irq in the Cortex-M3 NVIC */  
    3606:	200e      	movs	r0, #14
    3608:	f7ff ff78 	bl	34fc <NVIC_DisableIRQ>
C:\Users\kruci_000\Desktop\University\SoC\Marsfinder\Marsfinder\Marsfinder_FW\drivers/mss_timer/mss_timer.h:147
    
    SYSREG->SOFT_RST_CR &= ~SYSREG_TIMER_SOFTRESET_MASK; /* Take timer block out of reset */
    360c:	4a0f      	ldr	r2, [pc, #60]	; (364c <MSS_TIM1_init+0x50>)
    360e:	4b0f      	ldr	r3, [pc, #60]	; (364c <MSS_TIM1_init+0x50>)
    3610:	6c9b      	ldr	r3, [r3, #72]	; 0x48
    3612:	f023 0340 	bic.w	r3, r3, #64	; 0x40
    3616:	6493      	str	r3, [r2, #72]	; 0x48
C:\Users\kruci_000\Desktop\University\SoC\Marsfinder\Marsfinder\Marsfinder_FW\drivers/mss_timer/mss_timer.h:149
    
    TIMER->TIM64_MODE = 0u;                     /* switch to 32 bits mode */
    3618:	f04f 2340 	mov.w	r3, #1073758208	; 0x40004000
    361c:	2200      	movs	r2, #0
    361e:	655a      	str	r2, [r3, #84]	; 0x54
C:\Users\kruci_000\Desktop\University\SoC\Marsfinder\Marsfinder\Marsfinder_FW\drivers/mss_timer/mss_timer.h:151
    
    TIMER_BITBAND->TIM1ENABLE = 0u;             /* disable timer */
    3620:	4b0b      	ldr	r3, [pc, #44]	; (3650 <MSS_TIM1_init+0x54>)
    3622:	2200      	movs	r2, #0
    3624:	f8c3 2180 	str.w	r2, [r3, #384]	; 0x180
C:\Users\kruci_000\Desktop\University\SoC\Marsfinder\Marsfinder\Marsfinder_FW\drivers/mss_timer/mss_timer.h:152
    TIMER_BITBAND->TIM1INTEN = 0u;              /* disable interrupt */
    3628:	4b09      	ldr	r3, [pc, #36]	; (3650 <MSS_TIM1_init+0x54>)
    362a:	2200      	movs	r2, #0
    362c:	f8c3 2188 	str.w	r2, [r3, #392]	; 0x188
C:\Users\kruci_000\Desktop\University\SoC\Marsfinder\Marsfinder\Marsfinder_FW\drivers/mss_timer/mss_timer.h:153
    TIMER_BITBAND->TIM1MODE = (uint32_t)mode;   /* set mode (continuous/one-shot) */
    3630:	4a07      	ldr	r2, [pc, #28]	; (3650 <MSS_TIM1_init+0x54>)
    3632:	79fb      	ldrb	r3, [r7, #7]
    3634:	f8c2 3184 	str.w	r3, [r2, #388]	; 0x184
C:\Users\kruci_000\Desktop\University\SoC\Marsfinder\Marsfinder\Marsfinder_FW\drivers/mss_timer/mss_timer.h:155
    
    TIMER->TIM1_RIS = 1u;                       /* clear timer 1 interrupt */
    3638:	f04f 2340 	mov.w	r3, #1073758208	; 0x40004000
    363c:	2201      	movs	r2, #1
    363e:	611a      	str	r2, [r3, #16]
C:\Users\kruci_000\Desktop\University\SoC\Marsfinder\Marsfinder\Marsfinder_FW\drivers/mss_timer/mss_timer.h:156
    NVIC_ClearPendingIRQ(Timer1_IRQn);          /* clear timer 1 interrupt within NVIC */
    3640:	200e      	movs	r0, #14
    3642:	f7ff ff75 	bl	3530 <NVIC_ClearPendingIRQ>
C:\Users\kruci_000\Desktop\University\SoC\Marsfinder\Marsfinder\Marsfinder_FW\drivers/mss_timer/mss_timer.h:157
}
    3646:	3708      	adds	r7, #8
    3648:	46bd      	mov	sp, r7
    364a:	bd80      	pop	{r7, pc}
    364c:	40038000 	.word	0x40038000
    3650:	42080000 	.word	0x42080000

00003654 <MSS_TIM1_start>:
MSS_TIM1_start():
C:\Users\kruci_000\Desktop\University\SoC\Marsfinder\Marsfinder\Marsfinder_FW\drivers/mss_timer/mss_timer.h:167
  MSS_TIM1_load_immediate() or MSS_TIM1_load_background() functions. 
  Note: The MSS_TIM1_start() function is also used to resume the down-counter
        if previously stopped using the MSS_TIM1_stop() function.
 */
static __INLINE void MSS_TIM1_start(void)
{
    3654:	b480      	push	{r7}
    3656:	af00      	add	r7, sp, #0
C:\Users\kruci_000\Desktop\University\SoC\Marsfinder\Marsfinder\Marsfinder_FW\drivers/mss_timer/mss_timer.h:168
    TIMER_BITBAND->TIM1ENABLE = 1u;    /* enable timer */
    3658:	4b03      	ldr	r3, [pc, #12]	; (3668 <MSS_TIM1_start+0x14>)
    365a:	2201      	movs	r2, #1
    365c:	f8c3 2180 	str.w	r2, [r3, #384]	; 0x180
C:\Users\kruci_000\Desktop\University\SoC\Marsfinder\Marsfinder\Marsfinder_FW\drivers/mss_timer/mss_timer.h:169
}
    3660:	46bd      	mov	sp, r7
    3662:	f85d 7b04 	ldr.w	r7, [sp], #4
    3666:	4770      	bx	lr
    3668:	42080000 	.word	0x42080000

0000366c <MSS_TIM1_load_background>:
MSS_TIM1_load_background():
C:\Users\kruci_000\Desktop\University\SoC\Marsfinder\Marsfinder\Marsfinder_FW\drivers/mss_timer/mss_timer.h:226
    Timer 1 down-counter the next time the down-counter reaches zero. The Timer
    1 down-counter will start decrementing from this value after the current
    count expires.
 */
static __INLINE void MSS_TIM1_load_background(uint32_t load_value)
{
    366c:	b480      	push	{r7}
    366e:	b083      	sub	sp, #12
    3670:	af00      	add	r7, sp, #0
    3672:	6078      	str	r0, [r7, #4]
C:\Users\kruci_000\Desktop\University\SoC\Marsfinder\Marsfinder\Marsfinder_FW\drivers/mss_timer/mss_timer.h:227
    TIMER->TIM1_BGLOADVAL = load_value;
    3674:	f04f 2240 	mov.w	r2, #1073758208	; 0x40004000
    3678:	687b      	ldr	r3, [r7, #4]
    367a:	6093      	str	r3, [r2, #8]
C:\Users\kruci_000\Desktop\University\SoC\Marsfinder\Marsfinder\Marsfinder_FW\drivers/mss_timer/mss_timer.h:228
}
    367c:	370c      	adds	r7, #12
    367e:	46bd      	mov	sp, r7
    3680:	f85d 7b04 	ldr.w	r7, [sp], #4
    3684:	4770      	bx	lr
    3686:	bf00      	nop

00003688 <MSS_TIM1_enable_irq>:
MSS_TIM1_enable_irq():
C:\Users\kruci_000\Desktop\University\SoC\Marsfinder\Marsfinder\Marsfinder_FW\drivers/mss_timer/mss_timer.h:242
  implementation of the Timer1_IRQHandler() function, that will override the
  default implementation, to suit your application.

 */
static __INLINE void MSS_TIM1_enable_irq(void)
{
    3688:	b580      	push	{r7, lr}
    368a:	af00      	add	r7, sp, #0
C:\Users\kruci_000\Desktop\University\SoC\Marsfinder\Marsfinder\Marsfinder_FW\drivers/mss_timer/mss_timer.h:243
    TIMER_BITBAND->TIM1INTEN = 1u;
    368c:	4b03      	ldr	r3, [pc, #12]	; (369c <MSS_TIM1_enable_irq+0x14>)
    368e:	2201      	movs	r2, #1
    3690:	f8c3 2188 	str.w	r2, [r3, #392]	; 0x188
C:\Users\kruci_000\Desktop\University\SoC\Marsfinder\Marsfinder\Marsfinder_FW\drivers/mss_timer/mss_timer.h:244
    NVIC_EnableIRQ(Timer1_IRQn);
    3694:	200e      	movs	r0, #14
    3696:	f7ff ff19 	bl	34cc <NVIC_EnableIRQ>
C:\Users\kruci_000\Desktop\University\SoC\Marsfinder\Marsfinder\Marsfinder_FW\drivers/mss_timer/mss_timer.h:245
}
    369a:	bd80      	pop	{r7, pc}
    369c:	42080000 	.word	0x42080000

000036a0 <MSS_TIM1_clear_irq>:
MSS_TIM1_clear_irq():
C:\Users\kruci_000\Desktop\University\SoC\Marsfinder\Marsfinder\Marsfinder_FW\drivers/mss_timer/mss_timer.h:269
  (ISR) in order to prevent the same interrupt event re-triggering a call to the
  ISR.

 */
static __INLINE void MSS_TIM1_clear_irq(void)
{
    36a0:	b480      	push	{r7}
    36a2:	af00      	add	r7, sp, #0
C:\Users\kruci_000\Desktop\University\SoC\Marsfinder\Marsfinder\Marsfinder_FW\drivers/mss_timer/mss_timer.h:270
    TIMER->TIM1_RIS = 1u;
    36a4:	f04f 2340 	mov.w	r3, #1073758208	; 0x40004000
    36a8:	2201      	movs	r2, #1
    36aa:	611a      	str	r2, [r3, #16]
C:\Users\kruci_000\Desktop\University\SoC\Marsfinder\Marsfinder\Marsfinder_FW\drivers/mss_timer/mss_timer.h:276
    /*
      To ensure all the previous instructions are completed, data barrier 
      instruction is used. The dsb data barriers instruction completes,
      only after all the previous instruction are completed. 
     */
    __ASM volatile ("dsb");
    36ac:	f3bf 8f4f 	dsb	sy
C:\Users\kruci_000\Desktop\University\SoC\Marsfinder\Marsfinder\Marsfinder_FW\drivers/mss_timer/mss_timer.h:277
}
    36b0:	46bd      	mov	sp, r7
    36b2:	f85d 7b04 	ldr.w	r7, [sp], #4
    36b6:	4770      	bx	lr

000036b8 <crc_accumulate>:
crc_accumulate():
c:\users\kruci_000\desktop\university\soc\marsfinder\marsfinder\marsfinder_fw\modules\mavlink/checksum.h:35
 *
 * @param data new char to hash
 * @param crcAccum the already accumulated checksum
 **/
static inline void crc_accumulate(uint8_t data, uint16_t *crcAccum)
{
    36b8:	b480      	push	{r7}
    36ba:	b085      	sub	sp, #20
    36bc:	af00      	add	r7, sp, #0
    36be:	4603      	mov	r3, r0
    36c0:	6039      	str	r1, [r7, #0]
    36c2:	71fb      	strb	r3, [r7, #7]
c:\users\kruci_000\desktop\university\soc\marsfinder\marsfinder\marsfinder_fw\modules\mavlink/checksum.h:39
        /*Accumulate one byte of data into the CRC*/
        uint8_t tmp;

        tmp = data ^ (uint8_t)(*crcAccum &0xff);
    36c4:	683b      	ldr	r3, [r7, #0]
    36c6:	881b      	ldrh	r3, [r3, #0]
    36c8:	b2da      	uxtb	r2, r3
    36ca:	79fb      	ldrb	r3, [r7, #7]
    36cc:	4053      	eors	r3, r2
    36ce:	73fb      	strb	r3, [r7, #15]
c:\users\kruci_000\desktop\university\soc\marsfinder\marsfinder\marsfinder_fw\modules\mavlink/checksum.h:40
        tmp ^= (tmp<<4);
    36d0:	7bfb      	ldrb	r3, [r7, #15]
    36d2:	011b      	lsls	r3, r3, #4
    36d4:	b2da      	uxtb	r2, r3
    36d6:	7bfb      	ldrb	r3, [r7, #15]
    36d8:	4053      	eors	r3, r2
    36da:	b2db      	uxtb	r3, r3
    36dc:	73fb      	strb	r3, [r7, #15]
c:\users\kruci_000\desktop\university\soc\marsfinder\marsfinder\marsfinder_fw\modules\mavlink/checksum.h:41
        *crcAccum = (*crcAccum>>8) ^ (tmp<<8) ^ (tmp <<3) ^ (tmp>>4);
    36de:	683b      	ldr	r3, [r7, #0]
    36e0:	881b      	ldrh	r3, [r3, #0]
    36e2:	0a1b      	lsrs	r3, r3, #8
    36e4:	b29b      	uxth	r3, r3
    36e6:	b29a      	uxth	r2, r3
    36e8:	7bfb      	ldrb	r3, [r7, #15]
    36ea:	021b      	lsls	r3, r3, #8
    36ec:	b29b      	uxth	r3, r3
    36ee:	4053      	eors	r3, r2
    36f0:	b29a      	uxth	r2, r3
    36f2:	7bfb      	ldrb	r3, [r7, #15]
    36f4:	00db      	lsls	r3, r3, #3
    36f6:	b29b      	uxth	r3, r3
    36f8:	4053      	eors	r3, r2
    36fa:	b29a      	uxth	r2, r3
    36fc:	7bfb      	ldrb	r3, [r7, #15]
    36fe:	091b      	lsrs	r3, r3, #4
    3700:	b2db      	uxtb	r3, r3
    3702:	b29b      	uxth	r3, r3
    3704:	4053      	eors	r3, r2
    3706:	b29b      	uxth	r3, r3
    3708:	b29a      	uxth	r2, r3
    370a:	683b      	ldr	r3, [r7, #0]
    370c:	801a      	strh	r2, [r3, #0]
c:\users\kruci_000\desktop\university\soc\marsfinder\marsfinder\marsfinder_fw\modules\mavlink/checksum.h:42
}
    370e:	3714      	adds	r7, #20
    3710:	46bd      	mov	sp, r7
    3712:	f85d 7b04 	ldr.w	r7, [sp], #4
    3716:	4770      	bx	lr

00003718 <crc_init>:
crc_init():
c:\users\kruci_000\desktop\university\soc\marsfinder\marsfinder\marsfinder_fw\modules\mavlink/checksum.h:52
 * @brief Initiliaze the buffer for the X.25 CRC
 *
 * @param crcAccum the 16 bit X.25 CRC
 */
static inline void crc_init(uint16_t* crcAccum)
{
    3718:	b480      	push	{r7}
    371a:	b083      	sub	sp, #12
    371c:	af00      	add	r7, sp, #0
    371e:	6078      	str	r0, [r7, #4]
c:\users\kruci_000\desktop\university\soc\marsfinder\marsfinder\marsfinder_fw\modules\mavlink/checksum.h:53
        *crcAccum = X25_INIT_CRC;
    3720:	687b      	ldr	r3, [r7, #4]
    3722:	f64f 72ff 	movw	r2, #65535	; 0xffff
    3726:	801a      	strh	r2, [r3, #0]
c:\users\kruci_000\desktop\university\soc\marsfinder\marsfinder\marsfinder_fw\modules\mavlink/checksum.h:54
}
    3728:	370c      	adds	r7, #12
    372a:	46bd      	mov	sp, r7
    372c:	f85d 7b04 	ldr.w	r7, [sp], #4
    3730:	4770      	bx	lr
    3732:	bf00      	nop

00003734 <crc_calculate>:
crc_calculate():
c:\users\kruci_000\desktop\university\soc\marsfinder\marsfinder\marsfinder_fw\modules\mavlink/checksum.h:65
 * @param  pBuffer buffer containing the byte array to hash
 * @param  length  length of the byte array
 * @return the checksum over the buffer bytes
 **/
static inline uint16_t crc_calculate(const uint8_t* pBuffer, uint16_t length)
{
    3734:	b580      	push	{r7, lr}
    3736:	b084      	sub	sp, #16
    3738:	af00      	add	r7, sp, #0
    373a:	6078      	str	r0, [r7, #4]
    373c:	460b      	mov	r3, r1
    373e:	807b      	strh	r3, [r7, #2]
c:\users\kruci_000\desktop\university\soc\marsfinder\marsfinder\marsfinder_fw\modules\mavlink/checksum.h:67
        uint16_t crcTmp;
        crc_init(&crcTmp);
    3740:	f107 030e 	add.w	r3, r7, #14
    3744:	4618      	mov	r0, r3
    3746:	f7ff ffe7 	bl	3718 <crc_init>
c:\users\kruci_000\desktop\university\soc\marsfinder\marsfinder\marsfinder_fw\modules\mavlink/checksum.h:68
	while (length--) {
    374a:	e009      	b.n	3760 <crc_calculate+0x2c>
c:\users\kruci_000\desktop\university\soc\marsfinder\marsfinder\marsfinder_fw\modules\mavlink/checksum.h:69
                crc_accumulate(*pBuffer++, &crcTmp);
    374c:	687b      	ldr	r3, [r7, #4]
    374e:	1c5a      	adds	r2, r3, #1
    3750:	607a      	str	r2, [r7, #4]
    3752:	781a      	ldrb	r2, [r3, #0]
    3754:	f107 030e 	add.w	r3, r7, #14
    3758:	4610      	mov	r0, r2
    375a:	4619      	mov	r1, r3
    375c:	f7ff ffac 	bl	36b8 <crc_accumulate>
c:\users\kruci_000\desktop\university\soc\marsfinder\marsfinder\marsfinder_fw\modules\mavlink/checksum.h:68
 **/
static inline uint16_t crc_calculate(const uint8_t* pBuffer, uint16_t length)
{
        uint16_t crcTmp;
        crc_init(&crcTmp);
	while (length--) {
    3760:	887b      	ldrh	r3, [r7, #2]
    3762:	1e5a      	subs	r2, r3, #1
    3764:	807a      	strh	r2, [r7, #2]
    3766:	2b00      	cmp	r3, #0
    3768:	d1f0      	bne.n	374c <crc_calculate+0x18>
c:\users\kruci_000\desktop\university\soc\marsfinder\marsfinder\marsfinder_fw\modules\mavlink/checksum.h:71
                crc_accumulate(*pBuffer++, &crcTmp);
        }
        return crcTmp;
    376a:	89fb      	ldrh	r3, [r7, #14]
c:\users\kruci_000\desktop\university\soc\marsfinder\marsfinder\marsfinder_fw\modules\mavlink/checksum.h:72
}
    376c:	4618      	mov	r0, r3
    376e:	3710      	adds	r7, #16
    3770:	46bd      	mov	sp, r7
    3772:	bd80      	pop	{r7, pc}

00003774 <crc_accumulate_buffer>:
crc_accumulate_buffer():
c:\users\kruci_000\desktop\university\soc\marsfinder\marsfinder\marsfinder_fw\modules\mavlink/checksum.h:85
 *
 * @param data new bytes to hash
 * @param crcAccum the already accumulated checksum
 **/
static inline void crc_accumulate_buffer(uint16_t *crcAccum, const char *pBuffer, uint16_t length)
{
    3774:	b580      	push	{r7, lr}
    3776:	b086      	sub	sp, #24
    3778:	af00      	add	r7, sp, #0
    377a:	60f8      	str	r0, [r7, #12]
    377c:	60b9      	str	r1, [r7, #8]
    377e:	4613      	mov	r3, r2
    3780:	80fb      	strh	r3, [r7, #6]
c:\users\kruci_000\desktop\university\soc\marsfinder\marsfinder\marsfinder_fw\modules\mavlink/checksum.h:86
	const uint8_t *p = (const uint8_t *)pBuffer;
    3782:	68bb      	ldr	r3, [r7, #8]
    3784:	617b      	str	r3, [r7, #20]
c:\users\kruci_000\desktop\university\soc\marsfinder\marsfinder\marsfinder_fw\modules\mavlink/checksum.h:87
	while (length--) {
    3786:	e007      	b.n	3798 <crc_accumulate_buffer+0x24>
c:\users\kruci_000\desktop\university\soc\marsfinder\marsfinder\marsfinder_fw\modules\mavlink/checksum.h:88
                crc_accumulate(*p++, crcAccum);
    3788:	697b      	ldr	r3, [r7, #20]
    378a:	1c5a      	adds	r2, r3, #1
    378c:	617a      	str	r2, [r7, #20]
    378e:	781b      	ldrb	r3, [r3, #0]
    3790:	4618      	mov	r0, r3
    3792:	68f9      	ldr	r1, [r7, #12]
    3794:	f7ff ff90 	bl	36b8 <crc_accumulate>
c:\users\kruci_000\desktop\university\soc\marsfinder\marsfinder\marsfinder_fw\modules\mavlink/checksum.h:87
 * @param crcAccum the already accumulated checksum
 **/
static inline void crc_accumulate_buffer(uint16_t *crcAccum, const char *pBuffer, uint16_t length)
{
	const uint8_t *p = (const uint8_t *)pBuffer;
	while (length--) {
    3798:	88fb      	ldrh	r3, [r7, #6]
    379a:	1e5a      	subs	r2, r3, #1
    379c:	80fa      	strh	r2, [r7, #6]
    379e:	2b00      	cmp	r3, #0
    37a0:	d1f2      	bne.n	3788 <crc_accumulate_buffer+0x14>
c:\users\kruci_000\desktop\university\soc\marsfinder\marsfinder\marsfinder_fw\modules\mavlink/checksum.h:90
                crc_accumulate(*p++, crcAccum);
        }
}
    37a2:	3718      	adds	r7, #24
    37a4:	46bd      	mov	sp, r7
    37a6:	bd80      	pop	{r7, pc}

000037a8 <mavlink_get_channel_status>:
mavlink_get_channel_status():
c:\users\kruci_000\desktop\university\soc\marsfinder\marsfinder\marsfinder_fw\modules\mavlink/mavlink_helpers.h:21
/*
 * Internal function to give access to the channel status for each channel
 */
#ifndef MAVLINK_GET_CHANNEL_STATUS
MAVLINK_HELPER mavlink_status_t* mavlink_get_channel_status(uint8_t chan)
{
    37a8:	b480      	push	{r7}
    37aa:	b083      	sub	sp, #12
    37ac:	af00      	add	r7, sp, #0
    37ae:	4603      	mov	r3, r0
    37b0:	71fb      	strb	r3, [r7, #7]
c:\users\kruci_000\desktop\university\soc\marsfinder\marsfinder\marsfinder_fw\modules\mavlink/mavlink_helpers.h:28
	// No m_mavlink_status array defined in function,
	// has to be defined externally
#else
	static mavlink_status_t m_mavlink_status[MAVLINK_COMM_NUM_BUFFERS];
#endif
	return &m_mavlink_status[chan];
    37b2:	79fa      	ldrb	r2, [r7, #7]
    37b4:	4613      	mov	r3, r2
    37b6:	005b      	lsls	r3, r3, #1
    37b8:	4413      	add	r3, r2
    37ba:	009b      	lsls	r3, r3, #2
    37bc:	4a03      	ldr	r2, [pc, #12]	; (37cc <mavlink_get_channel_status+0x24>)
    37be:	4413      	add	r3, r2
c:\users\kruci_000\desktop\university\soc\marsfinder\marsfinder\marsfinder_fw\modules\mavlink/mavlink_helpers.h:29
}
    37c0:	4618      	mov	r0, r3
    37c2:	370c      	adds	r7, #12
    37c4:	46bd      	mov	sp, r7
    37c6:	f85d 7b04 	ldr.w	r7, [sp], #4
    37ca:	4770      	bx	lr
    37cc:	200001b0 	.word	0x200001b0

000037d0 <mavlink_get_channel_buffer>:
mavlink_get_channel_buffer():
c:\users\kruci_000\desktop\university\soc\marsfinder\marsfinder\marsfinder_fw\modules\mavlink/mavlink_helpers.h:37
/*
 * Internal function to give access to the channel buffer for each channel
 */
#ifndef MAVLINK_GET_CHANNEL_BUFFER
MAVLINK_HELPER mavlink_message_t* mavlink_get_channel_buffer(uint8_t chan)
{
    37d0:	b480      	push	{r7}
    37d2:	b083      	sub	sp, #12
    37d4:	af00      	add	r7, sp, #0
    37d6:	4603      	mov	r3, r0
    37d8:	71fb      	strb	r3, [r7, #7]
c:\users\kruci_000\desktop\university\soc\marsfinder\marsfinder\marsfinder_fw\modules\mavlink/mavlink_helpers.h:45
	// No m_mavlink_buffer array defined in function,
	// has to be defined externally
#else
	static mavlink_message_t m_mavlink_buffer[MAVLINK_COMM_NUM_BUFFERS];
#endif
	return &m_mavlink_buffer[chan];
    37da:	79fa      	ldrb	r2, [r7, #7]
    37dc:	4613      	mov	r3, r2
    37de:	011b      	lsls	r3, r3, #4
    37e0:	4413      	add	r3, r2
    37e2:	011b      	lsls	r3, r3, #4
    37e4:	4a03      	ldr	r2, [pc, #12]	; (37f4 <mavlink_get_channel_buffer+0x24>)
    37e6:	4413      	add	r3, r2
c:\users\kruci_000\desktop\university\soc\marsfinder\marsfinder\marsfinder_fw\modules\mavlink/mavlink_helpers.h:46
}
    37e8:	4618      	mov	r0, r3
    37ea:	370c      	adds	r7, #12
    37ec:	46bd      	mov	sp, r7
    37ee:	f85d 7b04 	ldr.w	r7, [sp], #4
    37f2:	4770      	bx	lr
    37f4:	200001e0 	.word	0x200001e0

000037f8 <mavlink_finalize_message_chan>:
mavlink_finalize_message_chan():
c:\users\kruci_000\desktop\university\soc\marsfinder\marsfinder\marsfinder_fw\modules\mavlink/mavlink_helpers.h:77
						      uint8_t chan, uint8_t min_length, uint8_t length, uint8_t crc_extra)
#else
MAVLINK_HELPER uint16_t mavlink_finalize_message_chan(mavlink_message_t* msg, uint8_t system_id, uint8_t component_id,
						      uint8_t chan, uint8_t length)
#endif
{
    37f8:	b590      	push	{r4, r7, lr}
    37fa:	b083      	sub	sp, #12
    37fc:	af00      	add	r7, sp, #0
    37fe:	6078      	str	r0, [r7, #4]
    3800:	4608      	mov	r0, r1
    3802:	4611      	mov	r1, r2
    3804:	461a      	mov	r2, r3
    3806:	4603      	mov	r3, r0
    3808:	70fb      	strb	r3, [r7, #3]
    380a:	460b      	mov	r3, r1
    380c:	70bb      	strb	r3, [r7, #2]
    380e:	4613      	mov	r3, r2
    3810:	707b      	strb	r3, [r7, #1]
c:\users\kruci_000\desktop\university\soc\marsfinder\marsfinder\marsfinder_fw\modules\mavlink/mavlink_helpers.h:81
	// This is only used for the v2 protocol and we silence it here
	(void)min_length;
	// This code part is the same for all messages;
	msg->magic = MAVLINK_STX;
    3812:	687b      	ldr	r3, [r7, #4]
    3814:	22fe      	movs	r2, #254	; 0xfe
    3816:	709a      	strb	r2, [r3, #2]
c:\users\kruci_000\desktop\university\soc\marsfinder\marsfinder\marsfinder_fw\modules\mavlink/mavlink_helpers.h:82
	msg->len = length;
    3818:	687b      	ldr	r3, [r7, #4]
    381a:	7f3a      	ldrb	r2, [r7, #28]
    381c:	70da      	strb	r2, [r3, #3]
c:\users\kruci_000\desktop\university\soc\marsfinder\marsfinder\marsfinder_fw\modules\mavlink/mavlink_helpers.h:83
	msg->sysid = system_id;
    381e:	687b      	ldr	r3, [r7, #4]
    3820:	78fa      	ldrb	r2, [r7, #3]
    3822:	715a      	strb	r2, [r3, #5]
c:\users\kruci_000\desktop\university\soc\marsfinder\marsfinder\marsfinder_fw\modules\mavlink/mavlink_helpers.h:84
	msg->compid = component_id;
    3824:	687b      	ldr	r3, [r7, #4]
    3826:	78ba      	ldrb	r2, [r7, #2]
    3828:	719a      	strb	r2, [r3, #6]
c:\users\kruci_000\desktop\university\soc\marsfinder\marsfinder\marsfinder_fw\modules\mavlink/mavlink_helpers.h:86
	// One sequence number per channel
	msg->seq = mavlink_get_channel_status(chan)->current_tx_seq;
    382a:	787b      	ldrb	r3, [r7, #1]
    382c:	4618      	mov	r0, r3
    382e:	f7ff ffbb 	bl	37a8 <mavlink_get_channel_status>
    3832:	4603      	mov	r3, r0
    3834:	799a      	ldrb	r2, [r3, #6]
    3836:	687b      	ldr	r3, [r7, #4]
    3838:	711a      	strb	r2, [r3, #4]
c:\users\kruci_000\desktop\university\soc\marsfinder\marsfinder\marsfinder_fw\modules\mavlink/mavlink_helpers.h:87
	mavlink_get_channel_status(chan)->current_tx_seq = mavlink_get_channel_status(chan)->current_tx_seq+1;
    383a:	787b      	ldrb	r3, [r7, #1]
    383c:	4618      	mov	r0, r3
    383e:	f7ff ffb3 	bl	37a8 <mavlink_get_channel_status>
    3842:	4604      	mov	r4, r0
    3844:	787b      	ldrb	r3, [r7, #1]
    3846:	4618      	mov	r0, r3
    3848:	f7ff ffae 	bl	37a8 <mavlink_get_channel_status>
    384c:	4603      	mov	r3, r0
    384e:	799b      	ldrb	r3, [r3, #6]
    3850:	3301      	adds	r3, #1
    3852:	b2db      	uxtb	r3, r3
    3854:	71a3      	strb	r3, [r4, #6]
c:\users\kruci_000\desktop\university\soc\marsfinder\marsfinder\marsfinder_fw\modules\mavlink/mavlink_helpers.h:88
	msg->checksum = crc_calculate(((const uint8_t*)(msg)) + 3, MAVLINK_CORE_HEADER_LEN);
    3856:	687b      	ldr	r3, [r7, #4]
    3858:	3303      	adds	r3, #3
    385a:	4618      	mov	r0, r3
    385c:	2105      	movs	r1, #5
    385e:	f7ff ff69 	bl	3734 <crc_calculate>
    3862:	4603      	mov	r3, r0
    3864:	461a      	mov	r2, r3
    3866:	687b      	ldr	r3, [r7, #4]
    3868:	801a      	strh	r2, [r3, #0]
c:\users\kruci_000\desktop\university\soc\marsfinder\marsfinder\marsfinder_fw\modules\mavlink/mavlink_helpers.h:89
	crc_accumulate_buffer(&msg->checksum, _MAV_PAYLOAD(msg), msg->len);
    386a:	6879      	ldr	r1, [r7, #4]
    386c:	687b      	ldr	r3, [r7, #4]
    386e:	f103 0208 	add.w	r2, r3, #8
    3872:	687b      	ldr	r3, [r7, #4]
    3874:	78db      	ldrb	r3, [r3, #3]
    3876:	b29b      	uxth	r3, r3
    3878:	4608      	mov	r0, r1
    387a:	4611      	mov	r1, r2
    387c:	461a      	mov	r2, r3
    387e:	f7ff ff79 	bl	3774 <crc_accumulate_buffer>
c:\users\kruci_000\desktop\university\soc\marsfinder\marsfinder\marsfinder_fw\modules\mavlink/mavlink_helpers.h:91
#if MAVLINK_CRC_EXTRA
	crc_accumulate(crc_extra, &msg->checksum);
    3882:	687b      	ldr	r3, [r7, #4]
    3884:	f897 2020 	ldrb.w	r2, [r7, #32]
    3888:	4610      	mov	r0, r2
    388a:	4619      	mov	r1, r3
    388c:	f7ff ff14 	bl	36b8 <crc_accumulate>
c:\users\kruci_000\desktop\university\soc\marsfinder\marsfinder\marsfinder_fw\modules\mavlink/mavlink_helpers.h:93
#endif
	mavlink_ck_a(msg) = (uint8_t)(msg->checksum & 0xFF);
    3890:	687b      	ldr	r3, [r7, #4]
    3892:	3308      	adds	r3, #8
    3894:	687a      	ldr	r2, [r7, #4]
    3896:	78d2      	ldrb	r2, [r2, #3]
    3898:	4413      	add	r3, r2
    389a:	687a      	ldr	r2, [r7, #4]
    389c:	8812      	ldrh	r2, [r2, #0]
    389e:	b292      	uxth	r2, r2
    38a0:	b2d2      	uxtb	r2, r2
    38a2:	701a      	strb	r2, [r3, #0]
c:\users\kruci_000\desktop\university\soc\marsfinder\marsfinder\marsfinder_fw\modules\mavlink/mavlink_helpers.h:94
	mavlink_ck_b(msg) = (uint8_t)(msg->checksum >> 8);
    38a4:	687b      	ldr	r3, [r7, #4]
    38a6:	f103 0208 	add.w	r2, r3, #8
    38aa:	687b      	ldr	r3, [r7, #4]
    38ac:	78db      	ldrb	r3, [r3, #3]
    38ae:	3301      	adds	r3, #1
    38b0:	4413      	add	r3, r2
    38b2:	687a      	ldr	r2, [r7, #4]
    38b4:	8812      	ldrh	r2, [r2, #0]
    38b6:	b292      	uxth	r2, r2
    38b8:	0a12      	lsrs	r2, r2, #8
    38ba:	b292      	uxth	r2, r2
    38bc:	b2d2      	uxtb	r2, r2
    38be:	701a      	strb	r2, [r3, #0]
c:\users\kruci_000\desktop\university\soc\marsfinder\marsfinder\marsfinder_fw\modules\mavlink/mavlink_helpers.h:96

	return length + MAVLINK_NUM_NON_PAYLOAD_BYTES;
    38c0:	7f3b      	ldrb	r3, [r7, #28]
    38c2:	b29b      	uxth	r3, r3
    38c4:	3308      	adds	r3, #8
    38c6:	b29b      	uxth	r3, r3
c:\users\kruci_000\desktop\university\soc\marsfinder\marsfinder\marsfinder_fw\modules\mavlink/mavlink_helpers.h:97
}
    38c8:	4618      	mov	r0, r3
    38ca:	370c      	adds	r7, #12
    38cc:	46bd      	mov	sp, r7
    38ce:	bd90      	pop	{r4, r7, pc}

000038d0 <mavlink_finalize_message>:
mavlink_finalize_message():
c:\users\kruci_000\desktop\university\soc\marsfinder\marsfinder\marsfinder_fw\modules\mavlink/mavlink_helpers.h:106
 * @brief Finalize a MAVLink message with MAVLINK_COMM_0 as default channel
 */
#if MAVLINK_CRC_EXTRA
MAVLINK_HELPER uint16_t mavlink_finalize_message(mavlink_message_t* msg, uint8_t system_id, uint8_t component_id,
						 uint8_t min_length, uint8_t length, uint8_t crc_extra)
{
    38d0:	b580      	push	{r7, lr}
    38d2:	b086      	sub	sp, #24
    38d4:	af04      	add	r7, sp, #16
    38d6:	6078      	str	r0, [r7, #4]
    38d8:	4608      	mov	r0, r1
    38da:	4611      	mov	r1, r2
    38dc:	461a      	mov	r2, r3
    38de:	4603      	mov	r3, r0
    38e0:	70fb      	strb	r3, [r7, #3]
    38e2:	460b      	mov	r3, r1
    38e4:	70bb      	strb	r3, [r7, #2]
    38e6:	4613      	mov	r3, r2
    38e8:	707b      	strb	r3, [r7, #1]
c:\users\kruci_000\desktop\university\soc\marsfinder\marsfinder\marsfinder_fw\modules\mavlink/mavlink_helpers.h:107
    return mavlink_finalize_message_chan(msg, system_id, component_id, MAVLINK_COMM_0, min_length, length, crc_extra);
    38ea:	78f9      	ldrb	r1, [r7, #3]
    38ec:	78ba      	ldrb	r2, [r7, #2]
    38ee:	787b      	ldrb	r3, [r7, #1]
    38f0:	9300      	str	r3, [sp, #0]
    38f2:	7c3b      	ldrb	r3, [r7, #16]
    38f4:	9301      	str	r3, [sp, #4]
    38f6:	7d3b      	ldrb	r3, [r7, #20]
    38f8:	9302      	str	r3, [sp, #8]
    38fa:	6878      	ldr	r0, [r7, #4]
    38fc:	2300      	movs	r3, #0
    38fe:	f7ff ff7b 	bl	37f8 <mavlink_finalize_message_chan>
    3902:	4603      	mov	r3, r0
c:\users\kruci_000\desktop\university\soc\marsfinder\marsfinder\marsfinder_fw\modules\mavlink/mavlink_helpers.h:108
}
    3904:	4618      	mov	r0, r3
    3906:	3708      	adds	r7, #8
    3908:	46bd      	mov	sp, r7
    390a:	bd80      	pop	{r7, pc}

0000390c <mavlink_msg_to_send_buffer>:
mavlink_msg_to_send_buffer():
c:\users\kruci_000\desktop\university\soc\marsfinder\marsfinder\marsfinder_fw\modules\mavlink/mavlink_helpers.h:180

/**
 * @brief Pack a message to send it over a serial byte stream
 */
MAVLINK_HELPER uint16_t mavlink_msg_to_send_buffer(uint8_t *buffer, const mavlink_message_t *msg)
{
    390c:	b580      	push	{r7, lr}
    390e:	b084      	sub	sp, #16
    3910:	af00      	add	r7, sp, #0
    3912:	6078      	str	r0, [r7, #4]
    3914:	6039      	str	r1, [r7, #0]
c:\users\kruci_000\desktop\university\soc\marsfinder\marsfinder\marsfinder_fw\modules\mavlink/mavlink_helpers.h:181
	memcpy(buffer, (const uint8_t *)&msg->magic, MAVLINK_NUM_HEADER_BYTES + (uint16_t)msg->len);
    3916:	683b      	ldr	r3, [r7, #0]
    3918:	1c9a      	adds	r2, r3, #2
    391a:	683b      	ldr	r3, [r7, #0]
    391c:	78db      	ldrb	r3, [r3, #3]
    391e:	3306      	adds	r3, #6
    3920:	6878      	ldr	r0, [r7, #4]
    3922:	4611      	mov	r1, r2
    3924:	461a      	mov	r2, r3
    3926:	f001 fe39 	bl	559c <memcpy>
c:\users\kruci_000\desktop\university\soc\marsfinder\marsfinder\marsfinder_fw\modules\mavlink/mavlink_helpers.h:183

	uint8_t *ck = buffer + (MAVLINK_NUM_HEADER_BYTES + (uint16_t)msg->len);
    392a:	683b      	ldr	r3, [r7, #0]
    392c:	78db      	ldrb	r3, [r3, #3]
    392e:	3306      	adds	r3, #6
    3930:	461a      	mov	r2, r3
    3932:	687b      	ldr	r3, [r7, #4]
    3934:	4413      	add	r3, r2
    3936:	60fb      	str	r3, [r7, #12]
c:\users\kruci_000\desktop\university\soc\marsfinder\marsfinder\marsfinder_fw\modules\mavlink/mavlink_helpers.h:185

	ck[0] = (uint8_t)(msg->checksum & 0xFF);
    3938:	683b      	ldr	r3, [r7, #0]
    393a:	881b      	ldrh	r3, [r3, #0]
    393c:	b29b      	uxth	r3, r3
    393e:	b2da      	uxtb	r2, r3
    3940:	68fb      	ldr	r3, [r7, #12]
    3942:	701a      	strb	r2, [r3, #0]
c:\users\kruci_000\desktop\university\soc\marsfinder\marsfinder\marsfinder_fw\modules\mavlink/mavlink_helpers.h:186
	ck[1] = (uint8_t)(msg->checksum >> 8);
    3944:	68fb      	ldr	r3, [r7, #12]
    3946:	3301      	adds	r3, #1
    3948:	683a      	ldr	r2, [r7, #0]
    394a:	8812      	ldrh	r2, [r2, #0]
    394c:	b292      	uxth	r2, r2
    394e:	0a12      	lsrs	r2, r2, #8
    3950:	b292      	uxth	r2, r2
    3952:	b2d2      	uxtb	r2, r2
    3954:	701a      	strb	r2, [r3, #0]
c:\users\kruci_000\desktop\university\soc\marsfinder\marsfinder\marsfinder_fw\modules\mavlink/mavlink_helpers.h:188

	return MAVLINK_NUM_NON_PAYLOAD_BYTES + (uint16_t)msg->len;
    3956:	683b      	ldr	r3, [r7, #0]
    3958:	78db      	ldrb	r3, [r3, #3]
    395a:	b29b      	uxth	r3, r3
    395c:	3308      	adds	r3, #8
    395e:	b29b      	uxth	r3, r3
c:\users\kruci_000\desktop\university\soc\marsfinder\marsfinder\marsfinder_fw\modules\mavlink/mavlink_helpers.h:189
}
    3960:	4618      	mov	r0, r3
    3962:	3710      	adds	r7, #16
    3964:	46bd      	mov	sp, r7
    3966:	bd80      	pop	{r7, pc}

00003968 <mavlink_start_checksum>:
mavlink_start_checksum():
c:\users\kruci_000\desktop\university\soc\marsfinder\marsfinder\marsfinder_fw\modules\mavlink/mavlink_helpers.h:202
	int32_t int32;
};


MAVLINK_HELPER void mavlink_start_checksum(mavlink_message_t* msg)
{
    3968:	b580      	push	{r7, lr}
    396a:	b082      	sub	sp, #8
    396c:	af00      	add	r7, sp, #0
    396e:	6078      	str	r0, [r7, #4]
c:\users\kruci_000\desktop\university\soc\marsfinder\marsfinder\marsfinder_fw\modules\mavlink/mavlink_helpers.h:203
	crc_init(&msg->checksum);
    3970:	687b      	ldr	r3, [r7, #4]
    3972:	4618      	mov	r0, r3
    3974:	f7ff fed0 	bl	3718 <crc_init>
c:\users\kruci_000\desktop\university\soc\marsfinder\marsfinder\marsfinder_fw\modules\mavlink/mavlink_helpers.h:204
}
    3978:	3708      	adds	r7, #8
    397a:	46bd      	mov	sp, r7
    397c:	bd80      	pop	{r7, pc}
    397e:	bf00      	nop

00003980 <mavlink_update_checksum>:
mavlink_update_checksum():
c:\users\kruci_000\desktop\university\soc\marsfinder\marsfinder\marsfinder_fw\modules\mavlink/mavlink_helpers.h:207

MAVLINK_HELPER void mavlink_update_checksum(mavlink_message_t* msg, uint8_t c)
{
    3980:	b580      	push	{r7, lr}
    3982:	b082      	sub	sp, #8
    3984:	af00      	add	r7, sp, #0
    3986:	6078      	str	r0, [r7, #4]
    3988:	460b      	mov	r3, r1
    398a:	70fb      	strb	r3, [r7, #3]
c:\users\kruci_000\desktop\university\soc\marsfinder\marsfinder\marsfinder_fw\modules\mavlink/mavlink_helpers.h:208
	crc_accumulate(c, &msg->checksum);
    398c:	687b      	ldr	r3, [r7, #4]
    398e:	78fa      	ldrb	r2, [r7, #3]
    3990:	4610      	mov	r0, r2
    3992:	4619      	mov	r1, r3
    3994:	f7ff fe90 	bl	36b8 <crc_accumulate>
c:\users\kruci_000\desktop\university\soc\marsfinder\marsfinder\marsfinder_fw\modules\mavlink/mavlink_helpers.h:209
}
    3998:	3708      	adds	r7, #8
    399a:	46bd      	mov	sp, r7
    399c:	bd80      	pop	{r7, pc}
    399e:	bf00      	nop

000039a0 <mavlink_frame_char_buffer>:
mavlink_frame_char_buffer():
c:\users\kruci_000\desktop\university\soc\marsfinder\marsfinder\marsfinder_fw\modules\mavlink/mavlink_helpers.h:250
MAVLINK_HELPER uint8_t mavlink_frame_char_buffer(mavlink_message_t* rxmsg,
                                                 mavlink_status_t* status,
                                                 uint8_t c,
                                                 mavlink_message_t* r_message,
                                                 mavlink_status_t* r_mavlink_status)
{
    39a0:	b580      	push	{r7, lr}
    39a2:	b086      	sub	sp, #24
    39a4:	af00      	add	r7, sp, #0
    39a6:	60f8      	str	r0, [r7, #12]
    39a8:	60b9      	str	r1, [r7, #8]
    39aa:	603b      	str	r3, [r7, #0]
    39ac:	4613      	mov	r3, r2
    39ae:	71fb      	strb	r3, [r7, #7]
c:\users\kruci_000\desktop\university\soc\marsfinder\marsfinder\marsfinder_fw\modules\mavlink/mavlink_helpers.h:275
	static const uint8_t mavlink_message_lengths[256] = MAVLINK_MESSAGE_LENGTHS;
#define MAVLINK_MESSAGE_LENGTH(msgid) mavlink_message_lengths[msgid]
#endif
#endif

	int bufferIndex = 0;
    39b0:	2300      	movs	r3, #0
    39b2:	617b      	str	r3, [r7, #20]
c:\users\kruci_000\desktop\university\soc\marsfinder\marsfinder\marsfinder_fw\modules\mavlink/mavlink_helpers.h:277

	status->msg_received = MAVLINK_FRAMING_INCOMPLETE;
    39b4:	68bb      	ldr	r3, [r7, #8]
    39b6:	2200      	movs	r2, #0
    39b8:	701a      	strb	r2, [r3, #0]
c:\users\kruci_000\desktop\university\soc\marsfinder\marsfinder\marsfinder_fw\modules\mavlink/mavlink_helpers.h:279

	switch (status->parse_state)
    39ba:	68bb      	ldr	r3, [r7, #8]
    39bc:	78db      	ldrb	r3, [r3, #3]
    39be:	2b0a      	cmp	r3, #10
    39c0:	f200 80eb 	bhi.w	3b9a <mavlink_frame_char_buffer+0x1fa>
    39c4:	a201      	add	r2, pc, #4	; (adr r2, 39cc <mavlink_frame_char_buffer+0x2c>)
    39c6:	f852 f023 	ldr.w	pc, [r2, r3, lsl #2]
    39ca:	bf00      	nop
    39cc:	000039f9 	.word	0x000039f9
    39d0:	000039f9 	.word	0x000039f9
    39d4:	00003a1b 	.word	0x00003a1b
    39d8:	00003a7f 	.word	0x00003a7f
    39dc:	00003a67 	.word	0x00003a67
    39e0:	00003a97 	.word	0x00003a97
    39e4:	00003aaf 	.word	0x00003aaf
    39e8:	00003ad7 	.word	0x00003ad7
    39ec:	00003b0f 	.word	0x00003b0f
    39f0:	00003b4d 	.word	0x00003b4d
    39f4:	00003b4d 	.word	0x00003b4d
c:\users\kruci_000\desktop\university\soc\marsfinder\marsfinder\marsfinder_fw\modules\mavlink/mavlink_helpers.h:283
	{
	case MAVLINK_PARSE_STATE_UNINIT:
	case MAVLINK_PARSE_STATE_IDLE:
		if (c == MAVLINK_STX)
    39f8:	79fb      	ldrb	r3, [r7, #7]
    39fa:	2bfe      	cmp	r3, #254	; 0xfe
    39fc:	d10c      	bne.n	3a18 <mavlink_frame_char_buffer+0x78>
c:\users\kruci_000\desktop\university\soc\marsfinder\marsfinder\marsfinder_fw\modules\mavlink/mavlink_helpers.h:285
		{
			status->parse_state = MAVLINK_PARSE_STATE_GOT_STX;
    39fe:	68bb      	ldr	r3, [r7, #8]
    3a00:	2202      	movs	r2, #2
    3a02:	70da      	strb	r2, [r3, #3]
c:\users\kruci_000\desktop\university\soc\marsfinder\marsfinder\marsfinder_fw\modules\mavlink/mavlink_helpers.h:286
			rxmsg->len = 0;
    3a04:	68fb      	ldr	r3, [r7, #12]
    3a06:	2200      	movs	r2, #0
    3a08:	70da      	strb	r2, [r3, #3]
c:\users\kruci_000\desktop\university\soc\marsfinder\marsfinder\marsfinder_fw\modules\mavlink/mavlink_helpers.h:287
			rxmsg->magic = c;
    3a0a:	68fb      	ldr	r3, [r7, #12]
    3a0c:	79fa      	ldrb	r2, [r7, #7]
    3a0e:	709a      	strb	r2, [r3, #2]
c:\users\kruci_000\desktop\university\soc\marsfinder\marsfinder\marsfinder_fw\modules\mavlink/mavlink_helpers.h:288
			mavlink_start_checksum(rxmsg);
    3a10:	68f8      	ldr	r0, [r7, #12]
    3a12:	f7ff ffa9 	bl	3968 <mavlink_start_checksum>
c:\users\kruci_000\desktop\university\soc\marsfinder\marsfinder\marsfinder_fw\modules\mavlink/mavlink_helpers.h:290
		}
		break;
    3a16:	e0c0      	b.n	3b9a <mavlink_frame_char_buffer+0x1fa>
    3a18:	e0bf      	b.n	3b9a <mavlink_frame_char_buffer+0x1fa>
c:\users\kruci_000\desktop\university\soc\marsfinder\marsfinder\marsfinder_fw\modules\mavlink/mavlink_helpers.h:293

	case MAVLINK_PARSE_STATE_GOT_STX:
			if (status->msg_received
    3a1a:	68bb      	ldr	r3, [r7, #8]
    3a1c:	781b      	ldrb	r3, [r3, #0]
    3a1e:	2b00      	cmp	r3, #0
    3a20:	d012      	beq.n	3a48 <mavlink_frame_char_buffer+0xa8>
c:\users\kruci_000\desktop\university\soc\marsfinder\marsfinder\marsfinder_fw\modules\mavlink/mavlink_helpers.h:301
#if (MAVLINK_MAX_PAYLOAD_LEN < 255)
				|| c > MAVLINK_MAX_PAYLOAD_LEN
#endif
				)
		{
			status->buffer_overrun++;
    3a22:	68bb      	ldr	r3, [r7, #8]
    3a24:	785b      	ldrb	r3, [r3, #1]
    3a26:	3301      	adds	r3, #1
    3a28:	b2da      	uxtb	r2, r3
    3a2a:	68bb      	ldr	r3, [r7, #8]
    3a2c:	705a      	strb	r2, [r3, #1]
c:\users\kruci_000\desktop\university\soc\marsfinder\marsfinder\marsfinder_fw\modules\mavlink/mavlink_helpers.h:302
			status->parse_error++;
    3a2e:	68bb      	ldr	r3, [r7, #8]
    3a30:	789b      	ldrb	r3, [r3, #2]
    3a32:	3301      	adds	r3, #1
    3a34:	b2da      	uxtb	r2, r3
    3a36:	68bb      	ldr	r3, [r7, #8]
    3a38:	709a      	strb	r2, [r3, #2]
c:\users\kruci_000\desktop\university\soc\marsfinder\marsfinder\marsfinder_fw\modules\mavlink/mavlink_helpers.h:303
			status->msg_received = 0;
    3a3a:	68bb      	ldr	r3, [r7, #8]
    3a3c:	2200      	movs	r2, #0
    3a3e:	701a      	strb	r2, [r3, #0]
c:\users\kruci_000\desktop\university\soc\marsfinder\marsfinder\marsfinder_fw\modules\mavlink/mavlink_helpers.h:304
			status->parse_state = MAVLINK_PARSE_STATE_IDLE;
    3a40:	68bb      	ldr	r3, [r7, #8]
    3a42:	2201      	movs	r2, #1
    3a44:	70da      	strb	r2, [r3, #3]
c:\users\kruci_000\desktop\university\soc\marsfinder\marsfinder\marsfinder_fw\modules\mavlink/mavlink_helpers.h:314
			rxmsg->len = c;
			status->packet_idx = 0;
			mavlink_update_checksum(rxmsg, c);
			status->parse_state = MAVLINK_PARSE_STATE_GOT_LENGTH;
		}
		break;
    3a46:	e0a8      	b.n	3b9a <mavlink_frame_char_buffer+0x1fa>
c:\users\kruci_000\desktop\university\soc\marsfinder\marsfinder\marsfinder_fw\modules\mavlink/mavlink_helpers.h:309
			status->parse_state = MAVLINK_PARSE_STATE_IDLE;
		}
		else
		{
			// NOT counting STX, LENGTH, SEQ, SYSID, COMPID, MSGID, CRC1 and CRC2
			rxmsg->len = c;
    3a48:	68fb      	ldr	r3, [r7, #12]
    3a4a:	79fa      	ldrb	r2, [r7, #7]
    3a4c:	70da      	strb	r2, [r3, #3]
c:\users\kruci_000\desktop\university\soc\marsfinder\marsfinder\marsfinder_fw\modules\mavlink/mavlink_helpers.h:310
			status->packet_idx = 0;
    3a4e:	68bb      	ldr	r3, [r7, #8]
    3a50:	2200      	movs	r2, #0
    3a52:	711a      	strb	r2, [r3, #4]
c:\users\kruci_000\desktop\university\soc\marsfinder\marsfinder\marsfinder_fw\modules\mavlink/mavlink_helpers.h:311
			mavlink_update_checksum(rxmsg, c);
    3a54:	79fb      	ldrb	r3, [r7, #7]
    3a56:	68f8      	ldr	r0, [r7, #12]
    3a58:	4619      	mov	r1, r3
    3a5a:	f7ff ff91 	bl	3980 <mavlink_update_checksum>
c:\users\kruci_000\desktop\university\soc\marsfinder\marsfinder\marsfinder_fw\modules\mavlink/mavlink_helpers.h:312
			status->parse_state = MAVLINK_PARSE_STATE_GOT_LENGTH;
    3a5e:	68bb      	ldr	r3, [r7, #8]
    3a60:	2204      	movs	r2, #4
    3a62:	70da      	strb	r2, [r3, #3]
c:\users\kruci_000\desktop\university\soc\marsfinder\marsfinder\marsfinder_fw\modules\mavlink/mavlink_helpers.h:314
		}
		break;
    3a64:	e099      	b.n	3b9a <mavlink_frame_char_buffer+0x1fa>
c:\users\kruci_000\desktop\university\soc\marsfinder\marsfinder\marsfinder_fw\modules\mavlink/mavlink_helpers.h:317

	case MAVLINK_PARSE_STATE_GOT_LENGTH:
		rxmsg->seq = c;
    3a66:	68fb      	ldr	r3, [r7, #12]
    3a68:	79fa      	ldrb	r2, [r7, #7]
    3a6a:	711a      	strb	r2, [r3, #4]
c:\users\kruci_000\desktop\university\soc\marsfinder\marsfinder\marsfinder_fw\modules\mavlink/mavlink_helpers.h:318
		mavlink_update_checksum(rxmsg, c);
    3a6c:	79fb      	ldrb	r3, [r7, #7]
    3a6e:	68f8      	ldr	r0, [r7, #12]
    3a70:	4619      	mov	r1, r3
    3a72:	f7ff ff85 	bl	3980 <mavlink_update_checksum>
c:\users\kruci_000\desktop\university\soc\marsfinder\marsfinder\marsfinder_fw\modules\mavlink/mavlink_helpers.h:319
		status->parse_state = MAVLINK_PARSE_STATE_GOT_SEQ;
    3a76:	68bb      	ldr	r3, [r7, #8]
    3a78:	2203      	movs	r2, #3
    3a7a:	70da      	strb	r2, [r3, #3]
c:\users\kruci_000\desktop\university\soc\marsfinder\marsfinder\marsfinder_fw\modules\mavlink/mavlink_helpers.h:320
		break;
    3a7c:	e08d      	b.n	3b9a <mavlink_frame_char_buffer+0x1fa>
c:\users\kruci_000\desktop\university\soc\marsfinder\marsfinder\marsfinder_fw\modules\mavlink/mavlink_helpers.h:323

	case MAVLINK_PARSE_STATE_GOT_SEQ:
		rxmsg->sysid = c;
    3a7e:	68fb      	ldr	r3, [r7, #12]
    3a80:	79fa      	ldrb	r2, [r7, #7]
    3a82:	715a      	strb	r2, [r3, #5]
c:\users\kruci_000\desktop\university\soc\marsfinder\marsfinder\marsfinder_fw\modules\mavlink/mavlink_helpers.h:324
		mavlink_update_checksum(rxmsg, c);
    3a84:	79fb      	ldrb	r3, [r7, #7]
    3a86:	68f8      	ldr	r0, [r7, #12]
    3a88:	4619      	mov	r1, r3
    3a8a:	f7ff ff79 	bl	3980 <mavlink_update_checksum>
c:\users\kruci_000\desktop\university\soc\marsfinder\marsfinder\marsfinder_fw\modules\mavlink/mavlink_helpers.h:325
		status->parse_state = MAVLINK_PARSE_STATE_GOT_SYSID;
    3a8e:	68bb      	ldr	r3, [r7, #8]
    3a90:	2205      	movs	r2, #5
    3a92:	70da      	strb	r2, [r3, #3]
c:\users\kruci_000\desktop\university\soc\marsfinder\marsfinder\marsfinder_fw\modules\mavlink/mavlink_helpers.h:326
		break;
    3a94:	e081      	b.n	3b9a <mavlink_frame_char_buffer+0x1fa>
c:\users\kruci_000\desktop\university\soc\marsfinder\marsfinder\marsfinder_fw\modules\mavlink/mavlink_helpers.h:329

	case MAVLINK_PARSE_STATE_GOT_SYSID:
		rxmsg->compid = c;
    3a96:	68fb      	ldr	r3, [r7, #12]
    3a98:	79fa      	ldrb	r2, [r7, #7]
    3a9a:	719a      	strb	r2, [r3, #6]
c:\users\kruci_000\desktop\university\soc\marsfinder\marsfinder\marsfinder_fw\modules\mavlink/mavlink_helpers.h:330
		mavlink_update_checksum(rxmsg, c);
    3a9c:	79fb      	ldrb	r3, [r7, #7]
    3a9e:	68f8      	ldr	r0, [r7, #12]
    3aa0:	4619      	mov	r1, r3
    3aa2:	f7ff ff6d 	bl	3980 <mavlink_update_checksum>
c:\users\kruci_000\desktop\university\soc\marsfinder\marsfinder\marsfinder_fw\modules\mavlink/mavlink_helpers.h:331
		status->parse_state = MAVLINK_PARSE_STATE_GOT_COMPID;
    3aa6:	68bb      	ldr	r3, [r7, #8]
    3aa8:	2206      	movs	r2, #6
    3aaa:	70da      	strb	r2, [r3, #3]
c:\users\kruci_000\desktop\university\soc\marsfinder\marsfinder\marsfinder_fw\modules\mavlink/mavlink_helpers.h:332
		break;
    3aac:	e075      	b.n	3b9a <mavlink_frame_char_buffer+0x1fa>
c:\users\kruci_000\desktop\university\soc\marsfinder\marsfinder\marsfinder_fw\modules\mavlink/mavlink_helpers.h:343
			status->parse_error++;
			status->parse_state = MAVLINK_PARSE_STATE_IDLE;
			break;
	    }
#endif
		rxmsg->msgid = c;
    3aae:	68fb      	ldr	r3, [r7, #12]
    3ab0:	79fa      	ldrb	r2, [r7, #7]
    3ab2:	71da      	strb	r2, [r3, #7]
c:\users\kruci_000\desktop\university\soc\marsfinder\marsfinder\marsfinder_fw\modules\mavlink/mavlink_helpers.h:344
		mavlink_update_checksum(rxmsg, c);
    3ab4:	79fb      	ldrb	r3, [r7, #7]
    3ab6:	68f8      	ldr	r0, [r7, #12]
    3ab8:	4619      	mov	r1, r3
    3aba:	f7ff ff61 	bl	3980 <mavlink_update_checksum>
c:\users\kruci_000\desktop\university\soc\marsfinder\marsfinder\marsfinder_fw\modules\mavlink/mavlink_helpers.h:345
		if (rxmsg->len == 0)
    3abe:	68fb      	ldr	r3, [r7, #12]
    3ac0:	78db      	ldrb	r3, [r3, #3]
    3ac2:	2b00      	cmp	r3, #0
    3ac4:	d103      	bne.n	3ace <mavlink_frame_char_buffer+0x12e>
c:\users\kruci_000\desktop\university\soc\marsfinder\marsfinder\marsfinder_fw\modules\mavlink/mavlink_helpers.h:347
		{
			status->parse_state = MAVLINK_PARSE_STATE_GOT_PAYLOAD;
    3ac6:	68bb      	ldr	r3, [r7, #8]
    3ac8:	2208      	movs	r2, #8
    3aca:	70da      	strb	r2, [r3, #3]
c:\users\kruci_000\desktop\university\soc\marsfinder\marsfinder\marsfinder_fw\modules\mavlink/mavlink_helpers.h:353
		}
		else
		{
			status->parse_state = MAVLINK_PARSE_STATE_GOT_MSGID;
		}
		break;
    3acc:	e065      	b.n	3b9a <mavlink_frame_char_buffer+0x1fa>
c:\users\kruci_000\desktop\university\soc\marsfinder\marsfinder\marsfinder_fw\modules\mavlink/mavlink_helpers.h:351
		{
			status->parse_state = MAVLINK_PARSE_STATE_GOT_PAYLOAD;
		}
		else
		{
			status->parse_state = MAVLINK_PARSE_STATE_GOT_MSGID;
    3ace:	68bb      	ldr	r3, [r7, #8]
    3ad0:	2207      	movs	r2, #7
    3ad2:	70da      	strb	r2, [r3, #3]
c:\users\kruci_000\desktop\university\soc\marsfinder\marsfinder\marsfinder_fw\modules\mavlink/mavlink_helpers.h:353
		}
		break;
    3ad4:	e061      	b.n	3b9a <mavlink_frame_char_buffer+0x1fa>
c:\users\kruci_000\desktop\university\soc\marsfinder\marsfinder\marsfinder_fw\modules\mavlink/mavlink_helpers.h:356

	case MAVLINK_PARSE_STATE_GOT_MSGID:
		_MAV_PAYLOAD_NON_CONST(rxmsg)[status->packet_idx++] = (char)c;
    3ad6:	68fb      	ldr	r3, [r7, #12]
    3ad8:	f103 0208 	add.w	r2, r3, #8
    3adc:	68bb      	ldr	r3, [r7, #8]
    3ade:	791b      	ldrb	r3, [r3, #4]
    3ae0:	1c59      	adds	r1, r3, #1
    3ae2:	b2c8      	uxtb	r0, r1
    3ae4:	68b9      	ldr	r1, [r7, #8]
    3ae6:	7108      	strb	r0, [r1, #4]
    3ae8:	4413      	add	r3, r2
    3aea:	79fa      	ldrb	r2, [r7, #7]
    3aec:	701a      	strb	r2, [r3, #0]
c:\users\kruci_000\desktop\university\soc\marsfinder\marsfinder\marsfinder_fw\modules\mavlink/mavlink_helpers.h:357
		mavlink_update_checksum(rxmsg, c);
    3aee:	79fb      	ldrb	r3, [r7, #7]
    3af0:	68f8      	ldr	r0, [r7, #12]
    3af2:	4619      	mov	r1, r3
    3af4:	f7ff ff44 	bl	3980 <mavlink_update_checksum>
c:\users\kruci_000\desktop\university\soc\marsfinder\marsfinder\marsfinder_fw\modules\mavlink/mavlink_helpers.h:358
		if (status->packet_idx == rxmsg->len)
    3af8:	68bb      	ldr	r3, [r7, #8]
    3afa:	791a      	ldrb	r2, [r3, #4]
    3afc:	68fb      	ldr	r3, [r7, #12]
    3afe:	78db      	ldrb	r3, [r3, #3]
    3b00:	429a      	cmp	r2, r3
    3b02:	d103      	bne.n	3b0c <mavlink_frame_char_buffer+0x16c>
c:\users\kruci_000\desktop\university\soc\marsfinder\marsfinder\marsfinder_fw\modules\mavlink/mavlink_helpers.h:360
		{
			status->parse_state = MAVLINK_PARSE_STATE_GOT_PAYLOAD;
    3b04:	68bb      	ldr	r3, [r7, #8]
    3b06:	2208      	movs	r2, #8
    3b08:	70da      	strb	r2, [r3, #3]
c:\users\kruci_000\desktop\university\soc\marsfinder\marsfinder\marsfinder_fw\modules\mavlink/mavlink_helpers.h:362
		}
		break;
    3b0a:	e046      	b.n	3b9a <mavlink_frame_char_buffer+0x1fa>
    3b0c:	e045      	b.n	3b9a <mavlink_frame_char_buffer+0x1fa>
c:\users\kruci_000\desktop\university\soc\marsfinder\marsfinder\marsfinder_fw\modules\mavlink/mavlink_helpers.h:366

	case MAVLINK_PARSE_STATE_GOT_PAYLOAD:
#if MAVLINK_CRC_EXTRA
		mavlink_update_checksum(rxmsg, MAVLINK_MESSAGE_CRC(rxmsg->msgid));
    3b0e:	68fb      	ldr	r3, [r7, #12]
    3b10:	79db      	ldrb	r3, [r3, #7]
    3b12:	461a      	mov	r2, r3
    3b14:	4b4d      	ldr	r3, [pc, #308]	; (3c4c <mavlink_frame_char_buffer+0x2ac>)
    3b16:	5c9b      	ldrb	r3, [r3, r2]
    3b18:	68f8      	ldr	r0, [r7, #12]
    3b1a:	4619      	mov	r1, r3
    3b1c:	f7ff ff30 	bl	3980 <mavlink_update_checksum>
c:\users\kruci_000\desktop\university\soc\marsfinder\marsfinder\marsfinder_fw\modules\mavlink/mavlink_helpers.h:368
#endif
		if (c != (rxmsg->checksum & 0xFF)) {
    3b20:	79fa      	ldrb	r2, [r7, #7]
    3b22:	68fb      	ldr	r3, [r7, #12]
    3b24:	881b      	ldrh	r3, [r3, #0]
    3b26:	b29b      	uxth	r3, r3
    3b28:	b2db      	uxtb	r3, r3
    3b2a:	429a      	cmp	r2, r3
    3b2c:	d003      	beq.n	3b36 <mavlink_frame_char_buffer+0x196>
c:\users\kruci_000\desktop\university\soc\marsfinder\marsfinder\marsfinder_fw\modules\mavlink/mavlink_helpers.h:369
			status->parse_state = MAVLINK_PARSE_STATE_GOT_BAD_CRC1;
    3b2e:	68bb      	ldr	r3, [r7, #8]
    3b30:	220a      	movs	r2, #10
    3b32:	70da      	strb	r2, [r3, #3]
    3b34:	e002      	b.n	3b3c <mavlink_frame_char_buffer+0x19c>
c:\users\kruci_000\desktop\university\soc\marsfinder\marsfinder\marsfinder_fw\modules\mavlink/mavlink_helpers.h:371
		} else {
			status->parse_state = MAVLINK_PARSE_STATE_GOT_CRC1;
    3b36:	68bb      	ldr	r3, [r7, #8]
    3b38:	2209      	movs	r2, #9
    3b3a:	70da      	strb	r2, [r3, #3]
c:\users\kruci_000\desktop\university\soc\marsfinder\marsfinder\marsfinder_fw\modules\mavlink/mavlink_helpers.h:373
		}
                _MAV_PAYLOAD_NON_CONST(rxmsg)[status->packet_idx] = (char)c;
    3b3c:	68fb      	ldr	r3, [r7, #12]
    3b3e:	3308      	adds	r3, #8
    3b40:	68ba      	ldr	r2, [r7, #8]
    3b42:	7912      	ldrb	r2, [r2, #4]
    3b44:	4413      	add	r3, r2
    3b46:	79fa      	ldrb	r2, [r7, #7]
    3b48:	701a      	strb	r2, [r3, #0]
c:\users\kruci_000\desktop\university\soc\marsfinder\marsfinder\marsfinder_fw\modules\mavlink/mavlink_helpers.h:374
		break;
    3b4a:	e026      	b.n	3b9a <mavlink_frame_char_buffer+0x1fa>
c:\users\kruci_000\desktop\university\soc\marsfinder\marsfinder\marsfinder_fw\modules\mavlink/mavlink_helpers.h:378

	case MAVLINK_PARSE_STATE_GOT_CRC1:
	case MAVLINK_PARSE_STATE_GOT_BAD_CRC1:
		if (status->parse_state == MAVLINK_PARSE_STATE_GOT_BAD_CRC1 || c != (rxmsg->checksum >> 8)) {
    3b4c:	68bb      	ldr	r3, [r7, #8]
    3b4e:	78db      	ldrb	r3, [r3, #3]
    3b50:	2b0a      	cmp	r3, #10
    3b52:	d008      	beq.n	3b66 <mavlink_frame_char_buffer+0x1c6>
c:\users\kruci_000\desktop\university\soc\marsfinder\marsfinder\marsfinder_fw\modules\mavlink/mavlink_helpers.h:378 (discriminator 1)
    3b54:	79fb      	ldrb	r3, [r7, #7]
    3b56:	b29a      	uxth	r2, r3
    3b58:	68fb      	ldr	r3, [r7, #12]
    3b5a:	881b      	ldrh	r3, [r3, #0]
    3b5c:	b29b      	uxth	r3, r3
    3b5e:	0a1b      	lsrs	r3, r3, #8
    3b60:	b29b      	uxth	r3, r3
    3b62:	429a      	cmp	r2, r3
    3b64:	d003      	beq.n	3b6e <mavlink_frame_char_buffer+0x1ce>
c:\users\kruci_000\desktop\university\soc\marsfinder\marsfinder\marsfinder_fw\modules\mavlink/mavlink_helpers.h:380
			// got a bad CRC message
			status->msg_received = MAVLINK_FRAMING_BAD_CRC;
    3b66:	68bb      	ldr	r3, [r7, #8]
    3b68:	2202      	movs	r2, #2
    3b6a:	701a      	strb	r2, [r3, #0]
    3b6c:	e002      	b.n	3b74 <mavlink_frame_char_buffer+0x1d4>
c:\users\kruci_000\desktop\university\soc\marsfinder\marsfinder\marsfinder_fw\modules\mavlink/mavlink_helpers.h:383
		} else {
			// Successfully got message
			status->msg_received = MAVLINK_FRAMING_OK;
    3b6e:	68bb      	ldr	r3, [r7, #8]
    3b70:	2201      	movs	r2, #1
    3b72:	701a      	strb	r2, [r3, #0]
c:\users\kruci_000\desktop\university\soc\marsfinder\marsfinder\marsfinder_fw\modules\mavlink/mavlink_helpers.h:385
                }
                status->parse_state = MAVLINK_PARSE_STATE_IDLE;
    3b74:	68bb      	ldr	r3, [r7, #8]
    3b76:	2201      	movs	r2, #1
    3b78:	70da      	strb	r2, [r3, #3]
c:\users\kruci_000\desktop\university\soc\marsfinder\marsfinder\marsfinder_fw\modules\mavlink/mavlink_helpers.h:386
                _MAV_PAYLOAD_NON_CONST(rxmsg)[status->packet_idx+1] = (char)c;
    3b7a:	68fb      	ldr	r3, [r7, #12]
    3b7c:	f103 0208 	add.w	r2, r3, #8
    3b80:	68bb      	ldr	r3, [r7, #8]
    3b82:	791b      	ldrb	r3, [r3, #4]
    3b84:	3301      	adds	r3, #1
    3b86:	4413      	add	r3, r2
    3b88:	79fa      	ldrb	r2, [r7, #7]
    3b8a:	701a      	strb	r2, [r3, #0]
c:\users\kruci_000\desktop\university\soc\marsfinder\marsfinder\marsfinder_fw\modules\mavlink/mavlink_helpers.h:387
                memcpy(r_message, rxmsg, sizeof(mavlink_message_t));
    3b8c:	6838      	ldr	r0, [r7, #0]
    3b8e:	68f9      	ldr	r1, [r7, #12]
    3b90:	f44f 7288 	mov.w	r2, #272	; 0x110
    3b94:	f001 fd02 	bl	559c <memcpy>
c:\users\kruci_000\desktop\university\soc\marsfinder\marsfinder\marsfinder_fw\modules\mavlink/mavlink_helpers.h:388
		break;
    3b98:	bf00      	nop
c:\users\kruci_000\desktop\university\soc\marsfinder\marsfinder\marsfinder_fw\modules\mavlink/mavlink_helpers.h:391
	}

	bufferIndex++;
    3b9a:	697b      	ldr	r3, [r7, #20]
    3b9c:	3301      	adds	r3, #1
    3b9e:	617b      	str	r3, [r7, #20]
c:\users\kruci_000\desktop\university\soc\marsfinder\marsfinder\marsfinder_fw\modules\mavlink/mavlink_helpers.h:393
	// If a message has been sucessfully decoded, check index
	if (status->msg_received == MAVLINK_FRAMING_OK)
    3ba0:	68bb      	ldr	r3, [r7, #8]
    3ba2:	781b      	ldrb	r3, [r3, #0]
    3ba4:	2b01      	cmp	r3, #1
    3ba6:	d110      	bne.n	3bca <mavlink_frame_char_buffer+0x22a>
c:\users\kruci_000\desktop\university\soc\marsfinder\marsfinder\marsfinder_fw\modules\mavlink/mavlink_helpers.h:400
		//while(status->current_seq != rxmsg->seq)
		//{
		//	status->packet_rx_drop_count++;
		//               status->current_seq++;
		//}
		status->current_rx_seq = rxmsg->seq;
    3ba8:	68fb      	ldr	r3, [r7, #12]
    3baa:	791a      	ldrb	r2, [r3, #4]
    3bac:	68bb      	ldr	r3, [r7, #8]
    3bae:	715a      	strb	r2, [r3, #5]
c:\users\kruci_000\desktop\university\soc\marsfinder\marsfinder\marsfinder_fw\modules\mavlink/mavlink_helpers.h:402
		// Initial condition: If no packet has been received so far, drop count is undefined
		if (status->packet_rx_success_count == 0) status->packet_rx_drop_count = 0;
    3bb0:	68bb      	ldr	r3, [r7, #8]
    3bb2:	891b      	ldrh	r3, [r3, #8]
    3bb4:	2b00      	cmp	r3, #0
    3bb6:	d102      	bne.n	3bbe <mavlink_frame_char_buffer+0x21e>
c:\users\kruci_000\desktop\university\soc\marsfinder\marsfinder\marsfinder_fw\modules\mavlink/mavlink_helpers.h:402 (discriminator 1)
    3bb8:	68bb      	ldr	r3, [r7, #8]
    3bba:	2200      	movs	r2, #0
    3bbc:	815a      	strh	r2, [r3, #10]
c:\users\kruci_000\desktop\university\soc\marsfinder\marsfinder\marsfinder_fw\modules\mavlink/mavlink_helpers.h:404
		// Count this packet as received
		status->packet_rx_success_count++;
    3bbe:	68bb      	ldr	r3, [r7, #8]
    3bc0:	891b      	ldrh	r3, [r3, #8]
    3bc2:	3301      	adds	r3, #1
    3bc4:	b29a      	uxth	r2, r3
    3bc6:	68bb      	ldr	r3, [r7, #8]
    3bc8:	811a      	strh	r2, [r3, #8]
c:\users\kruci_000\desktop\university\soc\marsfinder\marsfinder\marsfinder_fw\modules\mavlink/mavlink_helpers.h:407
	}

	r_message->len = rxmsg->len; // Provide visibility on how far we are into current msg
    3bca:	68fb      	ldr	r3, [r7, #12]
    3bcc:	78da      	ldrb	r2, [r3, #3]
    3bce:	683b      	ldr	r3, [r7, #0]
    3bd0:	70da      	strb	r2, [r3, #3]
c:\users\kruci_000\desktop\university\soc\marsfinder\marsfinder\marsfinder_fw\modules\mavlink/mavlink_helpers.h:408
	r_mavlink_status->parse_state = status->parse_state;
    3bd2:	68bb      	ldr	r3, [r7, #8]
    3bd4:	78da      	ldrb	r2, [r3, #3]
    3bd6:	6a3b      	ldr	r3, [r7, #32]
    3bd8:	70da      	strb	r2, [r3, #3]
c:\users\kruci_000\desktop\university\soc\marsfinder\marsfinder\marsfinder_fw\modules\mavlink/mavlink_helpers.h:409
	r_mavlink_status->packet_idx = status->packet_idx;
    3bda:	68bb      	ldr	r3, [r7, #8]
    3bdc:	791a      	ldrb	r2, [r3, #4]
    3bde:	6a3b      	ldr	r3, [r7, #32]
    3be0:	711a      	strb	r2, [r3, #4]
c:\users\kruci_000\desktop\university\soc\marsfinder\marsfinder\marsfinder_fw\modules\mavlink/mavlink_helpers.h:410
	r_mavlink_status->current_rx_seq = status->current_rx_seq+1;
    3be2:	68bb      	ldr	r3, [r7, #8]
    3be4:	795b      	ldrb	r3, [r3, #5]
    3be6:	3301      	adds	r3, #1
    3be8:	b2da      	uxtb	r2, r3
    3bea:	6a3b      	ldr	r3, [r7, #32]
    3bec:	715a      	strb	r2, [r3, #5]
c:\users\kruci_000\desktop\university\soc\marsfinder\marsfinder\marsfinder_fw\modules\mavlink/mavlink_helpers.h:411
	r_mavlink_status->packet_rx_success_count = status->packet_rx_success_count;
    3bee:	68bb      	ldr	r3, [r7, #8]
    3bf0:	891a      	ldrh	r2, [r3, #8]
    3bf2:	6a3b      	ldr	r3, [r7, #32]
    3bf4:	811a      	strh	r2, [r3, #8]
c:\users\kruci_000\desktop\university\soc\marsfinder\marsfinder\marsfinder_fw\modules\mavlink/mavlink_helpers.h:412
	r_mavlink_status->packet_rx_drop_count = status->parse_error;
    3bf6:	68bb      	ldr	r3, [r7, #8]
    3bf8:	789b      	ldrb	r3, [r3, #2]
    3bfa:	b29a      	uxth	r2, r3
    3bfc:	6a3b      	ldr	r3, [r7, #32]
    3bfe:	815a      	strh	r2, [r3, #10]
c:\users\kruci_000\desktop\university\soc\marsfinder\marsfinder\marsfinder_fw\modules\mavlink/mavlink_helpers.h:413
	status->parse_error = 0;
    3c00:	68bb      	ldr	r3, [r7, #8]
    3c02:	2200      	movs	r2, #0
    3c04:	709a      	strb	r2, [r3, #2]
c:\users\kruci_000\desktop\university\soc\marsfinder\marsfinder\marsfinder_fw\modules\mavlink/mavlink_helpers.h:415

	if (status->msg_received == MAVLINK_FRAMING_BAD_CRC) {
    3c06:	68bb      	ldr	r3, [r7, #8]
    3c08:	781b      	ldrb	r3, [r3, #0]
    3c0a:	2b02      	cmp	r3, #2
    3c0c:	d118      	bne.n	3c40 <mavlink_frame_char_buffer+0x2a0>
c:\users\kruci_000\desktop\university\soc\marsfinder\marsfinder\marsfinder_fw\modules\mavlink/mavlink_helpers.h:423
		  msg CRC with the one on the wire so that if the
		  caller decides to forward the message anyway that
		  mavlink_msg_to_send_buffer() won't overwrite the
		  checksum
		 */
		r_message->checksum = _MAV_PAYLOAD(rxmsg)[status->packet_idx] | (_MAV_PAYLOAD(rxmsg)[status->packet_idx+1]<<8);
    3c0e:	68fb      	ldr	r3, [r7, #12]
    3c10:	3308      	adds	r3, #8
    3c12:	68ba      	ldr	r2, [r7, #8]
    3c14:	7912      	ldrb	r2, [r2, #4]
    3c16:	4413      	add	r3, r2
    3c18:	781b      	ldrb	r3, [r3, #0]
    3c1a:	b25b      	sxtb	r3, r3
    3c1c:	b299      	uxth	r1, r3
    3c1e:	68fb      	ldr	r3, [r7, #12]
    3c20:	f103 0208 	add.w	r2, r3, #8
    3c24:	68bb      	ldr	r3, [r7, #8]
    3c26:	791b      	ldrb	r3, [r3, #4]
    3c28:	3301      	adds	r3, #1
    3c2a:	4413      	add	r3, r2
    3c2c:	781b      	ldrb	r3, [r3, #0]
    3c2e:	b25b      	sxtb	r3, r3
    3c30:	021b      	lsls	r3, r3, #8
    3c32:	b29b      	uxth	r3, r3
    3c34:	460a      	mov	r2, r1
    3c36:	4313      	orrs	r3, r2
    3c38:	b29b      	uxth	r3, r3
    3c3a:	b29a      	uxth	r2, r3
    3c3c:	683b      	ldr	r3, [r7, #0]
    3c3e:	801a      	strh	r2, [r3, #0]
c:\users\kruci_000\desktop\university\soc\marsfinder\marsfinder\marsfinder_fw\modules\mavlink/mavlink_helpers.h:426
	}

	return status->msg_received;
    3c40:	68bb      	ldr	r3, [r7, #8]
    3c42:	781b      	ldrb	r3, [r3, #0]
c:\users\kruci_000\desktop\university\soc\marsfinder\marsfinder\marsfinder_fw\modules\mavlink/mavlink_helpers.h:427
}
    3c44:	4618      	mov	r0, r3
    3c46:	3718      	adds	r7, #24
    3c48:	46bd      	mov	sp, r7
    3c4a:	bd80      	pop	{r7, pc}
    3c4c:	000055e4 	.word	0x000055e4

00003c50 <mavlink_frame_char>:
mavlink_frame_char():
c:\users\kruci_000\desktop\university\soc\marsfinder\marsfinder\marsfinder_fw\modules\mavlink/mavlink_helpers.h:471
 *
 *
 * @endcode
 */
MAVLINK_HELPER uint8_t mavlink_frame_char(uint8_t chan, uint8_t c, mavlink_message_t* r_message, mavlink_status_t* r_mavlink_status)
{
    3c50:	b590      	push	{r4, r7, lr}
    3c52:	b087      	sub	sp, #28
    3c54:	af02      	add	r7, sp, #8
    3c56:	60ba      	str	r2, [r7, #8]
    3c58:	607b      	str	r3, [r7, #4]
    3c5a:	4603      	mov	r3, r0
    3c5c:	73fb      	strb	r3, [r7, #15]
    3c5e:	460b      	mov	r3, r1
    3c60:	73bb      	strb	r3, [r7, #14]
c:\users\kruci_000\desktop\university\soc\marsfinder\marsfinder\marsfinder_fw\modules\mavlink/mavlink_helpers.h:472
	return mavlink_frame_char_buffer(mavlink_get_channel_buffer(chan),
    3c62:	7bfb      	ldrb	r3, [r7, #15]
    3c64:	4618      	mov	r0, r3
    3c66:	f7ff fdb3 	bl	37d0 <mavlink_get_channel_buffer>
    3c6a:	4604      	mov	r4, r0
    3c6c:	7bfb      	ldrb	r3, [r7, #15]
    3c6e:	4618      	mov	r0, r3
    3c70:	f7ff fd9a 	bl	37a8 <mavlink_get_channel_status>
    3c74:	4601      	mov	r1, r0
    3c76:	7bba      	ldrb	r2, [r7, #14]
    3c78:	687b      	ldr	r3, [r7, #4]
    3c7a:	9300      	str	r3, [sp, #0]
    3c7c:	4620      	mov	r0, r4
    3c7e:	68bb      	ldr	r3, [r7, #8]
    3c80:	f7ff fe8e 	bl	39a0 <mavlink_frame_char_buffer>
    3c84:	4603      	mov	r3, r0
c:\users\kruci_000\desktop\university\soc\marsfinder\marsfinder\marsfinder_fw\modules\mavlink/mavlink_helpers.h:477
					 mavlink_get_channel_status(chan),
					 c,
					 r_message,
					 r_mavlink_status);
}
    3c86:	4618      	mov	r0, r3
    3c88:	3714      	adds	r7, #20
    3c8a:	46bd      	mov	sp, r7
    3c8c:	bd90      	pop	{r4, r7, pc}
    3c8e:	bf00      	nop

00003c90 <mavlink_parse_char>:
mavlink_parse_char():
c:\users\kruci_000\desktop\university\soc\marsfinder\marsfinder\marsfinder_fw\modules\mavlink/mavlink_helpers.h:521
 *
 *
 * @endcode
 */
MAVLINK_HELPER uint8_t mavlink_parse_char(uint8_t chan, uint8_t c, mavlink_message_t* r_message, mavlink_status_t* r_mavlink_status)
{
    3c90:	b580      	push	{r7, lr}
    3c92:	b088      	sub	sp, #32
    3c94:	af00      	add	r7, sp, #0
    3c96:	60ba      	str	r2, [r7, #8]
    3c98:	607b      	str	r3, [r7, #4]
    3c9a:	4603      	mov	r3, r0
    3c9c:	73fb      	strb	r3, [r7, #15]
    3c9e:	460b      	mov	r3, r1
    3ca0:	73bb      	strb	r3, [r7, #14]
c:\users\kruci_000\desktop\university\soc\marsfinder\marsfinder\marsfinder_fw\modules\mavlink/mavlink_helpers.h:522
    uint8_t msg_received = mavlink_frame_char(chan, c, r_message, r_mavlink_status);
    3ca2:	7bfa      	ldrb	r2, [r7, #15]
    3ca4:	7bbb      	ldrb	r3, [r7, #14]
    3ca6:	4610      	mov	r0, r2
    3ca8:	4619      	mov	r1, r3
    3caa:	68ba      	ldr	r2, [r7, #8]
    3cac:	687b      	ldr	r3, [r7, #4]
    3cae:	f7ff ffcf 	bl	3c50 <mavlink_frame_char>
    3cb2:	4603      	mov	r3, r0
    3cb4:	77fb      	strb	r3, [r7, #31]
c:\users\kruci_000\desktop\university\soc\marsfinder\marsfinder\marsfinder_fw\modules\mavlink/mavlink_helpers.h:523
    if (msg_received == MAVLINK_FRAMING_BAD_CRC) {
    3cb6:	7ffb      	ldrb	r3, [r7, #31]
    3cb8:	2b02      	cmp	r3, #2
    3cba:	d123      	bne.n	3d04 <mavlink_parse_char+0x74>
c:\users\kruci_000\desktop\university\soc\marsfinder\marsfinder\marsfinder_fw\modules\mavlink/mavlink_helpers.h:525
	    // we got a bad CRC. Treat as a parse failure
	    mavlink_message_t* rxmsg = mavlink_get_channel_buffer(chan);
    3cbc:	7bfb      	ldrb	r3, [r7, #15]
    3cbe:	4618      	mov	r0, r3
    3cc0:	f7ff fd86 	bl	37d0 <mavlink_get_channel_buffer>
    3cc4:	61b8      	str	r0, [r7, #24]
c:\users\kruci_000\desktop\university\soc\marsfinder\marsfinder\marsfinder_fw\modules\mavlink/mavlink_helpers.h:526
	    mavlink_status_t* status = mavlink_get_channel_status(chan);
    3cc6:	7bfb      	ldrb	r3, [r7, #15]
    3cc8:	4618      	mov	r0, r3
    3cca:	f7ff fd6d 	bl	37a8 <mavlink_get_channel_status>
    3cce:	6178      	str	r0, [r7, #20]
c:\users\kruci_000\desktop\university\soc\marsfinder\marsfinder\marsfinder_fw\modules\mavlink/mavlink_helpers.h:527
	    status->parse_error++;
    3cd0:	697b      	ldr	r3, [r7, #20]
    3cd2:	789b      	ldrb	r3, [r3, #2]
    3cd4:	3301      	adds	r3, #1
    3cd6:	b2da      	uxtb	r2, r3
    3cd8:	697b      	ldr	r3, [r7, #20]
    3cda:	709a      	strb	r2, [r3, #2]
c:\users\kruci_000\desktop\university\soc\marsfinder\marsfinder\marsfinder_fw\modules\mavlink/mavlink_helpers.h:528
	    status->msg_received = MAVLINK_FRAMING_INCOMPLETE;
    3cdc:	697b      	ldr	r3, [r7, #20]
    3cde:	2200      	movs	r2, #0
    3ce0:	701a      	strb	r2, [r3, #0]
c:\users\kruci_000\desktop\university\soc\marsfinder\marsfinder\marsfinder_fw\modules\mavlink/mavlink_helpers.h:529
	    status->parse_state = MAVLINK_PARSE_STATE_IDLE;
    3ce2:	697b      	ldr	r3, [r7, #20]
    3ce4:	2201      	movs	r2, #1
    3ce6:	70da      	strb	r2, [r3, #3]
c:\users\kruci_000\desktop\university\soc\marsfinder\marsfinder\marsfinder_fw\modules\mavlink/mavlink_helpers.h:530
	    if (c == MAVLINK_STX)
    3ce8:	7bbb      	ldrb	r3, [r7, #14]
    3cea:	2bfe      	cmp	r3, #254	; 0xfe
    3cec:	d108      	bne.n	3d00 <mavlink_parse_char+0x70>
c:\users\kruci_000\desktop\university\soc\marsfinder\marsfinder\marsfinder_fw\modules\mavlink/mavlink_helpers.h:532
	    {
		    status->parse_state = MAVLINK_PARSE_STATE_GOT_STX;
    3cee:	697b      	ldr	r3, [r7, #20]
    3cf0:	2202      	movs	r2, #2
    3cf2:	70da      	strb	r2, [r3, #3]
c:\users\kruci_000\desktop\university\soc\marsfinder\marsfinder\marsfinder_fw\modules\mavlink/mavlink_helpers.h:533
		    rxmsg->len = 0;
    3cf4:	69bb      	ldr	r3, [r7, #24]
    3cf6:	2200      	movs	r2, #0
    3cf8:	70da      	strb	r2, [r3, #3]
c:\users\kruci_000\desktop\university\soc\marsfinder\marsfinder\marsfinder_fw\modules\mavlink/mavlink_helpers.h:534
		    mavlink_start_checksum(rxmsg);
    3cfa:	69b8      	ldr	r0, [r7, #24]
    3cfc:	f7ff fe34 	bl	3968 <mavlink_start_checksum>
c:\users\kruci_000\desktop\university\soc\marsfinder\marsfinder\marsfinder_fw\modules\mavlink/mavlink_helpers.h:536
	    }
	    return 0;
    3d00:	2300      	movs	r3, #0
    3d02:	e000      	b.n	3d06 <mavlink_parse_char+0x76>
c:\users\kruci_000\desktop\university\soc\marsfinder\marsfinder\marsfinder_fw\modules\mavlink/mavlink_helpers.h:538
    }
    return msg_received;
    3d04:	7ffb      	ldrb	r3, [r7, #31]
c:\users\kruci_000\desktop\university\soc\marsfinder\marsfinder\marsfinder_fw\modules\mavlink/mavlink_helpers.h:539
}
    3d06:	4618      	mov	r0, r3
    3d08:	3720      	adds	r7, #32
    3d0a:	46bd      	mov	sp, r7
    3d0c:	bd80      	pop	{r7, pc}
    3d0e:	bf00      	nop

00003d10 <is_sys_comp_match>:
is_sys_comp_match():
c:\users\kruci_000\desktop\university\soc\marsfinder\marsfinder\marsfinder_fw\modules\mavlink/mavlink_helpers.h:681
	}
#endif
}
#endif // MAVLINK_USE_CONVENIENCE_FUNCTIONS

MAVLINK_HELPER uint8_t is_sys_comp_match(uint8_t target_sysid, uint8_t target_compid) {
    3d10:	b480      	push	{r7}
    3d12:	b083      	sub	sp, #12
    3d14:	af00      	add	r7, sp, #0
    3d16:	4603      	mov	r3, r0
    3d18:	460a      	mov	r2, r1
    3d1a:	71fb      	strb	r3, [r7, #7]
    3d1c:	4613      	mov	r3, r2
    3d1e:	71bb      	strb	r3, [r7, #6]
c:\users\kruci_000\desktop\university\soc\marsfinder\marsfinder\marsfinder_fw\modules\mavlink/mavlink_helpers.h:682
    if (target_sysid == mavlink_system.sysid
    3d20:	4b09      	ldr	r3, [pc, #36]	; (3d48 <is_sys_comp_match+0x38>)
    3d22:	781b      	ldrb	r3, [r3, #0]
    3d24:	79fa      	ldrb	r2, [r7, #7]
    3d26:	429a      	cmp	r2, r3
    3d28:	d106      	bne.n	3d38 <is_sys_comp_match+0x28>
c:\users\kruci_000\desktop\university\soc\marsfinder\marsfinder\marsfinder_fw\modules\mavlink/mavlink_helpers.h:683
     && target_compid == mavlink_system.compid) {
    3d2a:	4b07      	ldr	r3, [pc, #28]	; (3d48 <is_sys_comp_match+0x38>)
    3d2c:	785b      	ldrb	r3, [r3, #1]
    3d2e:	79ba      	ldrb	r2, [r7, #6]
    3d30:	429a      	cmp	r2, r3
    3d32:	d101      	bne.n	3d38 <is_sys_comp_match+0x28>
c:\users\kruci_000\desktop\university\soc\marsfinder\marsfinder\marsfinder_fw\modules\mavlink/mavlink_helpers.h:684
        return 1;
    3d34:	2301      	movs	r3, #1
    3d36:	e000      	b.n	3d3a <is_sys_comp_match+0x2a>
c:\users\kruci_000\desktop\university\soc\marsfinder\marsfinder\marsfinder_fw\modules\mavlink/mavlink_helpers.h:686
    }
    return 0;
    3d38:	2300      	movs	r3, #0
c:\users\kruci_000\desktop\university\soc\marsfinder\marsfinder\marsfinder_fw\modules\mavlink/mavlink_helpers.h:687
}
    3d3a:	4618      	mov	r0, r3
    3d3c:	370c      	adds	r7, #12
    3d3e:	46bd      	mov	sp, r7
    3d40:	f85d 7b04 	ldr.w	r7, [sp], #4
    3d44:	4770      	bx	lr
    3d46:	bf00      	nop
    3d48:	200000e0 	.word	0x200000e0

00003d4c <mavlink_send_msg>:
mavlink_send_msg():
c:\users\kruci_000\desktop\university\soc\marsfinder\marsfinder\marsfinder_fw\modules\mavlink/mavlink_helpers.h:689

MAVLINK_HELPER void mavlink_send_msg(mavlink_message_t* msg) {
    3d4c:	b580      	push	{r7, lr}
    3d4e:	b0c6      	sub	sp, #280	; 0x118
    3d50:	af00      	add	r7, sp, #0
    3d52:	1d3b      	adds	r3, r7, #4
    3d54:	6018      	str	r0, [r3, #0]
c:\users\kruci_000\desktop\university\soc\marsfinder\marsfinder\marsfinder_fw\modules\mavlink/mavlink_helpers.h:693
    uint8_t buf[MAVLINK_MAX_PACKET_LEN];
    uint16_t len;

    len = mavlink_msg_to_send_buffer(buf, msg);
    3d56:	f107 020c 	add.w	r2, r7, #12
    3d5a:	1d3b      	adds	r3, r7, #4
    3d5c:	4610      	mov	r0, r2
    3d5e:	6819      	ldr	r1, [r3, #0]
    3d60:	f7ff fdd4 	bl	390c <mavlink_msg_to_send_buffer>
    3d64:	4603      	mov	r3, r0
    3d66:	f8a7 3116 	strh.w	r3, [r7, #278]	; 0x116
c:\users\kruci_000\desktop\university\soc\marsfinder\marsfinder\marsfinder_fw\modules\mavlink/mavlink_helpers.h:694
    BT_send(buf, len);
    3d6a:	f8b7 3116 	ldrh.w	r3, [r7, #278]	; 0x116
    3d6e:	f107 020c 	add.w	r2, r7, #12
    3d72:	4610      	mov	r0, r2
    3d74:	4619      	mov	r1, r3
    3d76:	f7fe f85d 	bl	1e34 <BT_send>
c:\users\kruci_000\desktop\university\soc\marsfinder\marsfinder\marsfinder_fw\modules\mavlink/mavlink_helpers.h:695
}
    3d7a:	f507 778c 	add.w	r7, r7, #280	; 0x118
    3d7e:	46bd      	mov	sp, r7
    3d80:	bd80      	pop	{r7, pc}
    3d82:	bf00      	nop

00003d84 <mav_array_memcpy>:
mav_array_memcpy():
c:\users\kruci_000\desktop\university\soc\marsfinder\marsfinder\marsfinder_fw\modules\mavlink/protocol.h:177

/*
  like memcpy(), but if src is NULL, do a memset to zero
*/
static inline void mav_array_memcpy(void *dest, const void *src, size_t n)
{
    3d84:	b580      	push	{r7, lr}
    3d86:	b084      	sub	sp, #16
    3d88:	af00      	add	r7, sp, #0
    3d8a:	60f8      	str	r0, [r7, #12]
    3d8c:	60b9      	str	r1, [r7, #8]
    3d8e:	607a      	str	r2, [r7, #4]
c:\users\kruci_000\desktop\university\soc\marsfinder\marsfinder\marsfinder_fw\modules\mavlink/protocol.h:178
	if (src == NULL) {
    3d90:	68bb      	ldr	r3, [r7, #8]
    3d92:	2b00      	cmp	r3, #0
    3d94:	d105      	bne.n	3da2 <mav_array_memcpy+0x1e>
c:\users\kruci_000\desktop\university\soc\marsfinder\marsfinder\marsfinder_fw\modules\mavlink/protocol.h:179
		memset(dest, 0, n);
    3d96:	68f8      	ldr	r0, [r7, #12]
    3d98:	2100      	movs	r1, #0
    3d9a:	687a      	ldr	r2, [r7, #4]
    3d9c:	f001 fc09 	bl	55b2 <memset>
    3da0:	e004      	b.n	3dac <mav_array_memcpy+0x28>
c:\users\kruci_000\desktop\university\soc\marsfinder\marsfinder\marsfinder_fw\modules\mavlink/protocol.h:181
	} else {
		memcpy(dest, src, n);
    3da2:	68f8      	ldr	r0, [r7, #12]
    3da4:	68b9      	ldr	r1, [r7, #8]
    3da6:	687a      	ldr	r2, [r7, #4]
    3da8:	f001 fbf8 	bl	559c <memcpy>
c:\users\kruci_000\desktop\university\soc\marsfinder\marsfinder\marsfinder_fw\modules\mavlink/protocol.h:183
	}
}
    3dac:	3710      	adds	r7, #16
    3dae:	46bd      	mov	sp, r7
    3db0:	bd80      	pop	{r7, pc}
    3db2:	bf00      	nop

00003db4 <mavlink_msg_heartbeat_pack>:
mavlink_msg_heartbeat_pack():
c:\users\kruci_000\desktop\university\soc\marsfinder\marsfinder\marsfinder_fw\modules\mavlink\common/mavlink_msg_heartbeat.h:67
 * @param system_status System status flag, see MAV_STATE ENUM
 * @return length of the message in bytes (excluding serial stream start sign)
 */
static inline uint16_t mavlink_msg_heartbeat_pack(uint8_t system_id, uint8_t component_id, mavlink_message_t* msg,
						       uint8_t type, uint8_t autopilot, uint8_t base_mode, uint32_t custom_mode, uint8_t system_status)
{
    3db4:	b580      	push	{r7, lr}
    3db6:	b088      	sub	sp, #32
    3db8:	af02      	add	r7, sp, #8
    3dba:	603a      	str	r2, [r7, #0]
    3dbc:	461a      	mov	r2, r3
    3dbe:	4603      	mov	r3, r0
    3dc0:	71fb      	strb	r3, [r7, #7]
    3dc2:	460b      	mov	r3, r1
    3dc4:	71bb      	strb	r3, [r7, #6]
    3dc6:	4613      	mov	r3, r2
    3dc8:	717b      	strb	r3, [r7, #5]
c:\users\kruci_000\desktop\university\soc\marsfinder\marsfinder\marsfinder_fw\modules\mavlink\common/mavlink_msg_heartbeat.h:80
	_mav_put_uint8_t(buf, 8, 3);

        memcpy(_MAV_PAYLOAD_NON_CONST(msg), buf, MAVLINK_MSG_ID_HEARTBEAT_LEN);
#else
	mavlink_heartbeat_t packet;
	packet.custom_mode = custom_mode;
    3dca:	6abb      	ldr	r3, [r7, #40]	; 0x28
    3dcc:	60fb      	str	r3, [r7, #12]
c:\users\kruci_000\desktop\university\soc\marsfinder\marsfinder\marsfinder_fw\modules\mavlink\common/mavlink_msg_heartbeat.h:81
	packet.type = type;
    3dce:	797b      	ldrb	r3, [r7, #5]
    3dd0:	743b      	strb	r3, [r7, #16]
c:\users\kruci_000\desktop\university\soc\marsfinder\marsfinder\marsfinder_fw\modules\mavlink\common/mavlink_msg_heartbeat.h:82
	packet.autopilot = autopilot;
    3dd2:	f897 3020 	ldrb.w	r3, [r7, #32]
    3dd6:	747b      	strb	r3, [r7, #17]
c:\users\kruci_000\desktop\university\soc\marsfinder\marsfinder\marsfinder_fw\modules\mavlink\common/mavlink_msg_heartbeat.h:83
	packet.base_mode = base_mode;
    3dd8:	f897 3024 	ldrb.w	r3, [r7, #36]	; 0x24
    3ddc:	74bb      	strb	r3, [r7, #18]
c:\users\kruci_000\desktop\university\soc\marsfinder\marsfinder\marsfinder_fw\modules\mavlink\common/mavlink_msg_heartbeat.h:84
	packet.system_status = system_status;
    3dde:	f897 302c 	ldrb.w	r3, [r7, #44]	; 0x2c
    3de2:	74fb      	strb	r3, [r7, #19]
c:\users\kruci_000\desktop\university\soc\marsfinder\marsfinder\marsfinder_fw\modules\mavlink\common/mavlink_msg_heartbeat.h:85
	packet.mavlink_version = 3;
    3de4:	2303      	movs	r3, #3
    3de6:	753b      	strb	r3, [r7, #20]
c:\users\kruci_000\desktop\university\soc\marsfinder\marsfinder\marsfinder_fw\modules\mavlink\common/mavlink_msg_heartbeat.h:87

        memcpy(_MAV_PAYLOAD_NON_CONST(msg), &packet, MAVLINK_MSG_ID_HEARTBEAT_LEN);
    3de8:	683b      	ldr	r3, [r7, #0]
    3dea:	f103 0208 	add.w	r2, r3, #8
    3dee:	f107 030c 	add.w	r3, r7, #12
    3df2:	4610      	mov	r0, r2
    3df4:	4619      	mov	r1, r3
    3df6:	2209      	movs	r2, #9
    3df8:	f001 fbd0 	bl	559c <memcpy>
c:\users\kruci_000\desktop\university\soc\marsfinder\marsfinder\marsfinder_fw\modules\mavlink\common/mavlink_msg_heartbeat.h:90
#endif

	msg->msgid = MAVLINK_MSG_ID_HEARTBEAT;
    3dfc:	683b      	ldr	r3, [r7, #0]
    3dfe:	2200      	movs	r2, #0
    3e00:	71da      	strb	r2, [r3, #7]
c:\users\kruci_000\desktop\university\soc\marsfinder\marsfinder\marsfinder_fw\modules\mavlink\common/mavlink_msg_heartbeat.h:91
    return mavlink_finalize_message(msg, system_id, component_id, MAVLINK_MSG_ID_HEARTBEAT_MIN_LEN, MAVLINK_MSG_ID_HEARTBEAT_LEN, MAVLINK_MSG_ID_HEARTBEAT_CRC);
    3e02:	79f9      	ldrb	r1, [r7, #7]
    3e04:	79ba      	ldrb	r2, [r7, #6]
    3e06:	2309      	movs	r3, #9
    3e08:	9300      	str	r3, [sp, #0]
    3e0a:	2332      	movs	r3, #50	; 0x32
    3e0c:	9301      	str	r3, [sp, #4]
    3e0e:	6838      	ldr	r0, [r7, #0]
    3e10:	2309      	movs	r3, #9
    3e12:	f7ff fd5d 	bl	38d0 <mavlink_finalize_message>
    3e16:	4603      	mov	r3, r0
c:\users\kruci_000\desktop\university\soc\marsfinder\marsfinder\marsfinder_fw\modules\mavlink\common/mavlink_msg_heartbeat.h:92
}
    3e18:	4618      	mov	r0, r3
    3e1a:	3718      	adds	r7, #24
    3e1c:	46bd      	mov	sp, r7
    3e1e:	bd80      	pop	{r7, pc}

00003e20 <mavlink_msg_sys_status_pack>:
mavlink_msg_sys_status_pack():
c:\users\kruci_000\desktop\university\soc\marsfinder\marsfinder\marsfinder_fw\modules\mavlink\common/mavlink_msg_sys_status.h:96
 * @param errors_count4 Autopilot-specific errors
 * @return length of the message in bytes (excluding serial stream start sign)
 */
static inline uint16_t mavlink_msg_sys_status_pack(uint8_t system_id, uint8_t component_id, mavlink_message_t* msg,
						       uint32_t onboard_control_sensors_present, uint32_t onboard_control_sensors_enabled, uint32_t onboard_control_sensors_health, uint16_t load, uint16_t voltage_battery, int16_t current_battery, int8_t battery_remaining, uint16_t drop_rate_comm, uint16_t errors_comm, uint16_t errors_count1, uint16_t errors_count2, uint16_t errors_count3, uint16_t errors_count4)
{
    3e20:	b580      	push	{r7, lr}
    3e22:	b08e      	sub	sp, #56	; 0x38
    3e24:	af02      	add	r7, sp, #8
    3e26:	60ba      	str	r2, [r7, #8]
    3e28:	607b      	str	r3, [r7, #4]
    3e2a:	4603      	mov	r3, r0
    3e2c:	73fb      	strb	r3, [r7, #15]
    3e2e:	460b      	mov	r3, r1
    3e30:	73bb      	strb	r3, [r7, #14]
c:\users\kruci_000\desktop\university\soc\marsfinder\marsfinder\marsfinder_fw\modules\mavlink\common/mavlink_msg_sys_status.h:116
	_mav_put_int8_t(buf, 30, battery_remaining);

        memcpy(_MAV_PAYLOAD_NON_CONST(msg), buf, MAVLINK_MSG_ID_SYS_STATUS_LEN);
#else
	mavlink_sys_status_t packet;
	packet.onboard_control_sensors_present = onboard_control_sensors_present;
    3e32:	687b      	ldr	r3, [r7, #4]
    3e34:	613b      	str	r3, [r7, #16]
c:\users\kruci_000\desktop\university\soc\marsfinder\marsfinder\marsfinder_fw\modules\mavlink\common/mavlink_msg_sys_status.h:117
	packet.onboard_control_sensors_enabled = onboard_control_sensors_enabled;
    3e36:	6bbb      	ldr	r3, [r7, #56]	; 0x38
    3e38:	617b      	str	r3, [r7, #20]
c:\users\kruci_000\desktop\university\soc\marsfinder\marsfinder\marsfinder_fw\modules\mavlink\common/mavlink_msg_sys_status.h:118
	packet.onboard_control_sensors_health = onboard_control_sensors_health;
    3e3a:	6bfb      	ldr	r3, [r7, #60]	; 0x3c
    3e3c:	61bb      	str	r3, [r7, #24]
c:\users\kruci_000\desktop\university\soc\marsfinder\marsfinder\marsfinder_fw\modules\mavlink\common/mavlink_msg_sys_status.h:119
	packet.load = load;
    3e3e:	f8b7 3040 	ldrh.w	r3, [r7, #64]	; 0x40
    3e42:	83bb      	strh	r3, [r7, #28]
c:\users\kruci_000\desktop\university\soc\marsfinder\marsfinder\marsfinder_fw\modules\mavlink\common/mavlink_msg_sys_status.h:120
	packet.voltage_battery = voltage_battery;
    3e44:	f8b7 3044 	ldrh.w	r3, [r7, #68]	; 0x44
    3e48:	83fb      	strh	r3, [r7, #30]
c:\users\kruci_000\desktop\university\soc\marsfinder\marsfinder\marsfinder_fw\modules\mavlink\common/mavlink_msg_sys_status.h:121
	packet.current_battery = current_battery;
    3e4a:	f8b7 3048 	ldrh.w	r3, [r7, #72]	; 0x48
    3e4e:	843b      	strh	r3, [r7, #32]
c:\users\kruci_000\desktop\university\soc\marsfinder\marsfinder\marsfinder_fw\modules\mavlink\common/mavlink_msg_sys_status.h:122
	packet.drop_rate_comm = drop_rate_comm;
    3e50:	f8b7 3050 	ldrh.w	r3, [r7, #80]	; 0x50
    3e54:	847b      	strh	r3, [r7, #34]	; 0x22
c:\users\kruci_000\desktop\university\soc\marsfinder\marsfinder\marsfinder_fw\modules\mavlink\common/mavlink_msg_sys_status.h:123
	packet.errors_comm = errors_comm;
    3e56:	f8b7 3054 	ldrh.w	r3, [r7, #84]	; 0x54
    3e5a:	84bb      	strh	r3, [r7, #36]	; 0x24
c:\users\kruci_000\desktop\university\soc\marsfinder\marsfinder\marsfinder_fw\modules\mavlink\common/mavlink_msg_sys_status.h:124
	packet.errors_count1 = errors_count1;
    3e5c:	f8b7 3058 	ldrh.w	r3, [r7, #88]	; 0x58
    3e60:	84fb      	strh	r3, [r7, #38]	; 0x26
c:\users\kruci_000\desktop\university\soc\marsfinder\marsfinder\marsfinder_fw\modules\mavlink\common/mavlink_msg_sys_status.h:125
	packet.errors_count2 = errors_count2;
    3e62:	f8b7 305c 	ldrh.w	r3, [r7, #92]	; 0x5c
    3e66:	853b      	strh	r3, [r7, #40]	; 0x28
c:\users\kruci_000\desktop\university\soc\marsfinder\marsfinder\marsfinder_fw\modules\mavlink\common/mavlink_msg_sys_status.h:126
	packet.errors_count3 = errors_count3;
    3e68:	f8b7 3060 	ldrh.w	r3, [r7, #96]	; 0x60
    3e6c:	857b      	strh	r3, [r7, #42]	; 0x2a
c:\users\kruci_000\desktop\university\soc\marsfinder\marsfinder\marsfinder_fw\modules\mavlink\common/mavlink_msg_sys_status.h:127
	packet.errors_count4 = errors_count4;
    3e6e:	f8b7 3064 	ldrh.w	r3, [r7, #100]	; 0x64
    3e72:	85bb      	strh	r3, [r7, #44]	; 0x2c
c:\users\kruci_000\desktop\university\soc\marsfinder\marsfinder\marsfinder_fw\modules\mavlink\common/mavlink_msg_sys_status.h:128
	packet.battery_remaining = battery_remaining;
    3e74:	f897 304c 	ldrb.w	r3, [r7, #76]	; 0x4c
    3e78:	f887 302e 	strb.w	r3, [r7, #46]	; 0x2e
c:\users\kruci_000\desktop\university\soc\marsfinder\marsfinder\marsfinder_fw\modules\mavlink\common/mavlink_msg_sys_status.h:130

        memcpy(_MAV_PAYLOAD_NON_CONST(msg), &packet, MAVLINK_MSG_ID_SYS_STATUS_LEN);
    3e7c:	68bb      	ldr	r3, [r7, #8]
    3e7e:	f103 0208 	add.w	r2, r3, #8
    3e82:	f107 0310 	add.w	r3, r7, #16
    3e86:	4610      	mov	r0, r2
    3e88:	4619      	mov	r1, r3
    3e8a:	221f      	movs	r2, #31
    3e8c:	f001 fb86 	bl	559c <memcpy>
c:\users\kruci_000\desktop\university\soc\marsfinder\marsfinder\marsfinder_fw\modules\mavlink\common/mavlink_msg_sys_status.h:133
#endif

	msg->msgid = MAVLINK_MSG_ID_SYS_STATUS;
    3e90:	68bb      	ldr	r3, [r7, #8]
    3e92:	2201      	movs	r2, #1
    3e94:	71da      	strb	r2, [r3, #7]
c:\users\kruci_000\desktop\university\soc\marsfinder\marsfinder\marsfinder_fw\modules\mavlink\common/mavlink_msg_sys_status.h:134
    return mavlink_finalize_message(msg, system_id, component_id, MAVLINK_MSG_ID_SYS_STATUS_MIN_LEN, MAVLINK_MSG_ID_SYS_STATUS_LEN, MAVLINK_MSG_ID_SYS_STATUS_CRC);
    3e96:	7bf9      	ldrb	r1, [r7, #15]
    3e98:	7bba      	ldrb	r2, [r7, #14]
    3e9a:	231f      	movs	r3, #31
    3e9c:	9300      	str	r3, [sp, #0]
    3e9e:	237c      	movs	r3, #124	; 0x7c
    3ea0:	9301      	str	r3, [sp, #4]
    3ea2:	68b8      	ldr	r0, [r7, #8]
    3ea4:	231f      	movs	r3, #31
    3ea6:	f7ff fd13 	bl	38d0 <mavlink_finalize_message>
    3eaa:	4603      	mov	r3, r0
c:\users\kruci_000\desktop\university\soc\marsfinder\marsfinder\marsfinder_fw\modules\mavlink\common/mavlink_msg_sys_status.h:135
}
    3eac:	4618      	mov	r0, r3
    3eae:	3730      	adds	r7, #48	; 0x30
    3eb0:	46bd      	mov	sp, r7
    3eb2:	bd80      	pop	{r7, pc}

00003eb4 <mavlink_msg_param_request_read_decode>:
mavlink_msg_param_request_read_decode():
c:\users\kruci_000\desktop\university\soc\marsfinder\marsfinder\marsfinder_fw\modules\mavlink\common/mavlink_msg_param_request_read.h:268
 *
 * @param msg The message to decode
 * @param param_request_read C-struct to decode the message contents into
 */
static inline void mavlink_msg_param_request_read_decode(const mavlink_message_t* msg, mavlink_param_request_read_t* param_request_read)
{
    3eb4:	b580      	push	{r7, lr}
    3eb6:	b084      	sub	sp, #16
    3eb8:	af00      	add	r7, sp, #0
    3eba:	6078      	str	r0, [r7, #4]
    3ebc:	6039      	str	r1, [r7, #0]
c:\users\kruci_000\desktop\university\soc\marsfinder\marsfinder\marsfinder_fw\modules\mavlink\common/mavlink_msg_param_request_read.h:275
	param_request_read->param_index = mavlink_msg_param_request_read_get_param_index(msg);
	param_request_read->target_system = mavlink_msg_param_request_read_get_target_system(msg);
	param_request_read->target_component = mavlink_msg_param_request_read_get_target_component(msg);
	mavlink_msg_param_request_read_get_param_id(msg, param_request_read->param_id);
#else
        uint8_t len = msg->len < MAVLINK_MSG_ID_PARAM_REQUEST_READ_LEN? msg->len : MAVLINK_MSG_ID_PARAM_REQUEST_READ_LEN;
    3ebe:	687b      	ldr	r3, [r7, #4]
    3ec0:	78db      	ldrb	r3, [r3, #3]
    3ec2:	2b14      	cmp	r3, #20
    3ec4:	bf28      	it	cs
    3ec6:	2314      	movcs	r3, #20
    3ec8:	73fb      	strb	r3, [r7, #15]
c:\users\kruci_000\desktop\university\soc\marsfinder\marsfinder\marsfinder_fw\modules\mavlink\common/mavlink_msg_param_request_read.h:276
        memset(param_request_read, 0, MAVLINK_MSG_ID_PARAM_REQUEST_READ_LEN);
    3eca:	6838      	ldr	r0, [r7, #0]
    3ecc:	2100      	movs	r1, #0
    3ece:	2214      	movs	r2, #20
    3ed0:	f001 fb6f 	bl	55b2 <memset>
c:\users\kruci_000\desktop\university\soc\marsfinder\marsfinder\marsfinder_fw\modules\mavlink\common/mavlink_msg_param_request_read.h:277
	memcpy(param_request_read, _MAV_PAYLOAD(msg), len);
    3ed4:	687b      	ldr	r3, [r7, #4]
    3ed6:	f103 0208 	add.w	r2, r3, #8
    3eda:	7bfb      	ldrb	r3, [r7, #15]
    3edc:	6838      	ldr	r0, [r7, #0]
    3ede:	4611      	mov	r1, r2
    3ee0:	461a      	mov	r2, r3
    3ee2:	f001 fb5b 	bl	559c <memcpy>
c:\users\kruci_000\desktop\university\soc\marsfinder\marsfinder\marsfinder_fw\modules\mavlink\common/mavlink_msg_param_request_read.h:279
#endif
}
    3ee6:	3710      	adds	r7, #16
    3ee8:	46bd      	mov	sp, r7
    3eea:	bd80      	pop	{r7, pc}

00003eec <mavlink_msg_param_value_pack>:
mavlink_msg_param_value_pack():
c:\users\kruci_000\desktop\university\soc\marsfinder\marsfinder\marsfinder_fw\modules\mavlink\common/mavlink_msg_param_value.h:64
 * @param param_index Index of this onboard parameter
 * @return length of the message in bytes (excluding serial stream start sign)
 */
static inline uint16_t mavlink_msg_param_value_pack(uint8_t system_id, uint8_t component_id, mavlink_message_t* msg,
						       const char *param_id, float param_value, uint8_t param_type, uint16_t param_count, uint16_t param_index)
{
    3eec:	b580      	push	{r7, lr}
    3eee:	b08e      	sub	sp, #56	; 0x38
    3ef0:	af02      	add	r7, sp, #8
    3ef2:	60ba      	str	r2, [r7, #8]
    3ef4:	607b      	str	r3, [r7, #4]
    3ef6:	4603      	mov	r3, r0
    3ef8:	73fb      	strb	r3, [r7, #15]
    3efa:	460b      	mov	r3, r1
    3efc:	73bb      	strb	r3, [r7, #14]
c:\users\kruci_000\desktop\university\soc\marsfinder\marsfinder\marsfinder_fw\modules\mavlink\common/mavlink_msg_param_value.h:75
	_mav_put_uint8_t(buf, 24, param_type);
	_mav_put_char_array(buf, 8, param_id, 16);
        memcpy(_MAV_PAYLOAD_NON_CONST(msg), buf, MAVLINK_MSG_ID_PARAM_VALUE_LEN);
#else
	mavlink_param_value_t packet;
	packet.param_value = param_value;
    3efe:	6bbb      	ldr	r3, [r7, #56]	; 0x38
    3f00:	617b      	str	r3, [r7, #20]
c:\users\kruci_000\desktop\university\soc\marsfinder\marsfinder\marsfinder_fw\modules\mavlink\common/mavlink_msg_param_value.h:76
	packet.param_count = param_count;
    3f02:	f8b7 3040 	ldrh.w	r3, [r7, #64]	; 0x40
    3f06:	833b      	strh	r3, [r7, #24]
c:\users\kruci_000\desktop\university\soc\marsfinder\marsfinder\marsfinder_fw\modules\mavlink\common/mavlink_msg_param_value.h:77
	packet.param_index = param_index;
    3f08:	f8b7 3044 	ldrh.w	r3, [r7, #68]	; 0x44
    3f0c:	837b      	strh	r3, [r7, #26]
c:\users\kruci_000\desktop\university\soc\marsfinder\marsfinder\marsfinder_fw\modules\mavlink\common/mavlink_msg_param_value.h:78
	packet.param_type = param_type;
    3f0e:	f897 303c 	ldrb.w	r3, [r7, #60]	; 0x3c
    3f12:	f887 302c 	strb.w	r3, [r7, #44]	; 0x2c
c:\users\kruci_000\desktop\university\soc\marsfinder\marsfinder\marsfinder_fw\modules\mavlink\common/mavlink_msg_param_value.h:79
	mav_array_memcpy(packet.param_id, param_id, sizeof(char)*16);
    3f16:	f107 0314 	add.w	r3, r7, #20
    3f1a:	3308      	adds	r3, #8
    3f1c:	4618      	mov	r0, r3
    3f1e:	6879      	ldr	r1, [r7, #4]
    3f20:	2210      	movs	r2, #16
    3f22:	f7ff ff2f 	bl	3d84 <mav_array_memcpy>
c:\users\kruci_000\desktop\university\soc\marsfinder\marsfinder\marsfinder_fw\modules\mavlink\common/mavlink_msg_param_value.h:80
        memcpy(_MAV_PAYLOAD_NON_CONST(msg), &packet, MAVLINK_MSG_ID_PARAM_VALUE_LEN);
    3f26:	68bb      	ldr	r3, [r7, #8]
    3f28:	f103 0208 	add.w	r2, r3, #8
    3f2c:	f107 0314 	add.w	r3, r7, #20
    3f30:	4610      	mov	r0, r2
    3f32:	4619      	mov	r1, r3
    3f34:	2219      	movs	r2, #25
    3f36:	f001 fb31 	bl	559c <memcpy>
c:\users\kruci_000\desktop\university\soc\marsfinder\marsfinder\marsfinder_fw\modules\mavlink\common/mavlink_msg_param_value.h:83
#endif

	msg->msgid = MAVLINK_MSG_ID_PARAM_VALUE;
    3f3a:	68bb      	ldr	r3, [r7, #8]
    3f3c:	2216      	movs	r2, #22
    3f3e:	71da      	strb	r2, [r3, #7]
c:\users\kruci_000\desktop\university\soc\marsfinder\marsfinder\marsfinder_fw\modules\mavlink\common/mavlink_msg_param_value.h:84
    return mavlink_finalize_message(msg, system_id, component_id, MAVLINK_MSG_ID_PARAM_VALUE_MIN_LEN, MAVLINK_MSG_ID_PARAM_VALUE_LEN, MAVLINK_MSG_ID_PARAM_VALUE_CRC);
    3f40:	7bf9      	ldrb	r1, [r7, #15]
    3f42:	7bba      	ldrb	r2, [r7, #14]
    3f44:	2319      	movs	r3, #25
    3f46:	9300      	str	r3, [sp, #0]
    3f48:	23dc      	movs	r3, #220	; 0xdc
    3f4a:	9301      	str	r3, [sp, #4]
    3f4c:	68b8      	ldr	r0, [r7, #8]
    3f4e:	2319      	movs	r3, #25
    3f50:	f7ff fcbe 	bl	38d0 <mavlink_finalize_message>
    3f54:	4603      	mov	r3, r0
c:\users\kruci_000\desktop\university\soc\marsfinder\marsfinder\marsfinder_fw\modules\mavlink\common/mavlink_msg_param_value.h:85
}
    3f56:	4618      	mov	r0, r3
    3f58:	3730      	adds	r7, #48	; 0x30
    3f5a:	46bd      	mov	sp, r7
    3f5c:	bd80      	pop	{r7, pc}
    3f5e:	bf00      	nop

00003f60 <mavlink_msg_param_set_decode>:
mavlink_msg_param_set_decode():
c:\users\kruci_000\desktop\university\soc\marsfinder\marsfinder\marsfinder_fw\modules\mavlink\common/mavlink_msg_param_set.h:292
 *
 * @param msg The message to decode
 * @param param_set C-struct to decode the message contents into
 */
static inline void mavlink_msg_param_set_decode(const mavlink_message_t* msg, mavlink_param_set_t* param_set)
{
    3f60:	b580      	push	{r7, lr}
    3f62:	b084      	sub	sp, #16
    3f64:	af00      	add	r7, sp, #0
    3f66:	6078      	str	r0, [r7, #4]
    3f68:	6039      	str	r1, [r7, #0]
c:\users\kruci_000\desktop\university\soc\marsfinder\marsfinder\marsfinder_fw\modules\mavlink\common/mavlink_msg_param_set.h:300
	param_set->target_system = mavlink_msg_param_set_get_target_system(msg);
	param_set->target_component = mavlink_msg_param_set_get_target_component(msg);
	mavlink_msg_param_set_get_param_id(msg, param_set->param_id);
	param_set->param_type = mavlink_msg_param_set_get_param_type(msg);
#else
        uint8_t len = msg->len < MAVLINK_MSG_ID_PARAM_SET_LEN? msg->len : MAVLINK_MSG_ID_PARAM_SET_LEN;
    3f6a:	687b      	ldr	r3, [r7, #4]
    3f6c:	78db      	ldrb	r3, [r3, #3]
    3f6e:	2b17      	cmp	r3, #23
    3f70:	bf28      	it	cs
    3f72:	2317      	movcs	r3, #23
    3f74:	73fb      	strb	r3, [r7, #15]
c:\users\kruci_000\desktop\university\soc\marsfinder\marsfinder\marsfinder_fw\modules\mavlink\common/mavlink_msg_param_set.h:301
        memset(param_set, 0, MAVLINK_MSG_ID_PARAM_SET_LEN);
    3f76:	6838      	ldr	r0, [r7, #0]
    3f78:	2100      	movs	r1, #0
    3f7a:	2217      	movs	r2, #23
    3f7c:	f001 fb19 	bl	55b2 <memset>
c:\users\kruci_000\desktop\university\soc\marsfinder\marsfinder\marsfinder_fw\modules\mavlink\common/mavlink_msg_param_set.h:302
	memcpy(param_set, _MAV_PAYLOAD(msg), len);
    3f80:	687b      	ldr	r3, [r7, #4]
    3f82:	f103 0208 	add.w	r2, r3, #8
    3f86:	7bfb      	ldrb	r3, [r7, #15]
    3f88:	6838      	ldr	r0, [r7, #0]
    3f8a:	4611      	mov	r1, r2
    3f8c:	461a      	mov	r2, r3
    3f8e:	f001 fb05 	bl	559c <memcpy>
c:\users\kruci_000\desktop\university\soc\marsfinder\marsfinder\marsfinder_fw\modules\mavlink\common/mavlink_msg_param_set.h:304
#endif
}
    3f92:	3710      	adds	r7, #16
    3f94:	46bd      	mov	sp, r7
    3f96:	bd80      	pop	{r7, pc}

00003f98 <mavlink_msg_attitude_quaternion_pack>:
mavlink_msg_attitude_quaternion_pack():
c:\users\kruci_000\desktop\university\soc\marsfinder\marsfinder\marsfinder_fw\modules\mavlink\common/mavlink_msg_attitude_quaternion.h:76
 * @param yawspeed Yaw angular speed (rad/s)
 * @return length of the message in bytes (excluding serial stream start sign)
 */
static inline uint16_t mavlink_msg_attitude_quaternion_pack(uint8_t system_id, uint8_t component_id, mavlink_message_t* msg,
						       uint32_t time_boot_ms, float q1, float q2, float q3, float q4, float rollspeed, float pitchspeed, float yawspeed)
{
    3f98:	b580      	push	{r7, lr}
    3f9a:	b08e      	sub	sp, #56	; 0x38
    3f9c:	af02      	add	r7, sp, #8
    3f9e:	60ba      	str	r2, [r7, #8]
    3fa0:	607b      	str	r3, [r7, #4]
    3fa2:	4603      	mov	r3, r0
    3fa4:	73fb      	strb	r3, [r7, #15]
    3fa6:	460b      	mov	r3, r1
    3fa8:	73bb      	strb	r3, [r7, #14]
c:\users\kruci_000\desktop\university\soc\marsfinder\marsfinder\marsfinder_fw\modules\mavlink\common/mavlink_msg_attitude_quaternion.h:91
	_mav_put_float(buf, 28, yawspeed);

        memcpy(_MAV_PAYLOAD_NON_CONST(msg), buf, MAVLINK_MSG_ID_ATTITUDE_QUATERNION_LEN);
#else
	mavlink_attitude_quaternion_t packet;
	packet.time_boot_ms = time_boot_ms;
    3faa:	687b      	ldr	r3, [r7, #4]
    3fac:	613b      	str	r3, [r7, #16]
c:\users\kruci_000\desktop\university\soc\marsfinder\marsfinder\marsfinder_fw\modules\mavlink\common/mavlink_msg_attitude_quaternion.h:92
	packet.q1 = q1;
    3fae:	6bbb      	ldr	r3, [r7, #56]	; 0x38
    3fb0:	617b      	str	r3, [r7, #20]
c:\users\kruci_000\desktop\university\soc\marsfinder\marsfinder\marsfinder_fw\modules\mavlink\common/mavlink_msg_attitude_quaternion.h:93
	packet.q2 = q2;
    3fb2:	6bfb      	ldr	r3, [r7, #60]	; 0x3c
    3fb4:	61bb      	str	r3, [r7, #24]
c:\users\kruci_000\desktop\university\soc\marsfinder\marsfinder\marsfinder_fw\modules\mavlink\common/mavlink_msg_attitude_quaternion.h:94
	packet.q3 = q3;
    3fb6:	6c3b      	ldr	r3, [r7, #64]	; 0x40
    3fb8:	61fb      	str	r3, [r7, #28]
c:\users\kruci_000\desktop\university\soc\marsfinder\marsfinder\marsfinder_fw\modules\mavlink\common/mavlink_msg_attitude_quaternion.h:95
	packet.q4 = q4;
    3fba:	6c7b      	ldr	r3, [r7, #68]	; 0x44
    3fbc:	623b      	str	r3, [r7, #32]
c:\users\kruci_000\desktop\university\soc\marsfinder\marsfinder\marsfinder_fw\modules\mavlink\common/mavlink_msg_attitude_quaternion.h:96
	packet.rollspeed = rollspeed;
    3fbe:	6cbb      	ldr	r3, [r7, #72]	; 0x48
    3fc0:	627b      	str	r3, [r7, #36]	; 0x24
c:\users\kruci_000\desktop\university\soc\marsfinder\marsfinder\marsfinder_fw\modules\mavlink\common/mavlink_msg_attitude_quaternion.h:97
	packet.pitchspeed = pitchspeed;
    3fc2:	6cfb      	ldr	r3, [r7, #76]	; 0x4c
    3fc4:	62bb      	str	r3, [r7, #40]	; 0x28
c:\users\kruci_000\desktop\university\soc\marsfinder\marsfinder\marsfinder_fw\modules\mavlink\common/mavlink_msg_attitude_quaternion.h:98
	packet.yawspeed = yawspeed;
    3fc6:	6d3b      	ldr	r3, [r7, #80]	; 0x50
    3fc8:	62fb      	str	r3, [r7, #44]	; 0x2c
c:\users\kruci_000\desktop\university\soc\marsfinder\marsfinder\marsfinder_fw\modules\mavlink\common/mavlink_msg_attitude_quaternion.h:100

        memcpy(_MAV_PAYLOAD_NON_CONST(msg), &packet, MAVLINK_MSG_ID_ATTITUDE_QUATERNION_LEN);
    3fca:	68bb      	ldr	r3, [r7, #8]
    3fcc:	f103 0208 	add.w	r2, r3, #8
    3fd0:	f107 0310 	add.w	r3, r7, #16
    3fd4:	4610      	mov	r0, r2
    3fd6:	4619      	mov	r1, r3
    3fd8:	2220      	movs	r2, #32
    3fda:	f001 fadf 	bl	559c <memcpy>
c:\users\kruci_000\desktop\university\soc\marsfinder\marsfinder\marsfinder_fw\modules\mavlink\common/mavlink_msg_attitude_quaternion.h:103
#endif

	msg->msgid = MAVLINK_MSG_ID_ATTITUDE_QUATERNION;
    3fde:	68bb      	ldr	r3, [r7, #8]
    3fe0:	221f      	movs	r2, #31
    3fe2:	71da      	strb	r2, [r3, #7]
c:\users\kruci_000\desktop\university\soc\marsfinder\marsfinder\marsfinder_fw\modules\mavlink\common/mavlink_msg_attitude_quaternion.h:104
    return mavlink_finalize_message(msg, system_id, component_id, MAVLINK_MSG_ID_ATTITUDE_QUATERNION_MIN_LEN, MAVLINK_MSG_ID_ATTITUDE_QUATERNION_LEN, MAVLINK_MSG_ID_ATTITUDE_QUATERNION_CRC);
    3fe4:	7bf9      	ldrb	r1, [r7, #15]
    3fe6:	7bba      	ldrb	r2, [r7, #14]
    3fe8:	2320      	movs	r3, #32
    3fea:	9300      	str	r3, [sp, #0]
    3fec:	23f6      	movs	r3, #246	; 0xf6
    3fee:	9301      	str	r3, [sp, #4]
    3ff0:	68b8      	ldr	r0, [r7, #8]
    3ff2:	2320      	movs	r3, #32
    3ff4:	f7ff fc6c 	bl	38d0 <mavlink_finalize_message>
    3ff8:	4603      	mov	r3, r0
c:\users\kruci_000\desktop\university\soc\marsfinder\marsfinder\marsfinder_fw\modules\mavlink\common/mavlink_msg_attitude_quaternion.h:105
}
    3ffa:	4618      	mov	r0, r3
    3ffc:	3730      	adds	r7, #48	; 0x30
    3ffe:	46bd      	mov	sp, r7
    4000:	bd80      	pop	{r7, pc}
    4002:	bf00      	nop

00004004 <mavlink_msg_highres_imu_pack>:
mavlink_msg_highres_imu_pack():
c:\users\kruci_000\desktop\university\soc\marsfinder\marsfinder\marsfinder_fw\modules\mavlink\common/mavlink_msg_highres_imu.h:104
 * @param fields_updated Bitmask for fields that have updated since last message, bit 0 = xacc, bit 12: temperature
 * @return length of the message in bytes (excluding serial stream start sign)
 */
static inline uint16_t mavlink_msg_highres_imu_pack(uint8_t system_id, uint8_t component_id, mavlink_message_t* msg,
						       uint64_t time_usec, float xacc, float yacc, float zacc, float xgyro, float ygyro, float zgyro, float xmag, float ymag, float zmag, float abs_pressure, float diff_pressure, float pressure_alt, float temperature, uint16_t fields_updated)
{
    4004:	b580      	push	{r7, lr}
    4006:	b094      	sub	sp, #80	; 0x50
    4008:	af02      	add	r7, sp, #8
    400a:	4603      	mov	r3, r0
    400c:	603a      	str	r2, [r7, #0]
    400e:	71fb      	strb	r3, [r7, #7]
    4010:	460b      	mov	r3, r1
    4012:	71bb      	strb	r3, [r7, #6]
c:\users\kruci_000\desktop\university\soc\marsfinder\marsfinder\marsfinder_fw\modules\mavlink\common/mavlink_msg_highres_imu.h:126
	_mav_put_uint16_t(buf, 60, fields_updated);

        memcpy(_MAV_PAYLOAD_NON_CONST(msg), buf, MAVLINK_MSG_ID_HIGHRES_IMU_LEN);
#else
	mavlink_highres_imu_t packet;
	packet.time_usec = time_usec;
    4014:	e9d7 2314 	ldrd	r2, r3, [r7, #80]	; 0x50
    4018:	e9c7 2302 	strd	r2, r3, [r7, #8]
c:\users\kruci_000\desktop\university\soc\marsfinder\marsfinder\marsfinder_fw\modules\mavlink\common/mavlink_msg_highres_imu.h:127
	packet.xacc = xacc;
    401c:	6dbb      	ldr	r3, [r7, #88]	; 0x58
    401e:	613b      	str	r3, [r7, #16]
c:\users\kruci_000\desktop\university\soc\marsfinder\marsfinder\marsfinder_fw\modules\mavlink\common/mavlink_msg_highres_imu.h:128
	packet.yacc = yacc;
    4020:	6dfb      	ldr	r3, [r7, #92]	; 0x5c
    4022:	617b      	str	r3, [r7, #20]
c:\users\kruci_000\desktop\university\soc\marsfinder\marsfinder\marsfinder_fw\modules\mavlink\common/mavlink_msg_highres_imu.h:129
	packet.zacc = zacc;
    4024:	6e3b      	ldr	r3, [r7, #96]	; 0x60
    4026:	61bb      	str	r3, [r7, #24]
c:\users\kruci_000\desktop\university\soc\marsfinder\marsfinder\marsfinder_fw\modules\mavlink\common/mavlink_msg_highres_imu.h:130
	packet.xgyro = xgyro;
    4028:	6e7b      	ldr	r3, [r7, #100]	; 0x64
    402a:	61fb      	str	r3, [r7, #28]
c:\users\kruci_000\desktop\university\soc\marsfinder\marsfinder\marsfinder_fw\modules\mavlink\common/mavlink_msg_highres_imu.h:131
	packet.ygyro = ygyro;
    402c:	6ebb      	ldr	r3, [r7, #104]	; 0x68
    402e:	623b      	str	r3, [r7, #32]
c:\users\kruci_000\desktop\university\soc\marsfinder\marsfinder\marsfinder_fw\modules\mavlink\common/mavlink_msg_highres_imu.h:132
	packet.zgyro = zgyro;
    4030:	6efb      	ldr	r3, [r7, #108]	; 0x6c
    4032:	627b      	str	r3, [r7, #36]	; 0x24
c:\users\kruci_000\desktop\university\soc\marsfinder\marsfinder\marsfinder_fw\modules\mavlink\common/mavlink_msg_highres_imu.h:133
	packet.xmag = xmag;
    4034:	6f3b      	ldr	r3, [r7, #112]	; 0x70
    4036:	62bb      	str	r3, [r7, #40]	; 0x28
c:\users\kruci_000\desktop\university\soc\marsfinder\marsfinder\marsfinder_fw\modules\mavlink\common/mavlink_msg_highres_imu.h:134
	packet.ymag = ymag;
    4038:	6f7b      	ldr	r3, [r7, #116]	; 0x74
    403a:	62fb      	str	r3, [r7, #44]	; 0x2c
c:\users\kruci_000\desktop\university\soc\marsfinder\marsfinder\marsfinder_fw\modules\mavlink\common/mavlink_msg_highres_imu.h:135
	packet.zmag = zmag;
    403c:	6fbb      	ldr	r3, [r7, #120]	; 0x78
    403e:	633b      	str	r3, [r7, #48]	; 0x30
c:\users\kruci_000\desktop\university\soc\marsfinder\marsfinder\marsfinder_fw\modules\mavlink\common/mavlink_msg_highres_imu.h:136
	packet.abs_pressure = abs_pressure;
    4040:	6ffb      	ldr	r3, [r7, #124]	; 0x7c
    4042:	637b      	str	r3, [r7, #52]	; 0x34
c:\users\kruci_000\desktop\university\soc\marsfinder\marsfinder\marsfinder_fw\modules\mavlink\common/mavlink_msg_highres_imu.h:137
	packet.diff_pressure = diff_pressure;
    4044:	f8d7 3080 	ldr.w	r3, [r7, #128]	; 0x80
    4048:	63bb      	str	r3, [r7, #56]	; 0x38
c:\users\kruci_000\desktop\university\soc\marsfinder\marsfinder\marsfinder_fw\modules\mavlink\common/mavlink_msg_highres_imu.h:138
	packet.pressure_alt = pressure_alt;
    404a:	f8d7 3084 	ldr.w	r3, [r7, #132]	; 0x84
    404e:	63fb      	str	r3, [r7, #60]	; 0x3c
c:\users\kruci_000\desktop\university\soc\marsfinder\marsfinder\marsfinder_fw\modules\mavlink\common/mavlink_msg_highres_imu.h:139
	packet.temperature = temperature;
    4050:	f8d7 3088 	ldr.w	r3, [r7, #136]	; 0x88
    4054:	643b      	str	r3, [r7, #64]	; 0x40
c:\users\kruci_000\desktop\university\soc\marsfinder\marsfinder\marsfinder_fw\modules\mavlink\common/mavlink_msg_highres_imu.h:140
	packet.fields_updated = fields_updated;
    4056:	f8b7 308c 	ldrh.w	r3, [r7, #140]	; 0x8c
    405a:	f8a7 3044 	strh.w	r3, [r7, #68]	; 0x44
c:\users\kruci_000\desktop\university\soc\marsfinder\marsfinder\marsfinder_fw\modules\mavlink\common/mavlink_msg_highres_imu.h:142

        memcpy(_MAV_PAYLOAD_NON_CONST(msg), &packet, MAVLINK_MSG_ID_HIGHRES_IMU_LEN);
    405e:	683b      	ldr	r3, [r7, #0]
    4060:	f103 0208 	add.w	r2, r3, #8
    4064:	f107 0308 	add.w	r3, r7, #8
    4068:	4610      	mov	r0, r2
    406a:	4619      	mov	r1, r3
    406c:	223e      	movs	r2, #62	; 0x3e
    406e:	f001 fa95 	bl	559c <memcpy>
c:\users\kruci_000\desktop\university\soc\marsfinder\marsfinder\marsfinder_fw\modules\mavlink\common/mavlink_msg_highres_imu.h:145
#endif

	msg->msgid = MAVLINK_MSG_ID_HIGHRES_IMU;
    4072:	683b      	ldr	r3, [r7, #0]
    4074:	2269      	movs	r2, #105	; 0x69
    4076:	71da      	strb	r2, [r3, #7]
c:\users\kruci_000\desktop\university\soc\marsfinder\marsfinder\marsfinder_fw\modules\mavlink\common/mavlink_msg_highres_imu.h:146
    return mavlink_finalize_message(msg, system_id, component_id, MAVLINK_MSG_ID_HIGHRES_IMU_MIN_LEN, MAVLINK_MSG_ID_HIGHRES_IMU_LEN, MAVLINK_MSG_ID_HIGHRES_IMU_CRC);
    4078:	79f9      	ldrb	r1, [r7, #7]
    407a:	79ba      	ldrb	r2, [r7, #6]
    407c:	233e      	movs	r3, #62	; 0x3e
    407e:	9300      	str	r3, [sp, #0]
    4080:	235d      	movs	r3, #93	; 0x5d
    4082:	9301      	str	r3, [sp, #4]
    4084:	6838      	ldr	r0, [r7, #0]
    4086:	233e      	movs	r3, #62	; 0x3e
    4088:	f7ff fc22 	bl	38d0 <mavlink_finalize_message>
    408c:	4603      	mov	r3, r0
c:\users\kruci_000\desktop\university\soc\marsfinder\marsfinder\marsfinder_fw\modules\mavlink\common/mavlink_msg_highres_imu.h:147
}
    408e:	4618      	mov	r0, r3
    4090:	3748      	adds	r7, #72	; 0x48
    4092:	46bd      	mov	sp, r7
    4094:	bd80      	pop	{r7, pc}
    4096:	bf00      	nop

00004098 <mavlink_msg_autopilot_version_pack>:
mavlink_msg_autopilot_version_pack():
c:\users\kruci_000\desktop\university\soc\marsfinder\marsfinder\marsfinder_fw\modules\mavlink\common/mavlink_msg_autopilot_version.h:90
 * @param uid UID if provided by hardware
 * @return length of the message in bytes (excluding serial stream start sign)
 */
static inline uint16_t mavlink_msg_autopilot_version_pack(uint8_t system_id, uint8_t component_id, mavlink_message_t* msg,
						       uint64_t capabilities, uint32_t flight_sw_version, uint32_t middleware_sw_version, uint32_t os_sw_version, uint32_t board_version, const uint8_t *flight_custom_version, const uint8_t *middleware_custom_version, const uint8_t *os_custom_version, uint16_t vendor_id, uint16_t product_id, uint64_t uid)
{
    4098:	b580      	push	{r7, lr}
    409a:	b094      	sub	sp, #80	; 0x50
    409c:	af02      	add	r7, sp, #8
    409e:	4603      	mov	r3, r0
    40a0:	603a      	str	r2, [r7, #0]
    40a2:	71fb      	strb	r3, [r7, #7]
    40a4:	460b      	mov	r3, r1
    40a6:	71bb      	strb	r3, [r7, #6]
c:\users\kruci_000\desktop\university\soc\marsfinder\marsfinder\marsfinder_fw\modules\mavlink\common/mavlink_msg_autopilot_version.h:107
	_mav_put_uint8_t_array(buf, 44, middleware_custom_version, 8);
	_mav_put_uint8_t_array(buf, 52, os_custom_version, 8);
        memcpy(_MAV_PAYLOAD_NON_CONST(msg), buf, MAVLINK_MSG_ID_AUTOPILOT_VERSION_LEN);
#else
	mavlink_autopilot_version_t packet;
	packet.capabilities = capabilities;
    40a8:	6d3b      	ldr	r3, [r7, #80]	; 0x50
    40aa:	60fb      	str	r3, [r7, #12]
    40ac:	6d7b      	ldr	r3, [r7, #84]	; 0x54
    40ae:	613b      	str	r3, [r7, #16]
c:\users\kruci_000\desktop\university\soc\marsfinder\marsfinder\marsfinder_fw\modules\mavlink\common/mavlink_msg_autopilot_version.h:108
	packet.uid = uid;
    40b0:	f8d7 3080 	ldr.w	r3, [r7, #128]	; 0x80
    40b4:	617b      	str	r3, [r7, #20]
    40b6:	f8d7 3084 	ldr.w	r3, [r7, #132]	; 0x84
    40ba:	61bb      	str	r3, [r7, #24]
c:\users\kruci_000\desktop\university\soc\marsfinder\marsfinder\marsfinder_fw\modules\mavlink\common/mavlink_msg_autopilot_version.h:109
	packet.flight_sw_version = flight_sw_version;
    40bc:	6dbb      	ldr	r3, [r7, #88]	; 0x58
    40be:	61fb      	str	r3, [r7, #28]
c:\users\kruci_000\desktop\university\soc\marsfinder\marsfinder\marsfinder_fw\modules\mavlink\common/mavlink_msg_autopilot_version.h:110
	packet.middleware_sw_version = middleware_sw_version;
    40c0:	6dfb      	ldr	r3, [r7, #92]	; 0x5c
    40c2:	623b      	str	r3, [r7, #32]
c:\users\kruci_000\desktop\university\soc\marsfinder\marsfinder\marsfinder_fw\modules\mavlink\common/mavlink_msg_autopilot_version.h:111
	packet.os_sw_version = os_sw_version;
    40c4:	6e3b      	ldr	r3, [r7, #96]	; 0x60
    40c6:	627b      	str	r3, [r7, #36]	; 0x24
c:\users\kruci_000\desktop\university\soc\marsfinder\marsfinder\marsfinder_fw\modules\mavlink\common/mavlink_msg_autopilot_version.h:112
	packet.board_version = board_version;
    40c8:	6e7b      	ldr	r3, [r7, #100]	; 0x64
    40ca:	62bb      	str	r3, [r7, #40]	; 0x28
c:\users\kruci_000\desktop\university\soc\marsfinder\marsfinder\marsfinder_fw\modules\mavlink\common/mavlink_msg_autopilot_version.h:113
	packet.vendor_id = vendor_id;
    40cc:	f8b7 3074 	ldrh.w	r3, [r7, #116]	; 0x74
    40d0:	85bb      	strh	r3, [r7, #44]	; 0x2c
c:\users\kruci_000\desktop\university\soc\marsfinder\marsfinder\marsfinder_fw\modules\mavlink\common/mavlink_msg_autopilot_version.h:114
	packet.product_id = product_id;
    40d2:	f8b7 3078 	ldrh.w	r3, [r7, #120]	; 0x78
    40d6:	85fb      	strh	r3, [r7, #46]	; 0x2e
c:\users\kruci_000\desktop\university\soc\marsfinder\marsfinder\marsfinder_fw\modules\mavlink\common/mavlink_msg_autopilot_version.h:115
	mav_array_memcpy(packet.flight_custom_version, flight_custom_version, sizeof(uint8_t)*8);
    40d8:	f107 030c 	add.w	r3, r7, #12
    40dc:	3324      	adds	r3, #36	; 0x24
    40de:	4618      	mov	r0, r3
    40e0:	6eb9      	ldr	r1, [r7, #104]	; 0x68
    40e2:	2208      	movs	r2, #8
    40e4:	f7ff fe4e 	bl	3d84 <mav_array_memcpy>
c:\users\kruci_000\desktop\university\soc\marsfinder\marsfinder\marsfinder_fw\modules\mavlink\common/mavlink_msg_autopilot_version.h:116
	mav_array_memcpy(packet.middleware_custom_version, middleware_custom_version, sizeof(uint8_t)*8);
    40e8:	f107 030c 	add.w	r3, r7, #12
    40ec:	332c      	adds	r3, #44	; 0x2c
    40ee:	4618      	mov	r0, r3
    40f0:	6ef9      	ldr	r1, [r7, #108]	; 0x6c
    40f2:	2208      	movs	r2, #8
    40f4:	f7ff fe46 	bl	3d84 <mav_array_memcpy>
c:\users\kruci_000\desktop\university\soc\marsfinder\marsfinder\marsfinder_fw\modules\mavlink\common/mavlink_msg_autopilot_version.h:117
	mav_array_memcpy(packet.os_custom_version, os_custom_version, sizeof(uint8_t)*8);
    40f8:	f107 030c 	add.w	r3, r7, #12
    40fc:	3334      	adds	r3, #52	; 0x34
    40fe:	4618      	mov	r0, r3
    4100:	6f39      	ldr	r1, [r7, #112]	; 0x70
    4102:	2208      	movs	r2, #8
    4104:	f7ff fe3e 	bl	3d84 <mav_array_memcpy>
c:\users\kruci_000\desktop\university\soc\marsfinder\marsfinder\marsfinder_fw\modules\mavlink\common/mavlink_msg_autopilot_version.h:118
        memcpy(_MAV_PAYLOAD_NON_CONST(msg), &packet, MAVLINK_MSG_ID_AUTOPILOT_VERSION_LEN);
    4108:	683b      	ldr	r3, [r7, #0]
    410a:	f103 0208 	add.w	r2, r3, #8
    410e:	f107 030c 	add.w	r3, r7, #12
    4112:	4610      	mov	r0, r2
    4114:	4619      	mov	r1, r3
    4116:	223c      	movs	r2, #60	; 0x3c
    4118:	f001 fa40 	bl	559c <memcpy>
c:\users\kruci_000\desktop\university\soc\marsfinder\marsfinder\marsfinder_fw\modules\mavlink\common/mavlink_msg_autopilot_version.h:121
#endif

	msg->msgid = MAVLINK_MSG_ID_AUTOPILOT_VERSION;
    411c:	683b      	ldr	r3, [r7, #0]
    411e:	2294      	movs	r2, #148	; 0x94
    4120:	71da      	strb	r2, [r3, #7]
c:\users\kruci_000\desktop\university\soc\marsfinder\marsfinder\marsfinder_fw\modules\mavlink\common/mavlink_msg_autopilot_version.h:122
    return mavlink_finalize_message(msg, system_id, component_id, MAVLINK_MSG_ID_AUTOPILOT_VERSION_MIN_LEN, MAVLINK_MSG_ID_AUTOPILOT_VERSION_LEN, MAVLINK_MSG_ID_AUTOPILOT_VERSION_CRC);
    4122:	79f9      	ldrb	r1, [r7, #7]
    4124:	79ba      	ldrb	r2, [r7, #6]
    4126:	233c      	movs	r3, #60	; 0x3c
    4128:	9300      	str	r3, [sp, #0]
    412a:	23b2      	movs	r3, #178	; 0xb2
    412c:	9301      	str	r3, [sp, #4]
    412e:	6838      	ldr	r0, [r7, #0]
    4130:	233c      	movs	r3, #60	; 0x3c
    4132:	f7ff fbcd 	bl	38d0 <mavlink_finalize_message>
    4136:	4603      	mov	r3, r0
c:\users\kruci_000\desktop\university\soc\marsfinder\marsfinder\marsfinder_fw\modules\mavlink\common/mavlink_msg_autopilot_version.h:123
}
    4138:	4618      	mov	r0, r3
    413a:	3748      	adds	r7, #72	; 0x48
    413c:	46bd      	mov	sp, r7
    413e:	bd80      	pop	{r7, pc}

00004140 <handle_mavlink_message>:
handle_mavlink_message():
c:\users\kruci_000\desktop\university\soc\marsfinder\marsfinder\marsfinder_fw\modules\mavlink/handlers.h:19
#include <Modules/UART/uart.h>
#include <Modules/Parameters_Holder/param_holder.h>

extern param_holder_t params;

void handle_mavlink_message(mavlink_message_t* msg) {
    4140:	b5b0      	push	{r4, r5, r7, lr}
    4142:	f5ad 7d5e 	sub.w	sp, sp, #888	; 0x378
    4146:	af04      	add	r7, sp, #16
    4148:	1d3b      	adds	r3, r7, #4
    414a:	6018      	str	r0, [r3, #0]
c:\users\kruci_000\desktop\university\soc\marsfinder\marsfinder\marsfinder_fw\modules\mavlink/handlers.h:23
    uint8_t buf[MAVLINK_MAX_PACKET_LEN];
    uint32_t len;

    switch (msg->msgid) {
    414c:	1d3b      	adds	r3, r7, #4
    414e:	681b      	ldr	r3, [r3, #0]
    4150:	79db      	ldrb	r3, [r3, #7]
    4152:	2b15      	cmp	r3, #21
    4154:	d004      	beq.n	4160 <handle_mavlink_message+0x20>
    4156:	2b17      	cmp	r3, #23
    4158:	d068      	beq.n	422c <handle_mavlink_message+0xec>
    415a:	2b14      	cmp	r3, #20
    415c:	d003      	beq.n	4166 <handle_mavlink_message+0x26>
    415e:	e0e7      	b.n	4330 <handle_mavlink_message+0x1f0>
c:\users\kruci_000\desktop\university\soc\marsfinder\marsfinder\marsfinder_fw\modules\mavlink/handlers.h:26
    case MAVLINK_MSG_ID_PARAM_REQUEST_LIST: {
            // Start sending parameters
            param_queued_send_start();
    4160:	f7fe f8be 	bl	22e0 <param_queued_send_start>
c:\users\kruci_000\desktop\university\soc\marsfinder\marsfinder\marsfinder_fw\modules\mavlink/handlers.h:28
        }
        break;
    4164:	e0e4      	b.n	4330 <handle_mavlink_message+0x1f0>
c:\users\kruci_000\desktop\university\soc\marsfinder\marsfinder\marsfinder_fw\modules\mavlink/handlers.h:31
    case MAVLINK_MSG_ID_PARAM_REQUEST_READ: {
            mavlink_param_request_read_t read;
            mavlink_msg_param_request_read_decode(msg, &read);
    4166:	1d3b      	adds	r3, r7, #4
    4168:	f507 720f 	add.w	r2, r7, #572	; 0x23c
    416c:	6818      	ldr	r0, [r3, #0]
    416e:	4611      	mov	r1, r2
    4170:	f7ff fea0 	bl	3eb4 <mavlink_msg_param_request_read_decode>
c:\users\kruci_000\desktop\university\soc\marsfinder\marsfinder\marsfinder_fw\modules\mavlink/handlers.h:34

            // Check if this message is for this system
            if (is_sys_comp_match(read.target_system, read.target_component)) {
    4174:	f507 730f 	add.w	r3, r7, #572	; 0x23c
    4178:	789a      	ldrb	r2, [r3, #2]
    417a:	f507 730f 	add.w	r3, r7, #572	; 0x23c
    417e:	78db      	ldrb	r3, [r3, #3]
    4180:	4610      	mov	r0, r2
    4182:	4619      	mov	r1, r3
    4184:	f7ff fdc4 	bl	3d10 <is_sys_comp_match>
    4188:	4603      	mov	r3, r0
    418a:	2b00      	cmp	r3, #0
    418c:	d04d      	beq.n	422a <handle_mavlink_message+0xea>
c:\users\kruci_000\desktop\university\soc\marsfinder\marsfinder\marsfinder_fw\modules\mavlink/handlers.h:35
                char* key = (char*) read.param_id;
    418e:	f507 730f 	add.w	r3, r7, #572	; 0x23c
    4192:	3304      	adds	r3, #4
    4194:	f8c7 3360 	str.w	r3, [r7, #864]	; 0x360
c:\users\kruci_000\desktop\university\soc\marsfinder\marsfinder\marsfinder_fw\modules\mavlink/handlers.h:36
                if (!strcmp(key, params.param_name[read.param_index])) {
    4198:	f507 730f 	add.w	r3, r7, #572	; 0x23c
    419c:	881b      	ldrh	r3, [r3, #0]
    419e:	b21b      	sxth	r3, r3
    41a0:	011b      	lsls	r3, r3, #4
    41a2:	3328      	adds	r3, #40	; 0x28
    41a4:	4a64      	ldr	r2, [pc, #400]	; (4338 <handle_mavlink_message+0x1f8>)
    41a6:	4413      	add	r3, r2
    41a8:	3304      	adds	r3, #4
    41aa:	f8d7 0360 	ldr.w	r0, [r7, #864]	; 0x360
    41ae:	4619      	mov	r1, r3
    41b0:	f001 fa07 	bl	55c2 <strcmp>
    41b4:	4603      	mov	r3, r0
    41b6:	2b00      	cmp	r3, #0
    41b8:	d137      	bne.n	422a <handle_mavlink_message+0xea>
c:\users\kruci_000\desktop\university\soc\marsfinder\marsfinder\marsfinder_fw\modules\mavlink/handlers.h:41
                    mavlink_message_t message;
                    uint8_t buffer[MAVLINK_MAX_PACKET_LEN];
                    uint8_t len;

                    mavlink_msg_param_value_pack(
    41ba:	4b60      	ldr	r3, [pc, #384]	; (433c <handle_mavlink_message+0x1fc>)
    41bc:	7818      	ldrb	r0, [r3, #0]
    41be:	4b5f      	ldr	r3, [pc, #380]	; (433c <handle_mavlink_message+0x1fc>)
    41c0:	7859      	ldrb	r1, [r3, #1]
c:\users\kruci_000\desktop\university\soc\marsfinder\marsfinder\marsfinder_fw\modules\mavlink/handlers.h:45
                        mavlink_system.sysid,
                        mavlink_system.compid,
                        &message,
                        params.param_name[read.param_index],
    41c2:	f507 730f 	add.w	r3, r7, #572	; 0x23c
    41c6:	881b      	ldrh	r3, [r3, #0]
    41c8:	b21b      	sxth	r3, r3
    41ca:	011b      	lsls	r3, r3, #4
    41cc:	3328      	adds	r3, #40	; 0x28
    41ce:	4a5a      	ldr	r2, [pc, #360]	; (4338 <handle_mavlink_message+0x1f8>)
    41d0:	4413      	add	r3, r2
    41d2:	1d1c      	adds	r4, r3, #4
c:\users\kruci_000\desktop\university\soc\marsfinder\marsfinder\marsfinder_fw\modules\mavlink/handlers.h:46
                        params.param[read.param_index],
    41d4:	f507 730f 	add.w	r3, r7, #572	; 0x23c
    41d8:	881b      	ldrh	r3, [r3, #0]
c:\users\kruci_000\desktop\university\soc\marsfinder\marsfinder\marsfinder_fw\modules\mavlink/handlers.h:41
                if (!strcmp(key, params.param_name[read.param_index])) {
                    mavlink_message_t message;
                    uint8_t buffer[MAVLINK_MAX_PACKET_LEN];
                    uint8_t len;

                    mavlink_msg_param_value_pack(
    41da:	b21b      	sxth	r3, r3
    41dc:	4a56      	ldr	r2, [pc, #344]	; (4338 <handle_mavlink_message+0x1f8>)
    41de:	f852 2023 	ldr.w	r2, [r2, r3, lsl #2]
c:\users\kruci_000\desktop\university\soc\marsfinder\marsfinder\marsfinder_fw\modules\mavlink/handlers.h:49
                        &message,
                        params.param_name[read.param_index],
                        params.param[read.param_index],
                        MAVLINK_TYPE_FLOAT,
                        ONBOARD_PARAM_COUNT,
                        read.param_index);
    41e2:	f507 730f 	add.w	r3, r7, #572	; 0x23c
    41e6:	881b      	ldrh	r3, [r3, #0]
c:\users\kruci_000\desktop\university\soc\marsfinder\marsfinder\marsfinder_fw\modules\mavlink/handlers.h:41
                if (!strcmp(key, params.param_name[read.param_index])) {
                    mavlink_message_t message;
                    uint8_t buffer[MAVLINK_MAX_PACKET_LEN];
                    uint8_t len;

                    mavlink_msg_param_value_pack(
    41e8:	b29b      	uxth	r3, r3
    41ea:	f507 758a 	add.w	r5, r7, #276	; 0x114
    41ee:	9200      	str	r2, [sp, #0]
    41f0:	2209      	movs	r2, #9
    41f2:	9201      	str	r2, [sp, #4]
    41f4:	220b      	movs	r2, #11
    41f6:	9202      	str	r2, [sp, #8]
    41f8:	9303      	str	r3, [sp, #12]
    41fa:	462a      	mov	r2, r5
    41fc:	4623      	mov	r3, r4
    41fe:	f7ff fe75 	bl	3eec <mavlink_msg_param_value_pack>
c:\users\kruci_000\desktop\university\soc\marsfinder\marsfinder\marsfinder_fw\modules\mavlink/handlers.h:50
                        params.param_name[read.param_index],
                        params.param[read.param_index],
                        MAVLINK_TYPE_FLOAT,
                        ONBOARD_PARAM_COUNT,
                        read.param_index);
                    len = mavlink_msg_to_send_buffer(buffer, &message);
    4202:	f107 020c 	add.w	r2, r7, #12
    4206:	f507 738a 	add.w	r3, r7, #276	; 0x114
    420a:	4610      	mov	r0, r2
    420c:	4619      	mov	r1, r3
    420e:	f7ff fb7d 	bl	390c <mavlink_msg_to_send_buffer>
    4212:	4603      	mov	r3, r0
    4214:	f887 335f 	strb.w	r3, [r7, #863]	; 0x35f
c:\users\kruci_000\desktop\university\soc\marsfinder\marsfinder\marsfinder_fw\modules\mavlink/handlers.h:51
                    BT_send(buffer, len);
    4218:	f897 335f 	ldrb.w	r3, [r7, #863]	; 0x35f
    421c:	f107 020c 	add.w	r2, r7, #12
    4220:	4610      	mov	r0, r2
    4222:	4619      	mov	r1, r3
    4224:	f7fd fe06 	bl	1e34 <BT_send>
c:\users\kruci_000\desktop\university\soc\marsfinder\marsfinder\marsfinder_fw\modules\mavlink/handlers.h:55
                }
            }
        }
        break;
    4228:	e082      	b.n	4330 <handle_mavlink_message+0x1f0>
c:\users\kruci_000\desktop\university\soc\marsfinder\marsfinder\marsfinder_fw\modules\mavlink/handlers.h:55 (discriminator 1)
    422a:	e081      	b.n	4330 <handle_mavlink_message+0x1f0>
c:\users\kruci_000\desktop\university\soc\marsfinder\marsfinder\marsfinder_fw\modules\mavlink/handlers.h:58
    case MAVLINK_MSG_ID_PARAM_SET: {
            mavlink_param_set_t set;
            mavlink_msg_param_set_decode(msg, &set);
    422c:	1d3b      	adds	r3, r7, #4
    422e:	f507 7209 	add.w	r2, r7, #548	; 0x224
    4232:	6818      	ldr	r0, [r3, #0]
    4234:	4611      	mov	r1, r2
    4236:	f7ff fe93 	bl	3f60 <mavlink_msg_param_set_decode>
c:\users\kruci_000\desktop\university\soc\marsfinder\marsfinder\marsfinder_fw\modules\mavlink/handlers.h:61

            // Check if this message is for this system
            if (is_sys_comp_match(set.target_system, set.target_component)) {
    423a:	f507 7309 	add.w	r3, r7, #548	; 0x224
    423e:	791a      	ldrb	r2, [r3, #4]
    4240:	f507 7309 	add.w	r3, r7, #548	; 0x224
    4244:	795b      	ldrb	r3, [r3, #5]
    4246:	4610      	mov	r0, r2
    4248:	4619      	mov	r1, r3
    424a:	f7ff fd61 	bl	3d10 <is_sys_comp_match>
    424e:	4603      	mov	r3, r0
    4250:	2b00      	cmp	r3, #0
    4252:	d06c      	beq.n	432e <handle_mavlink_message+0x1ee>
c:\users\kruci_000\desktop\university\soc\marsfinder\marsfinder\marsfinder_fw\modules\mavlink/handlers.h:62
                char* key = (char*) set.param_id;
    4254:	f507 7309 	add.w	r3, r7, #548	; 0x224
    4258:	3306      	adds	r3, #6
    425a:	f8c7 3358 	str.w	r3, [r7, #856]	; 0x358
c:\users\kruci_000\desktop\university\soc\marsfinder\marsfinder\marsfinder_fw\modules\mavlink/handlers.h:63
                for (uint16_t i = 0; i < ONBOARD_PARAM_COUNT; i++) {
    425e:	2300      	movs	r3, #0
    4260:	f8a7 3366 	strh.w	r3, [r7, #870]	; 0x366
    4264:	e05f      	b.n	4326 <handle_mavlink_message+0x1e6>
c:\users\kruci_000\desktop\university\soc\marsfinder\marsfinder\marsfinder_fw\modules\mavlink/handlers.h:64
                    if (!strcmp(key, params.param_name[i])) {
    4266:	f8b7 3366 	ldrh.w	r3, [r7, #870]	; 0x366
    426a:	011b      	lsls	r3, r3, #4
    426c:	3328      	adds	r3, #40	; 0x28
    426e:	4a32      	ldr	r2, [pc, #200]	; (4338 <handle_mavlink_message+0x1f8>)
    4270:	4413      	add	r3, r2
    4272:	3304      	adds	r3, #4
    4274:	f8d7 0358 	ldr.w	r0, [r7, #856]	; 0x358
    4278:	4619      	mov	r1, r3
    427a:	f001 f9a2 	bl	55c2 <strcmp>
    427e:	4603      	mov	r3, r0
    4280:	2b00      	cmp	r3, #0
    4282:	d14b      	bne.n	431c <handle_mavlink_message+0x1dc>
c:\users\kruci_000\desktop\university\soc\marsfinder\marsfinder\marsfinder_fw\modules\mavlink/handlers.h:65
                        if (params.param[i] != set.param_value
    4284:	f8b7 3366 	ldrh.w	r3, [r7, #870]	; 0x366
    4288:	4a2b      	ldr	r2, [pc, #172]	; (4338 <handle_mavlink_message+0x1f8>)
    428a:	f852 2023 	ldr.w	r2, [r2, r3, lsl #2]
    428e:	f507 7309 	add.w	r3, r7, #548	; 0x224
    4292:	681b      	ldr	r3, [r3, #0]
    4294:	4610      	mov	r0, r2
    4296:	4619      	mov	r1, r3
    4298:	f001 f928 	bl	54ec <__aeabi_fcmpeq>
    429c:	4603      	mov	r3, r0
    429e:	2b00      	cmp	r3, #0
    42a0:	d13c      	bne.n	431c <handle_mavlink_message+0x1dc>
c:\users\kruci_000\desktop\university\soc\marsfinder\marsfinder\marsfinder_fw\modules\mavlink/handlers.h:66
                            && set.param_type == MAVLINK_TYPE_FLOAT) {
    42a2:	f507 7309 	add.w	r3, r7, #548	; 0x224
    42a6:	7d9b      	ldrb	r3, [r3, #22]
    42a8:	2b09      	cmp	r3, #9
    42aa:	d137      	bne.n	431c <handle_mavlink_message+0x1dc>
c:\users\kruci_000\desktop\university\soc\marsfinder\marsfinder\marsfinder_fw\modules\mavlink/handlers.h:67
                            params.param[i] = set.param_value;
    42ac:	f8b7 3366 	ldrh.w	r3, [r7, #870]	; 0x366
    42b0:	f507 7209 	add.w	r2, r7, #548	; 0x224
    42b4:	6812      	ldr	r2, [r2, #0]
    42b6:	4920      	ldr	r1, [pc, #128]	; (4338 <handle_mavlink_message+0x1f8>)
    42b8:	f841 2023 	str.w	r2, [r1, r3, lsl #2]
c:\users\kruci_000\desktop\university\soc\marsfinder\marsfinder\marsfinder_fw\modules\mavlink/handlers.h:72
                            mavlink_message_t message;
                            uint8_t buffer[MAVLINK_MAX_PACKET_LEN];
                            uint8_t len;

                            mavlink_msg_param_value_pack(
    42bc:	4b1f      	ldr	r3, [pc, #124]	; (433c <handle_mavlink_message+0x1fc>)
    42be:	7818      	ldrb	r0, [r3, #0]
    42c0:	4b1e      	ldr	r3, [pc, #120]	; (433c <handle_mavlink_message+0x1fc>)
    42c2:	7859      	ldrb	r1, [r3, #1]
c:\users\kruci_000\desktop\university\soc\marsfinder\marsfinder\marsfinder_fw\modules\mavlink/handlers.h:76
                                mavlink_system.sysid,
                                mavlink_system.compid,
                                &message,
                                params.param_name[i],
    42c4:	f8b7 3366 	ldrh.w	r3, [r7, #870]	; 0x366
    42c8:	011b      	lsls	r3, r3, #4
    42ca:	3328      	adds	r3, #40	; 0x28
    42cc:	4a1a      	ldr	r2, [pc, #104]	; (4338 <handle_mavlink_message+0x1f8>)
    42ce:	4413      	add	r3, r2
    42d0:	1d1c      	adds	r4, r3, #4
c:\users\kruci_000\desktop\university\soc\marsfinder\marsfinder\marsfinder_fw\modules\mavlink/handlers.h:72
                            params.param[i] = set.param_value;
                            mavlink_message_t message;
                            uint8_t buffer[MAVLINK_MAX_PACKET_LEN];
                            uint8_t len;

                            mavlink_msg_param_value_pack(
    42d2:	f8b7 3366 	ldrh.w	r3, [r7, #870]	; 0x366
    42d6:	4a18      	ldr	r2, [pc, #96]	; (4338 <handle_mavlink_message+0x1f8>)
    42d8:	f852 3023 	ldr.w	r3, [r2, r3, lsl #2]
    42dc:	f507 728a 	add.w	r2, r7, #276	; 0x114
    42e0:	9300      	str	r3, [sp, #0]
    42e2:	2309      	movs	r3, #9
    42e4:	9301      	str	r3, [sp, #4]
    42e6:	230b      	movs	r3, #11
    42e8:	9302      	str	r3, [sp, #8]
    42ea:	f8b7 3366 	ldrh.w	r3, [r7, #870]	; 0x366
    42ee:	9303      	str	r3, [sp, #12]
    42f0:	4623      	mov	r3, r4
    42f2:	f7ff fdfb 	bl	3eec <mavlink_msg_param_value_pack>
c:\users\kruci_000\desktop\university\soc\marsfinder\marsfinder\marsfinder_fw\modules\mavlink/handlers.h:81
                                params.param_name[i],
                                params.param[i],
                                MAVLINK_TYPE_FLOAT,
                                ONBOARD_PARAM_COUNT,
                                i);
                            len = mavlink_msg_to_send_buffer(buffer, &message);
    42f6:	f107 020c 	add.w	r2, r7, #12
    42fa:	f507 738a 	add.w	r3, r7, #276	; 0x114
    42fe:	4610      	mov	r0, r2
    4300:	4619      	mov	r1, r3
    4302:	f7ff fb03 	bl	390c <mavlink_msg_to_send_buffer>
    4306:	4603      	mov	r3, r0
    4308:	f887 3357 	strb.w	r3, [r7, #855]	; 0x357
c:\users\kruci_000\desktop\university\soc\marsfinder\marsfinder\marsfinder_fw\modules\mavlink/handlers.h:82
                            BT_send(buffer, len);
    430c:	f897 3357 	ldrb.w	r3, [r7, #855]	; 0x357
    4310:	f107 020c 	add.w	r2, r7, #12
    4314:	4610      	mov	r0, r2
    4316:	4619      	mov	r1, r3
    4318:	f7fd fd8c 	bl	1e34 <BT_send>
c:\users\kruci_000\desktop\university\soc\marsfinder\marsfinder\marsfinder_fw\modules\mavlink/handlers.h:63 (discriminator 2)
            mavlink_msg_param_set_decode(msg, &set);

            // Check if this message is for this system
            if (is_sys_comp_match(set.target_system, set.target_component)) {
                char* key = (char*) set.param_id;
                for (uint16_t i = 0; i < ONBOARD_PARAM_COUNT; i++) {
    431c:	f8b7 3366 	ldrh.w	r3, [r7, #870]	; 0x366
    4320:	3301      	adds	r3, #1
    4322:	f8a7 3366 	strh.w	r3, [r7, #870]	; 0x366
c:\users\kruci_000\desktop\university\soc\marsfinder\marsfinder\marsfinder_fw\modules\mavlink/handlers.h:63 (discriminator 1)
    4326:	f8b7 3366 	ldrh.w	r3, [r7, #870]	; 0x366
    432a:	2b0a      	cmp	r3, #10
    432c:	d99b      	bls.n	4266 <handle_mavlink_message+0x126>
c:\users\kruci_000\desktop\university\soc\marsfinder\marsfinder\marsfinder_fw\modules\mavlink/handlers.h:88 (discriminator 3)
                        }
                    }
                }
            }
        }
        break;
    432e:	bf00      	nop
c:\users\kruci_000\desktop\university\soc\marsfinder\marsfinder\marsfinder_fw\modules\mavlink/handlers.h:90
    }
}
    4330:	f507 775a 	add.w	r7, r7, #872	; 0x368
    4334:	46bd      	mov	sp, r7
    4336:	bdb0      	pop	{r4, r5, r7, pc}
    4338:	20000004 	.word	0x20000004
    433c:	200000e0 	.word	0x200000e0

00004340 <main>:
main():
C:\Users\kruci_000\Desktop\University\SoC\Marsfinder\Marsfinder\Marsfinder_FW\Debug/../main.c:33

#include <stdio.h>

void setup(void);

int main(void) {
    4340:	b580      	push	{r7, lr}
    4342:	b0e0      	sub	sp, #384	; 0x180
    4344:	af04      	add	r7, sp, #16
C:\Users\kruci_000\Desktop\University\SoC\Marsfinder\Marsfinder\Marsfinder_FW\Debug/../main.c:34
    setup();
    4346:	f000 f84f 	bl	43e8 <setup>
C:\Users\kruci_000\Desktop\University\SoC\Marsfinder\Marsfinder\Marsfinder_FW\Debug/../main.c:45

    mavlink_message_t msg;
    mavlink_status_t status;

    while (1) {
        delay(1000);
    434a:	f44f 707a 	mov.w	r0, #1000	; 0x3e8
    434e:	f04f 0100 	mov.w	r1, #0
    4352:	f7ff f899 	bl	3488 <delay>
C:\Users\kruci_000\Desktop\University\SoC\Marsfinder\Marsfinder\Marsfinder_FW\Debug/../main.c:47

        MPU6050_getScaledData(&params.param[PARAM_AX],
    4356:	4b13      	ldr	r3, [pc, #76]	; (43a4 <main+0x64>)
    4358:	9300      	str	r3, [sp, #0]
    435a:	4b13      	ldr	r3, [pc, #76]	; (43a8 <main+0x68>)
    435c:	9301      	str	r3, [sp, #4]
    435e:	4b13      	ldr	r3, [pc, #76]	; (43ac <main+0x6c>)
    4360:	9302      	str	r3, [sp, #8]
    4362:	4813      	ldr	r0, [pc, #76]	; (43b0 <main+0x70>)
    4364:	4913      	ldr	r1, [pc, #76]	; (43b4 <main+0x74>)
    4366:	4a14      	ldr	r2, [pc, #80]	; (43b8 <main+0x78>)
    4368:	4b14      	ldr	r3, [pc, #80]	; (43bc <main+0x7c>)
    436a:	f7fe fa85 	bl	2878 <MPU6050_getScaledData>
C:\Users\kruci_000\Desktop\University\SoC\Marsfinder\Marsfinder\Marsfinder_FW\Debug/../main.c:59
/* HMC isn't working now
        HMC_get_scaled_Data(&params.param[PARAM_MX],
                            &params.param[PARAM_MY],
                            &params.param[PARAM_MZ]);
*/
        UART_get_rx(&g_bt, &rx_c, 1);
    436e:	f207 131f 	addw	r3, r7, #287	; 0x11f
    4372:	4813      	ldr	r0, [pc, #76]	; (43c0 <main+0x80>)
    4374:	4619      	mov	r1, r3
    4376:	2201      	movs	r2, #1
    4378:	f7fc fe6a 	bl	1050 <UART_get_rx>
C:\Users\kruci_000\Desktop\University\SoC\Marsfinder\Marsfinder\Marsfinder_FW\Debug/../main.c:60
        if (mavlink_parse_char(MAVLINK_COMM_0, rx_c, &msg, &status)) {
    437c:	f897 111f 	ldrb.w	r1, [r7, #287]	; 0x11f
    4380:	f107 020c 	add.w	r2, r7, #12
    4384:	463b      	mov	r3, r7
    4386:	2000      	movs	r0, #0
    4388:	f7ff fc82 	bl	3c90 <mavlink_parse_char>
    438c:	4603      	mov	r3, r0
    438e:	2b00      	cmp	r3, #0
    4390:	d004      	beq.n	439c <main+0x5c>
C:\Users\kruci_000\Desktop\University\SoC\Marsfinder\Marsfinder\Marsfinder_FW\Debug/../main.c:61
            handle_mavlink_message(&msg);
    4392:	f107 030c 	add.w	r3, r7, #12
    4396:	4618      	mov	r0, r3
    4398:	f7ff fed2 	bl	4140 <handle_mavlink_message>
C:\Users\kruci_000\Desktop\University\SoC\Marsfinder\Marsfinder\Marsfinder_FW\Debug/../main.c:63
        }
        param_queued_send_routine();
    439c:	f7fd ffac 	bl	22f8 <param_queued_send_routine>
C:\Users\kruci_000\Desktop\University\SoC\Marsfinder\Marsfinder\Marsfinder_FW\Debug/../main.c:64
    }
    43a0:	e7d3      	b.n	434a <main+0xa>
    43a2:	bf00      	nop
    43a4:	20000014 	.word	0x20000014
    43a8:	20000018 	.word	0x20000018
    43ac:	20000028 	.word	0x20000028
    43b0:	20000004 	.word	0x20000004
    43b4:	20000008 	.word	0x20000008
    43b8:	2000000c 	.word	0x2000000c
    43bc:	20000010 	.word	0x20000010
    43c0:	20000620 	.word	0x20000620

000043c4 <SysTick_Handler>:
SysTick_Handler():
C:\Users\kruci_000\Desktop\University\SoC\Marsfinder\Marsfinder\Marsfinder_FW\Debug/../main.c:71
}

/*------------------------------------------------------------------------------
 * Service the I2C timeout functionality.
 */
void SysTick_Handler(void) {
    43c4:	b580      	push	{r7, lr}
    43c6:	af00      	add	r7, sp, #0
C:\Users\kruci_000\Desktop\University\SoC\Marsfinder\Marsfinder\Marsfinder_FW\Debug/../main.c:72
    I2C_system_tick(&g_core_i2c, 10);
    43c8:	4802      	ldr	r0, [pc, #8]	; (43d4 <SysTick_Handler+0x10>)
    43ca:	210a      	movs	r1, #10
    43cc:	f7fc ffe8 	bl	13a0 <I2C_system_tick>
C:\Users\kruci_000\Desktop\University\SoC\Marsfinder\Marsfinder\Marsfinder_FW\Debug/../main.c:73
}
    43d0:	bd80      	pop	{r7, pc}
    43d2:	bf00      	nop
    43d4:	2000062c 	.word	0x2000062c

000043d8 <FabricIrq0_IRQHandler>:
FabricIrq0_IRQHandler():
C:\Users\kruci_000\Desktop\University\SoC\Marsfinder\Marsfinder\Marsfinder_FW\Debug/../main.c:74
void FabricIrq0_IRQHandler(void) {
    43d8:	b580      	push	{r7, lr}
    43da:	af00      	add	r7, sp, #0
C:\Users\kruci_000\Desktop\University\SoC\Marsfinder\Marsfinder\Marsfinder_FW\Debug/../main.c:75
    I2C_isr(&g_core_i2c);
    43dc:	4801      	ldr	r0, [pc, #4]	; (43e4 <FabricIrq0_IRQHandler+0xc>)
    43de:	f7fd f81f 	bl	1420 <I2C_isr>
C:\Users\kruci_000\Desktop\University\SoC\Marsfinder\Marsfinder\Marsfinder_FW\Debug/../main.c:76
}
    43e2:	bd80      	pop	{r7, pc}
    43e4:	2000062c 	.word	0x2000062c

000043e8 <setup>:
setup():
C:\Users\kruci_000\Desktop\University\SoC\Marsfinder\Marsfinder\Marsfinder_FW\Debug/../main.c:78

void setup() {
    43e8:	b580      	push	{r7, lr}
    43ea:	af00      	add	r7, sp, #0
C:\Users\kruci_000\Desktop\University\SoC\Marsfinder\Marsfinder\Marsfinder_FW\Debug/../main.c:80
    // Enable usec
    MSS_TIM1_init(MSS_TIMER_PERIODIC_MODE);
    43ec:	2000      	movs	r0, #0
    43ee:	f7ff f905 	bl	35fc <MSS_TIM1_init>
C:\Users\kruci_000\Desktop\University\SoC\Marsfinder\Marsfinder\Marsfinder_FW\Debug/../main.c:81
    MSS_TIM1_load_background(MSS_SYS_M3_CLK_FREQ / 20); // TODO Remove hardcode
    43f2:	480e      	ldr	r0, [pc, #56]	; (442c <setup+0x44>)
    43f4:	f7ff f93a 	bl	366c <MSS_TIM1_load_background>
C:\Users\kruci_000\Desktop\University\SoC\Marsfinder\Marsfinder\Marsfinder_FW\Debug/../main.c:82
    MSS_TIM1_start();
    43f8:	f7ff f92c 	bl	3654 <MSS_TIM1_start>
C:\Users\kruci_000\Desktop\University\SoC\Marsfinder\Marsfinder\Marsfinder_FW\Debug/../main.c:83
    MSS_TIM1_enable_irq();
    43fc:	f7ff f944 	bl	3688 <MSS_TIM1_enable_irq>
C:\Users\kruci_000\Desktop\University\SoC\Marsfinder\Marsfinder\Marsfinder_FW\Debug/../main.c:85

    uart_init();
    4400:	f7fd fd28 	bl	1e54 <uart_init>
C:\Users\kruci_000\Desktop\University\SoC\Marsfinder\Marsfinder\Marsfinder_FW\Debug/../main.c:86
    i2c_init();
    4404:	f7fe fb38 	bl	2a78 <i2c_init>
C:\Users\kruci_000\Desktop\University\SoC\Marsfinder\Marsfinder\Marsfinder_FW\Debug/../main.c:87
    mavlink_sys_update(MAV_MODE_AUTO_ARMED, MAV_STATE_STANDBY);
    4408:	20dc      	movs	r0, #220	; 0xdc
    440a:	2103      	movs	r1, #3
    440c:	f7fe fb1c 	bl	2a48 <mavlink_sys_update>
C:\Users\kruci_000\Desktop\University\SoC\Marsfinder\Marsfinder\Marsfinder_FW\Debug/../main.c:88
    MPU6050_init();
    4410:	f7fd ff88 	bl	2324 <MPU6050_init>
C:\Users\kruci_000\Desktop\University\SoC\Marsfinder\Marsfinder\Marsfinder_FW\Debug/../main.c:91
    // HMC_init();

    beta = 3.14159265358979f * (5.0f / 180.0f) * sqrt(3.0f / 4.0f);
    4414:	4b06      	ldr	r3, [pc, #24]	; (4430 <setup+0x48>)
    4416:	4a07      	ldr	r2, [pc, #28]	; (4434 <setup+0x4c>)
    4418:	601a      	str	r2, [r3, #0]
C:\Users\kruci_000\Desktop\University\SoC\Marsfinder\Marsfinder\Marsfinder_FW\Debug/../main.c:97

    /*-------------------------------------------------------------------------
     * Initialize the system tick for 10mS operation or 1 tick every 100th of
     * a second and also make sure it is lower priority than the I2C IRQs.
     */
    NVIC_SetPriority(SysTick_IRQn, 0xFFu); /* Lowest possible priority */
    441a:	f04f 30ff 	mov.w	r0, #4294967295
    441e:	21ff      	movs	r1, #255	; 0xff
    4420:	f7ff f8a0 	bl	3564 <NVIC_SetPriority>
C:\Users\kruci_000\Desktop\University\SoC\Marsfinder\Marsfinder\Marsfinder_FW\Debug/../main.c:98
    SysTick_Config(MSS_SYS_M3_CLK_FREQ / 100);
    4424:	4804      	ldr	r0, [pc, #16]	; (4438 <setup+0x50>)
    4426:	f7ff f8c7 	bl	35b8 <SysTick_Config>
C:\Users\kruci_000\Desktop\University\SoC\Marsfinder\Marsfinder\Marsfinder_FW\Debug/../main.c:99
}
    442a:	bd80      	pop	{r7, pc}
    442c:	002625a0 	.word	0x002625a0
    4430:	200000e4 	.word	0x200000e4
    4434:	3d9ac70e 	.word	0x3d9ac70e
    4438:	0007a120 	.word	0x0007a120
$d():
    443c:	00000000 	.word	0x00000000

00004440 <Timer1_IRQHandler>:
Timer1_IRQHandler():
C:\Users\kruci_000\Desktop\University\SoC\Marsfinder\Marsfinder\Marsfinder_FW\Debug/../main.c:101

void Timer1_IRQHandler() {
    4440:	e92d 4ff0 	stmdb	sp!, {r4, r5, r6, r7, r8, r9, sl, fp, lr}
    4444:	b0d9      	sub	sp, #356	; 0x164
    4446:	af10      	add	r7, sp, #64	; 0x40
C:\Users\kruci_000\Desktop\University\SoC\Marsfinder\Marsfinder\Marsfinder_FW\Debug/../main.c:104
    mavlink_message_t msg;

    mavlink_msg_heartbeat_pack(
    4448:	4bb9      	ldr	r3, [pc, #740]	; (4730 <Timer1_IRQHandler+0x2f0>)
    444a:	7818      	ldrb	r0, [r3, #0]
    444c:	4bb8      	ldr	r3, [pc, #736]	; (4730 <Timer1_IRQHandler+0x2f0>)
    444e:	785d      	ldrb	r5, [r3, #1]
    4450:	4bb8      	ldr	r3, [pc, #736]	; (4734 <Timer1_IRQHandler+0x2f4>)
    4452:	781a      	ldrb	r2, [r3, #0]
    4454:	4bb8      	ldr	r3, [pc, #736]	; (4738 <Timer1_IRQHandler+0x2f8>)
    4456:	781b      	ldrb	r3, [r3, #0]
    4458:	f107 0410 	add.w	r4, r7, #16
    445c:	2100      	movs	r1, #0
    445e:	9100      	str	r1, [sp, #0]
    4460:	9201      	str	r2, [sp, #4]
    4462:	2200      	movs	r2, #0
    4464:	9202      	str	r2, [sp, #8]
    4466:	9303      	str	r3, [sp, #12]
    4468:	4629      	mov	r1, r5
    446a:	4622      	mov	r2, r4
    446c:	230a      	movs	r3, #10
    446e:	f7ff fca1 	bl	3db4 <mavlink_msg_heartbeat_pack>
C:\Users\kruci_000\Desktop\University\SoC\Marsfinder\Marsfinder\Marsfinder_FW\Debug/../main.c:113
            MAV_TYPE_GROUND_ROVER,
            MAV_AUTOPILOT_GENERIC,
            mavlink_sys_mode,
            0,
            mavlink_sys_state);
    mavlink_send_msg(&msg);
    4472:	f107 0310 	add.w	r3, r7, #16
    4476:	4618      	mov	r0, r3
    4478:	f7ff fc68 	bl	3d4c <mavlink_send_msg>
C:\Users\kruci_000\Desktop\University\SoC\Marsfinder\Marsfinder\Marsfinder_FW\Debug/../main.c:115

    mavlink_msg_sys_status_pack(
    447c:	4bac      	ldr	r3, [pc, #688]	; (4730 <Timer1_IRQHandler+0x2f0>)
    447e:	7818      	ldrb	r0, [r3, #0]
    4480:	4bab      	ldr	r3, [pc, #684]	; (4730 <Timer1_IRQHandler+0x2f0>)
    4482:	7859      	ldrb	r1, [r3, #1]
    4484:	f107 0210 	add.w	r2, r7, #16
    4488:	2307      	movs	r3, #7
    448a:	9300      	str	r3, [sp, #0]
    448c:	232f      	movs	r3, #47	; 0x2f
    448e:	9301      	str	r3, [sp, #4]
    4490:	2332      	movs	r3, #50	; 0x32
    4492:	9302      	str	r3, [sp, #8]
    4494:	2300      	movs	r3, #0
    4496:	9303      	str	r3, [sp, #12]
    4498:	f04f 33ff 	mov.w	r3, #4294967295
    449c:	9304      	str	r3, [sp, #16]
    449e:	f04f 33ff 	mov.w	r3, #4294967295
    44a2:	9305      	str	r3, [sp, #20]
    44a4:	2300      	movs	r3, #0
    44a6:	9306      	str	r3, [sp, #24]
    44a8:	2300      	movs	r3, #0
    44aa:	9307      	str	r3, [sp, #28]
    44ac:	2300      	movs	r3, #0
    44ae:	9308      	str	r3, [sp, #32]
    44b0:	2300      	movs	r3, #0
    44b2:	9309      	str	r3, [sp, #36]	; 0x24
    44b4:	2300      	movs	r3, #0
    44b6:	930a      	str	r3, [sp, #40]	; 0x28
    44b8:	2300      	movs	r3, #0
    44ba:	930b      	str	r3, [sp, #44]	; 0x2c
    44bc:	232f      	movs	r3, #47	; 0x2f
    44be:	f7ff fcaf 	bl	3e20 <mavlink_msg_sys_status_pack>
C:\Users\kruci_000\Desktop\University\SoC\Marsfinder\Marsfinder\Marsfinder_FW\Debug/../main.c:142
            0,
            0,
            0,
            0,
            0);
    mavlink_send_msg(&msg);
    44c2:	f107 0310 	add.w	r3, r7, #16
    44c6:	4618      	mov	r0, r3
    44c8:	f7ff fc40 	bl	3d4c <mavlink_send_msg>
C:\Users\kruci_000\Desktop\University\SoC\Marsfinder\Marsfinder\Marsfinder_FW\Debug/../main.c:144

    mavlink_msg_autopilot_version_pack(
    44cc:	4b98      	ldr	r3, [pc, #608]	; (4730 <Timer1_IRQHandler+0x2f0>)
    44ce:	7818      	ldrb	r0, [r3, #0]
    44d0:	4b97      	ldr	r3, [pc, #604]	; (4730 <Timer1_IRQHandler+0x2f0>)
    44d2:	7859      	ldrb	r1, [r3, #1]
    44d4:	f107 0410 	add.w	r4, r7, #16
    44d8:	f04f 0200 	mov.w	r2, #0
    44dc:	f04f 0300 	mov.w	r3, #0
    44e0:	e9cd 2300 	strd	r2, r3, [sp]
    44e4:	232a      	movs	r3, #42	; 0x2a
    44e6:	9302      	str	r3, [sp, #8]
    44e8:	232a      	movs	r3, #42	; 0x2a
    44ea:	9303      	str	r3, [sp, #12]
    44ec:	232a      	movs	r3, #42	; 0x2a
    44ee:	9304      	str	r3, [sp, #16]
    44f0:	232a      	movs	r3, #42	; 0x2a
    44f2:	9305      	str	r3, [sp, #20]
    44f4:	4b91      	ldr	r3, [pc, #580]	; (473c <Timer1_IRQHandler+0x2fc>)
    44f6:	9306      	str	r3, [sp, #24]
    44f8:	4b90      	ldr	r3, [pc, #576]	; (473c <Timer1_IRQHandler+0x2fc>)
    44fa:	9307      	str	r3, [sp, #28]
    44fc:	4b8f      	ldr	r3, [pc, #572]	; (473c <Timer1_IRQHandler+0x2fc>)
    44fe:	9308      	str	r3, [sp, #32]
    4500:	232a      	movs	r3, #42	; 0x2a
    4502:	9309      	str	r3, [sp, #36]	; 0x24
    4504:	232a      	movs	r3, #42	; 0x2a
    4506:	930a      	str	r3, [sp, #40]	; 0x28
    4508:	f04f 022a 	mov.w	r2, #42	; 0x2a
    450c:	f04f 0300 	mov.w	r3, #0
    4510:	e9cd 230c 	strd	r2, r3, [sp, #48]	; 0x30
    4514:	4622      	mov	r2, r4
    4516:	f7ff fdbf 	bl	4098 <mavlink_msg_autopilot_version_pack>
C:\Users\kruci_000\Desktop\University\SoC\Marsfinder\Marsfinder\Marsfinder_FW\Debug/../main.c:159
            "DEADBEEF",
            "DEADBEEF",
            42,
            42,
            42);
    mavlink_send_msg(&msg);
    451a:	f107 0310 	add.w	r3, r7, #16
    451e:	4618      	mov	r0, r3
    4520:	f7ff fc14 	bl	3d4c <mavlink_send_msg>
C:\Users\kruci_000\Desktop\University\SoC\Marsfinder\Marsfinder\Marsfinder_FW\Debug/../main.c:161

    mavlink_msg_highres_imu_pack(
    4524:	4b82      	ldr	r3, [pc, #520]	; (4730 <Timer1_IRQHandler+0x2f0>)
    4526:	781b      	ldrb	r3, [r3, #0]
    4528:	60fb      	str	r3, [r7, #12]
    452a:	4b81      	ldr	r3, [pc, #516]	; (4730 <Timer1_IRQHandler+0x2f0>)
    452c:	785a      	ldrb	r2, [r3, #1]
    452e:	60ba      	str	r2, [r7, #8]
    4530:	f7fd fca4 	bl	1e7c <usec>
    4534:	4604      	mov	r4, r0
    4536:	460d      	mov	r5, r1
    4538:	4b81      	ldr	r3, [pc, #516]	; (4740 <Timer1_IRQHandler+0x300>)
    453a:	681e      	ldr	r6, [r3, #0]
    453c:	607e      	str	r6, [r7, #4]
    453e:	4b80      	ldr	r3, [pc, #512]	; (4740 <Timer1_IRQHandler+0x300>)
    4540:	f8d3 b004 	ldr.w	fp, [r3, #4]
    4544:	4b7e      	ldr	r3, [pc, #504]	; (4740 <Timer1_IRQHandler+0x300>)
    4546:	f8d3 a008 	ldr.w	sl, [r3, #8]
    454a:	4b7d      	ldr	r3, [pc, #500]	; (4740 <Timer1_IRQHandler+0x300>)
    454c:	f8d3 900c 	ldr.w	r9, [r3, #12]
    4550:	4b7b      	ldr	r3, [pc, #492]	; (4740 <Timer1_IRQHandler+0x300>)
    4552:	f8d3 8010 	ldr.w	r8, [r3, #16]
    4556:	4b7a      	ldr	r3, [pc, #488]	; (4740 <Timer1_IRQHandler+0x300>)
    4558:	f8d3 c014 	ldr.w	ip, [r3, #20]
    455c:	4b78      	ldr	r3, [pc, #480]	; (4740 <Timer1_IRQHandler+0x300>)
    455e:	f8d3 e018 	ldr.w	lr, [r3, #24]
    4562:	4b77      	ldr	r3, [pc, #476]	; (4740 <Timer1_IRQHandler+0x300>)
    4564:	69de      	ldr	r6, [r3, #28]
    4566:	4b76      	ldr	r3, [pc, #472]	; (4740 <Timer1_IRQHandler+0x300>)
    4568:	6a18      	ldr	r0, [r3, #32]
    456a:	4b75      	ldr	r3, [pc, #468]	; (4740 <Timer1_IRQHandler+0x300>)
    456c:	6a59      	ldr	r1, [r3, #36]	; 0x24
    456e:	f107 0210 	add.w	r2, r7, #16
    4572:	e9cd 4500 	strd	r4, r5, [sp]
    4576:	687c      	ldr	r4, [r7, #4]
    4578:	9402      	str	r4, [sp, #8]
    457a:	f8cd b00c 	str.w	fp, [sp, #12]
    457e:	f8cd a010 	str.w	sl, [sp, #16]
    4582:	f8cd 9014 	str.w	r9, [sp, #20]
    4586:	f8cd 8018 	str.w	r8, [sp, #24]
    458a:	f8cd c01c 	str.w	ip, [sp, #28]
    458e:	f8cd e020 	str.w	lr, [sp, #32]
    4592:	9609      	str	r6, [sp, #36]	; 0x24
    4594:	900a      	str	r0, [sp, #40]	; 0x28
    4596:	f04f 0300 	mov.w	r3, #0
    459a:	930b      	str	r3, [sp, #44]	; 0x2c
    459c:	f04f 0300 	mov.w	r3, #0
    45a0:	930c      	str	r3, [sp, #48]	; 0x30
    45a2:	f04f 0300 	mov.w	r3, #0
    45a6:	930d      	str	r3, [sp, #52]	; 0x34
    45a8:	910e      	str	r1, [sp, #56]	; 0x38
    45aa:	f241 13ff 	movw	r3, #4607	; 0x11ff
    45ae:	930f      	str	r3, [sp, #60]	; 0x3c
    45b0:	68f8      	ldr	r0, [r7, #12]
    45b2:	68b9      	ldr	r1, [r7, #8]
    45b4:	f7ff fd26 	bl	4004 <mavlink_msg_highres_imu_pack>
C:\Users\kruci_000\Desktop\University\SoC\Marsfinder\Marsfinder\Marsfinder_FW\Debug/../main.c:180
            0,
            0,
            0,
            params.param[PARAM_T],
            (1 << 12) | ((1 << 9) - 1));
    mavlink_send_msg(&msg);
    45b8:	f107 0310 	add.w	r3, r7, #16
    45bc:	4618      	mov	r0, r3
    45be:	f7ff fbc5 	bl	3d4c <mavlink_send_msg>
C:\Users\kruci_000\Desktop\University\SoC\Marsfinder\Marsfinder\Marsfinder_FW\Debug/../main.c:182

    mavlink_msg_attitude_quaternion_pack(
    45c2:	4b5b      	ldr	r3, [pc, #364]	; (4730 <Timer1_IRQHandler+0x2f0>)
    45c4:	f893 a000 	ldrb.w	sl, [r3]
    45c8:	4b59      	ldr	r3, [pc, #356]	; (4730 <Timer1_IRQHandler+0x2f0>)
    45ca:	f893 9001 	ldrb.w	r9, [r3, #1]
C:\Users\kruci_000\Desktop\University\SoC\Marsfinder\Marsfinder\Marsfinder_FW\Debug/../main.c:186
            mavlink_system.sysid,
            mavlink_system.compid,
            &msg,
            usec(),
    45ce:	f7fd fc55 	bl	1e7c <usec>
    45d2:	4602      	mov	r2, r0
    45d4:	460b      	mov	r3, r1
C:\Users\kruci_000\Desktop\University\SoC\Marsfinder\Marsfinder\Marsfinder_FW\Debug/../main.c:182
            0,
            params.param[PARAM_T],
            (1 << 12) | ((1 << 9) - 1));
    mavlink_send_msg(&msg);

    mavlink_msg_attitude_quaternion_pack(
    45d6:	60fa      	str	r2, [r7, #12]
    45d8:	4b5a      	ldr	r3, [pc, #360]	; (4744 <Timer1_IRQHandler+0x304>)
    45da:	f8d3 8000 	ldr.w	r8, [r3]
    45de:	4b5a      	ldr	r3, [pc, #360]	; (4748 <Timer1_IRQHandler+0x308>)
    45e0:	681e      	ldr	r6, [r3, #0]
    45e2:	4b5a      	ldr	r3, [pc, #360]	; (474c <Timer1_IRQHandler+0x30c>)
    45e4:	681d      	ldr	r5, [r3, #0]
    45e6:	4b5a      	ldr	r3, [pc, #360]	; (4750 <Timer1_IRQHandler+0x310>)
    45e8:	681c      	ldr	r4, [r3, #0]
C:\Users\kruci_000\Desktop\University\SoC\Marsfinder\Marsfinder\Marsfinder_FW\Debug/../main.c:191
            usec(),
            q0,
            q1,
            q2,
            q3,
            params.param[PARAM_GX] * DEG_TO_RAD,
    45ea:	4b55      	ldr	r3, [pc, #340]	; (4740 <Timer1_IRQHandler+0x300>)
    45ec:	68db      	ldr	r3, [r3, #12]
    45ee:	4618      	mov	r0, r3
    45f0:	f000 fa24 	bl	4a3c <__aeabi_f2d>
    45f4:	4602      	mov	r2, r0
    45f6:	460b      	mov	r3, r1
    45f8:	4610      	mov	r0, r2
    45fa:	4619      	mov	r1, r3
    45fc:	a34a      	add	r3, pc, #296	; (adr r3, 4728 <Timer1_IRQHandler+0x2e8>)
    45fe:	e9d3 2300 	ldrd	r2, r3, [r3]
    4602:	f000 fa6f 	bl	4ae4 <__aeabi_dmul>
    4606:	4602      	mov	r2, r0
    4608:	460b      	mov	r3, r1
C:\Users\kruci_000\Desktop\University\SoC\Marsfinder\Marsfinder\Marsfinder_FW\Debug/../main.c:182
            0,
            params.param[PARAM_T],
            (1 << 12) | ((1 << 9) - 1));
    mavlink_send_msg(&msg);

    mavlink_msg_attitude_quaternion_pack(
    460a:	4610      	mov	r0, r2
    460c:	4619      	mov	r1, r3
    460e:	f000 fc7b 	bl	4f08 <__aeabi_d2f>
    4612:	60b8      	str	r0, [r7, #8]
C:\Users\kruci_000\Desktop\University\SoC\Marsfinder\Marsfinder\Marsfinder_FW\Debug/../main.c:192
            q0,
            q1,
            q2,
            q3,
            params.param[PARAM_GX] * DEG_TO_RAD,
            params.param[PARAM_GY] * DEG_TO_RAD,
    4614:	4b4a      	ldr	r3, [pc, #296]	; (4740 <Timer1_IRQHandler+0x300>)
    4616:	691b      	ldr	r3, [r3, #16]
    4618:	4618      	mov	r0, r3
    461a:	f000 fa0f 	bl	4a3c <__aeabi_f2d>
    461e:	4602      	mov	r2, r0
    4620:	460b      	mov	r3, r1
    4622:	4610      	mov	r0, r2
    4624:	4619      	mov	r1, r3
    4626:	a340      	add	r3, pc, #256	; (adr r3, 4728 <Timer1_IRQHandler+0x2e8>)
    4628:	e9d3 2300 	ldrd	r2, r3, [r3]
    462c:	f000 fa5a 	bl	4ae4 <__aeabi_dmul>
    4630:	4602      	mov	r2, r0
    4632:	460b      	mov	r3, r1
C:\Users\kruci_000\Desktop\University\SoC\Marsfinder\Marsfinder\Marsfinder_FW\Debug/../main.c:182
            0,
            params.param[PARAM_T],
            (1 << 12) | ((1 << 9) - 1));
    mavlink_send_msg(&msg);

    mavlink_msg_attitude_quaternion_pack(
    4634:	4610      	mov	r0, r2
    4636:	4619      	mov	r1, r3
    4638:	f000 fc66 	bl	4f08 <__aeabi_d2f>
    463c:	4683      	mov	fp, r0
C:\Users\kruci_000\Desktop\University\SoC\Marsfinder\Marsfinder\Marsfinder_FW\Debug/../main.c:193
            q1,
            q2,
            q3,
            params.param[PARAM_GX] * DEG_TO_RAD,
            params.param[PARAM_GY] * DEG_TO_RAD,
            params.param[PARAM_GZ] * DEG_TO_RAD);
    463e:	4b40      	ldr	r3, [pc, #256]	; (4740 <Timer1_IRQHandler+0x300>)
    4640:	695b      	ldr	r3, [r3, #20]
    4642:	4618      	mov	r0, r3
    4644:	f000 f9fa 	bl	4a3c <__aeabi_f2d>
    4648:	4602      	mov	r2, r0
    464a:	460b      	mov	r3, r1
    464c:	4610      	mov	r0, r2
    464e:	4619      	mov	r1, r3
    4650:	a335      	add	r3, pc, #212	; (adr r3, 4728 <Timer1_IRQHandler+0x2e8>)
    4652:	e9d3 2300 	ldrd	r2, r3, [r3]
    4656:	f000 fa45 	bl	4ae4 <__aeabi_dmul>
    465a:	4602      	mov	r2, r0
    465c:	460b      	mov	r3, r1
C:\Users\kruci_000\Desktop\University\SoC\Marsfinder\Marsfinder\Marsfinder_FW\Debug/../main.c:182
            0,
            params.param[PARAM_T],
            (1 << 12) | ((1 << 9) - 1));
    mavlink_send_msg(&msg);

    mavlink_msg_attitude_quaternion_pack(
    465e:	4610      	mov	r0, r2
    4660:	4619      	mov	r1, r3
    4662:	f000 fc51 	bl	4f08 <__aeabi_d2f>
    4666:	4602      	mov	r2, r0
    4668:	f107 0310 	add.w	r3, r7, #16
    466c:	f8cd 8000 	str.w	r8, [sp]
    4670:	9601      	str	r6, [sp, #4]
    4672:	9502      	str	r5, [sp, #8]
    4674:	9403      	str	r4, [sp, #12]
    4676:	68b9      	ldr	r1, [r7, #8]
    4678:	9104      	str	r1, [sp, #16]
    467a:	f8cd b014 	str.w	fp, [sp, #20]
    467e:	9206      	str	r2, [sp, #24]
    4680:	4650      	mov	r0, sl
    4682:	4649      	mov	r1, r9
    4684:	461a      	mov	r2, r3
    4686:	68fb      	ldr	r3, [r7, #12]
    4688:	f7ff fc86 	bl	3f98 <mavlink_msg_attitude_quaternion_pack>
C:\Users\kruci_000\Desktop\University\SoC\Marsfinder\Marsfinder\Marsfinder_FW\Debug/../main.c:194
            q2,
            q3,
            params.param[PARAM_GX] * DEG_TO_RAD,
            params.param[PARAM_GY] * DEG_TO_RAD,
            params.param[PARAM_GZ] * DEG_TO_RAD);
    mavlink_send_msg(&msg);
    468c:	f107 0310 	add.w	r3, r7, #16
    4690:	4618      	mov	r0, r3
    4692:	f7ff fb5b 	bl	3d4c <mavlink_send_msg>
C:\Users\kruci_000\Desktop\University\SoC\Marsfinder\Marsfinder\Marsfinder_FW\Debug/../main.c:196

    MadgwickAHRSupdateIMU(params.param[PARAM_GX] * DEG_TO_RAD,
    4696:	4b2a      	ldr	r3, [pc, #168]	; (4740 <Timer1_IRQHandler+0x300>)
    4698:	68db      	ldr	r3, [r3, #12]
    469a:	4618      	mov	r0, r3
    469c:	f000 f9ce 	bl	4a3c <__aeabi_f2d>
    46a0:	4602      	mov	r2, r0
    46a2:	460b      	mov	r3, r1
    46a4:	4610      	mov	r0, r2
    46a6:	4619      	mov	r1, r3
    46a8:	a31f      	add	r3, pc, #124	; (adr r3, 4728 <Timer1_IRQHandler+0x2e8>)
    46aa:	e9d3 2300 	ldrd	r2, r3, [r3]
    46ae:	f000 fa19 	bl	4ae4 <__aeabi_dmul>
    46b2:	4602      	mov	r2, r0
    46b4:	460b      	mov	r3, r1
    46b6:	4610      	mov	r0, r2
    46b8:	4619      	mov	r1, r3
    46ba:	f000 fc25 	bl	4f08 <__aeabi_d2f>
    46be:	4680      	mov	r8, r0
C:\Users\kruci_000\Desktop\University\SoC\Marsfinder\Marsfinder\Marsfinder_FW\Debug/../main.c:197
                          params.param[PARAM_GY] * DEG_TO_RAD,
    46c0:	4b1f      	ldr	r3, [pc, #124]	; (4740 <Timer1_IRQHandler+0x300>)
    46c2:	691b      	ldr	r3, [r3, #16]
    46c4:	4618      	mov	r0, r3
    46c6:	f000 f9b9 	bl	4a3c <__aeabi_f2d>
    46ca:	4602      	mov	r2, r0
    46cc:	460b      	mov	r3, r1
    46ce:	4610      	mov	r0, r2
    46d0:	4619      	mov	r1, r3
    46d2:	a315      	add	r3, pc, #84	; (adr r3, 4728 <Timer1_IRQHandler+0x2e8>)
    46d4:	e9d3 2300 	ldrd	r2, r3, [r3]
    46d8:	f000 fa04 	bl	4ae4 <__aeabi_dmul>
    46dc:	4602      	mov	r2, r0
    46de:	460b      	mov	r3, r1
C:\Users\kruci_000\Desktop\University\SoC\Marsfinder\Marsfinder\Marsfinder_FW\Debug/../main.c:196
            params.param[PARAM_GX] * DEG_TO_RAD,
            params.param[PARAM_GY] * DEG_TO_RAD,
            params.param[PARAM_GZ] * DEG_TO_RAD);
    mavlink_send_msg(&msg);

    MadgwickAHRSupdateIMU(params.param[PARAM_GX] * DEG_TO_RAD,
    46e0:	4610      	mov	r0, r2
    46e2:	4619      	mov	r1, r3
    46e4:	f000 fc10 	bl	4f08 <__aeabi_d2f>
    46e8:	4606      	mov	r6, r0
C:\Users\kruci_000\Desktop\University\SoC\Marsfinder\Marsfinder\Marsfinder_FW\Debug/../main.c:198
                          params.param[PARAM_GY] * DEG_TO_RAD,
                          params.param[PARAM_GZ] * DEG_TO_RAD,
    46ea:	4b15      	ldr	r3, [pc, #84]	; (4740 <Timer1_IRQHandler+0x300>)
    46ec:	695b      	ldr	r3, [r3, #20]
    46ee:	4618      	mov	r0, r3
    46f0:	f000 f9a4 	bl	4a3c <__aeabi_f2d>
    46f4:	4602      	mov	r2, r0
    46f6:	460b      	mov	r3, r1
    46f8:	4610      	mov	r0, r2
    46fa:	4619      	mov	r1, r3
    46fc:	a30a      	add	r3, pc, #40	; (adr r3, 4728 <Timer1_IRQHandler+0x2e8>)
    46fe:	e9d3 2300 	ldrd	r2, r3, [r3]
    4702:	f000 f9ef 	bl	4ae4 <__aeabi_dmul>
    4706:	4602      	mov	r2, r0
    4708:	460b      	mov	r3, r1
C:\Users\kruci_000\Desktop\University\SoC\Marsfinder\Marsfinder\Marsfinder_FW\Debug/../main.c:196
            params.param[PARAM_GX] * DEG_TO_RAD,
            params.param[PARAM_GY] * DEG_TO_RAD,
            params.param[PARAM_GZ] * DEG_TO_RAD);
    mavlink_send_msg(&msg);

    MadgwickAHRSupdateIMU(params.param[PARAM_GX] * DEG_TO_RAD,
    470a:	4610      	mov	r0, r2
    470c:	4619      	mov	r1, r3
    470e:	f000 fbfb 	bl	4f08 <__aeabi_d2f>
    4712:	4605      	mov	r5, r0
    4714:	4b0a      	ldr	r3, [pc, #40]	; (4740 <Timer1_IRQHandler+0x300>)
    4716:	681c      	ldr	r4, [r3, #0]
    4718:	4b09      	ldr	r3, [pc, #36]	; (4740 <Timer1_IRQHandler+0x300>)
    471a:	685a      	ldr	r2, [r3, #4]
    471c:	4b08      	ldr	r3, [pc, #32]	; (4740 <Timer1_IRQHandler+0x300>)
    471e:	689b      	ldr	r3, [r3, #8]
    4720:	9200      	str	r2, [sp, #0]
    4722:	e017      	b.n	4754 <Timer1_IRQHandler+0x314>
    4724:	f3af 8000 	nop.w
    4728:	a2529d39 	.word	0xa2529d39
    472c:	3f91df46 	.word	0x3f91df46
    4730:	200000e0 	.word	0x200000e0
    4734:	20000629 	.word	0x20000629
    4738:	20000628 	.word	0x20000628
    473c:	000055d8 	.word	0x000055d8
    4740:	20000004 	.word	0x20000004
    4744:	200000e8 	.word	0x200000e8
    4748:	200001a4 	.word	0x200001a4
    474c:	200001a8 	.word	0x200001a8
    4750:	200001ac 	.word	0x200001ac
    4754:	9301      	str	r3, [sp, #4]
    4756:	4640      	mov	r0, r8
    4758:	4631      	mov	r1, r6
    475a:	462a      	mov	r2, r5
    475c:	4623      	mov	r3, r4
    475e:	f7fe faa7 	bl	2cb0 <MadgwickAHRSupdateIMU>
C:\Users\kruci_000\Desktop\University\SoC\Marsfinder\Marsfinder\Marsfinder_FW\Debug/../main.c:203
                          params.param[PARAM_GZ] * DEG_TO_RAD,
                          params.param[PARAM_AX],
                          params.param[PARAM_AY],
                          params.param[PARAM_AZ]);

    usec_service_routine();
    4762:	f7fd fbbd 	bl	1ee0 <usec_service_routine>
C:\Users\kruci_000\Desktop\University\SoC\Marsfinder\Marsfinder\Marsfinder_FW\Debug/../main.c:205

    MSS_TIM1_clear_irq();
    4766:	f7fe ff9b 	bl	36a0 <MSS_TIM1_clear_irq>
C:\Users\kruci_000\Desktop\University\SoC\Marsfinder\Marsfinder\Marsfinder_FW\Debug/../main.c:206
}
    476a:	f507 7792 	add.w	r7, r7, #292	; 0x124
    476e:	46bd      	mov	sp, r7
    4770:	e8bd 8ff0 	ldmia.w	sp!, {r4, r5, r6, r7, r8, r9, sl, fp, pc}

00004774 <__aeabi_drsub>:
$t():
    4774:	f081 4100 	eor.w	r1, r1, #2147483648	; 0x80000000
    4778:	e002      	b.n	4780 <__adddf3>
    477a:	bf00      	nop

0000477c <__aeabi_dsub>:
__aeabi_dsub():
    477c:	f083 4300 	eor.w	r3, r3, #2147483648	; 0x80000000

00004780 <__adddf3>:
    4780:	b530      	push	{r4, r5, lr}
    4782:	ea4f 0441 	mov.w	r4, r1, lsl #1
    4786:	ea4f 0543 	mov.w	r5, r3, lsl #1
    478a:	ea94 0f05 	teq	r4, r5
    478e:	bf08      	it	eq
    4790:	ea90 0f02 	teqeq	r0, r2
    4794:	bf1f      	itttt	ne
    4796:	ea54 0c00 	orrsne.w	ip, r4, r0
    479a:	ea55 0c02 	orrsne.w	ip, r5, r2
    479e:	ea7f 5c64 	mvnsne.w	ip, r4, asr #21
    47a2:	ea7f 5c65 	mvnsne.w	ip, r5, asr #21
    47a6:	f000 80e2 	beq.w	496e <__adddf3+0x1ee>
    47aa:	ea4f 5454 	mov.w	r4, r4, lsr #21
    47ae:	ebd4 5555 	rsbs	r5, r4, r5, lsr #21
    47b2:	bfb8      	it	lt
    47b4:	426d      	neglt	r5, r5
    47b6:	dd0c      	ble.n	47d2 <__adddf3+0x52>
    47b8:	442c      	add	r4, r5
    47ba:	ea80 0202 	eor.w	r2, r0, r2
    47be:	ea81 0303 	eor.w	r3, r1, r3
    47c2:	ea82 0000 	eor.w	r0, r2, r0
    47c6:	ea83 0101 	eor.w	r1, r3, r1
    47ca:	ea80 0202 	eor.w	r2, r0, r2
    47ce:	ea81 0303 	eor.w	r3, r1, r3
    47d2:	2d36      	cmp	r5, #54	; 0x36
    47d4:	bf88      	it	hi
    47d6:	bd30      	pophi	{r4, r5, pc}
    47d8:	f011 4f00 	tst.w	r1, #2147483648	; 0x80000000
    47dc:	ea4f 3101 	mov.w	r1, r1, lsl #12
    47e0:	f44f 1c80 	mov.w	ip, #1048576	; 0x100000
    47e4:	ea4c 3111 	orr.w	r1, ip, r1, lsr #12
    47e8:	d002      	beq.n	47f0 <__adddf3+0x70>
    47ea:	4240      	negs	r0, r0
    47ec:	eb61 0141 	sbc.w	r1, r1, r1, lsl #1
    47f0:	f013 4f00 	tst.w	r3, #2147483648	; 0x80000000
    47f4:	ea4f 3303 	mov.w	r3, r3, lsl #12
    47f8:	ea4c 3313 	orr.w	r3, ip, r3, lsr #12
    47fc:	d002      	beq.n	4804 <__adddf3+0x84>
    47fe:	4252      	negs	r2, r2
    4800:	eb63 0343 	sbc.w	r3, r3, r3, lsl #1
    4804:	ea94 0f05 	teq	r4, r5
    4808:	f000 80a7 	beq.w	495a <__adddf3+0x1da>
    480c:	f1a4 0401 	sub.w	r4, r4, #1
    4810:	f1d5 0e20 	rsbs	lr, r5, #32
    4814:	db0d      	blt.n	4832 <__adddf3+0xb2>
    4816:	fa02 fc0e 	lsl.w	ip, r2, lr
    481a:	fa22 f205 	lsr.w	r2, r2, r5
    481e:	1880      	adds	r0, r0, r2
    4820:	f141 0100 	adc.w	r1, r1, #0
    4824:	fa03 f20e 	lsl.w	r2, r3, lr
    4828:	1880      	adds	r0, r0, r2
    482a:	fa43 f305 	asr.w	r3, r3, r5
    482e:	4159      	adcs	r1, r3
    4830:	e00e      	b.n	4850 <__adddf3+0xd0>
    4832:	f1a5 0520 	sub.w	r5, r5, #32
    4836:	f10e 0e20 	add.w	lr, lr, #32
    483a:	2a01      	cmp	r2, #1
    483c:	fa03 fc0e 	lsl.w	ip, r3, lr
    4840:	bf28      	it	cs
    4842:	f04c 0c02 	orrcs.w	ip, ip, #2
    4846:	fa43 f305 	asr.w	r3, r3, r5
    484a:	18c0      	adds	r0, r0, r3
    484c:	eb51 71e3 	adcs.w	r1, r1, r3, asr #31
    4850:	f001 4500 	and.w	r5, r1, #2147483648	; 0x80000000
    4854:	d507      	bpl.n	4866 <__adddf3+0xe6>
    4856:	f04f 0e00 	mov.w	lr, #0
    485a:	f1dc 0c00 	rsbs	ip, ip, #0
    485e:	eb7e 0000 	sbcs.w	r0, lr, r0
    4862:	eb6e 0101 	sbc.w	r1, lr, r1
    4866:	f5b1 1f80 	cmp.w	r1, #1048576	; 0x100000
    486a:	d31b      	bcc.n	48a4 <__adddf3+0x124>
    486c:	f5b1 1f00 	cmp.w	r1, #2097152	; 0x200000
    4870:	d30c      	bcc.n	488c <__adddf3+0x10c>
    4872:	0849      	lsrs	r1, r1, #1
    4874:	ea5f 0030 	movs.w	r0, r0, rrx
    4878:	ea4f 0c3c 	mov.w	ip, ip, rrx
    487c:	f104 0401 	add.w	r4, r4, #1
    4880:	ea4f 5244 	mov.w	r2, r4, lsl #21
    4884:	f512 0f80 	cmn.w	r2, #4194304	; 0x400000
    4888:	f080 809a 	bcs.w	49c0 <__adddf3+0x240>
    488c:	f1bc 4f00 	cmp.w	ip, #2147483648	; 0x80000000
    4890:	bf08      	it	eq
    4892:	ea5f 0c50 	movseq.w	ip, r0, lsr #1
    4896:	f150 0000 	adcs.w	r0, r0, #0
    489a:	eb41 5104 	adc.w	r1, r1, r4, lsl #20
    489e:	ea41 0105 	orr.w	r1, r1, r5
    48a2:	bd30      	pop	{r4, r5, pc}
    48a4:	ea5f 0c4c 	movs.w	ip, ip, lsl #1
    48a8:	4140      	adcs	r0, r0
    48aa:	eb41 0101 	adc.w	r1, r1, r1
    48ae:	f411 1f80 	tst.w	r1, #1048576	; 0x100000
    48b2:	f1a4 0401 	sub.w	r4, r4, #1
    48b6:	d1e9      	bne.n	488c <__adddf3+0x10c>
    48b8:	f091 0f00 	teq	r1, #0
    48bc:	bf04      	itt	eq
    48be:	4601      	moveq	r1, r0
    48c0:	2000      	moveq	r0, #0
    48c2:	fab1 f381 	clz	r3, r1
    48c6:	bf08      	it	eq
    48c8:	3320      	addeq	r3, #32
    48ca:	f1a3 030b 	sub.w	r3, r3, #11
    48ce:	f1b3 0220 	subs.w	r2, r3, #32
    48d2:	da0c      	bge.n	48ee <__adddf3+0x16e>
    48d4:	320c      	adds	r2, #12
    48d6:	dd08      	ble.n	48ea <__adddf3+0x16a>
    48d8:	f102 0c14 	add.w	ip, r2, #20
    48dc:	f1c2 020c 	rsb	r2, r2, #12
    48e0:	fa01 f00c 	lsl.w	r0, r1, ip
    48e4:	fa21 f102 	lsr.w	r1, r1, r2
    48e8:	e00c      	b.n	4904 <__adddf3+0x184>
    48ea:	f102 0214 	add.w	r2, r2, #20
    48ee:	bfd8      	it	le
    48f0:	f1c2 0c20 	rsble	ip, r2, #32
    48f4:	fa01 f102 	lsl.w	r1, r1, r2
    48f8:	fa20 fc0c 	lsr.w	ip, r0, ip
    48fc:	bfdc      	itt	le
    48fe:	ea41 010c 	orrle.w	r1, r1, ip
    4902:	4090      	lslle	r0, r2
    4904:	1ae4      	subs	r4, r4, r3
    4906:	bfa2      	ittt	ge
    4908:	eb01 5104 	addge.w	r1, r1, r4, lsl #20
    490c:	4329      	orrge	r1, r5
    490e:	bd30      	popge	{r4, r5, pc}
    4910:	ea6f 0404 	mvn.w	r4, r4
    4914:	3c1f      	subs	r4, #31
    4916:	da1c      	bge.n	4952 <__adddf3+0x1d2>
    4918:	340c      	adds	r4, #12
    491a:	dc0e      	bgt.n	493a <__adddf3+0x1ba>
    491c:	f104 0414 	add.w	r4, r4, #20
    4920:	f1c4 0220 	rsb	r2, r4, #32
    4924:	fa20 f004 	lsr.w	r0, r0, r4
    4928:	fa01 f302 	lsl.w	r3, r1, r2
    492c:	ea40 0003 	orr.w	r0, r0, r3
    4930:	fa21 f304 	lsr.w	r3, r1, r4
    4934:	ea45 0103 	orr.w	r1, r5, r3
    4938:	bd30      	pop	{r4, r5, pc}
    493a:	f1c4 040c 	rsb	r4, r4, #12
    493e:	f1c4 0220 	rsb	r2, r4, #32
    4942:	fa20 f002 	lsr.w	r0, r0, r2
    4946:	fa01 f304 	lsl.w	r3, r1, r4
    494a:	ea40 0003 	orr.w	r0, r0, r3
    494e:	4629      	mov	r1, r5
    4950:	bd30      	pop	{r4, r5, pc}
    4952:	fa21 f004 	lsr.w	r0, r1, r4
    4956:	4629      	mov	r1, r5
    4958:	bd30      	pop	{r4, r5, pc}
    495a:	f094 0f00 	teq	r4, #0
    495e:	f483 1380 	eor.w	r3, r3, #1048576	; 0x100000
    4962:	bf06      	itte	eq
    4964:	f481 1180 	eoreq.w	r1, r1, #1048576	; 0x100000
    4968:	3401      	addeq	r4, #1
    496a:	3d01      	subne	r5, #1
    496c:	e74e      	b.n	480c <__adddf3+0x8c>
    496e:	ea7f 5c64 	mvns.w	ip, r4, asr #21
    4972:	bf18      	it	ne
    4974:	ea7f 5c65 	mvnsne.w	ip, r5, asr #21
    4978:	d029      	beq.n	49ce <__adddf3+0x24e>
    497a:	ea94 0f05 	teq	r4, r5
    497e:	bf08      	it	eq
    4980:	ea90 0f02 	teqeq	r0, r2
    4984:	d005      	beq.n	4992 <__adddf3+0x212>
    4986:	ea54 0c00 	orrs.w	ip, r4, r0
    498a:	bf04      	itt	eq
    498c:	4619      	moveq	r1, r3
    498e:	4610      	moveq	r0, r2
    4990:	bd30      	pop	{r4, r5, pc}
    4992:	ea91 0f03 	teq	r1, r3
    4996:	bf1e      	ittt	ne
    4998:	2100      	movne	r1, #0
    499a:	2000      	movne	r0, #0
    499c:	bd30      	popne	{r4, r5, pc}
    499e:	ea5f 5c54 	movs.w	ip, r4, lsr #21
    49a2:	d105      	bne.n	49b0 <__adddf3+0x230>
    49a4:	0040      	lsls	r0, r0, #1
    49a6:	4149      	adcs	r1, r1
    49a8:	bf28      	it	cs
    49aa:	f041 4100 	orrcs.w	r1, r1, #2147483648	; 0x80000000
    49ae:	bd30      	pop	{r4, r5, pc}
    49b0:	f514 0480 	adds.w	r4, r4, #4194304	; 0x400000
    49b4:	bf3c      	itt	cc
    49b6:	f501 1180 	addcc.w	r1, r1, #1048576	; 0x100000
    49ba:	bd30      	popcc	{r4, r5, pc}
    49bc:	f001 4500 	and.w	r5, r1, #2147483648	; 0x80000000
    49c0:	f045 41fe 	orr.w	r1, r5, #2130706432	; 0x7f000000
    49c4:	f441 0170 	orr.w	r1, r1, #15728640	; 0xf00000
    49c8:	f04f 0000 	mov.w	r0, #0
    49cc:	bd30      	pop	{r4, r5, pc}
    49ce:	ea7f 5c64 	mvns.w	ip, r4, asr #21
    49d2:	bf1a      	itte	ne
    49d4:	4619      	movne	r1, r3
    49d6:	4610      	movne	r0, r2
    49d8:	ea7f 5c65 	mvnseq.w	ip, r5, asr #21
    49dc:	bf1c      	itt	ne
    49de:	460b      	movne	r3, r1
    49e0:	4602      	movne	r2, r0
    49e2:	ea50 3401 	orrs.w	r4, r0, r1, lsl #12
    49e6:	bf06      	itte	eq
    49e8:	ea52 3503 	orrseq.w	r5, r2, r3, lsl #12
    49ec:	ea91 0f03 	teqeq	r1, r3
    49f0:	f441 2100 	orrne.w	r1, r1, #524288	; 0x80000
    49f4:	bd30      	pop	{r4, r5, pc}
__adddf3():
    49f6:	bf00      	nop

000049f8 <__aeabi_ui2d>:
__aeabi_ui2d():
    49f8:	f090 0f00 	teq	r0, #0
    49fc:	bf04      	itt	eq
    49fe:	2100      	moveq	r1, #0
    4a00:	4770      	bxeq	lr
    4a02:	b530      	push	{r4, r5, lr}
    4a04:	f44f 6480 	mov.w	r4, #1024	; 0x400
    4a08:	f104 0432 	add.w	r4, r4, #50	; 0x32
    4a0c:	f04f 0500 	mov.w	r5, #0
    4a10:	f04f 0100 	mov.w	r1, #0
    4a14:	e750      	b.n	48b8 <__adddf3+0x138>
    4a16:	bf00      	nop

00004a18 <__aeabi_i2d>:
__floatsidf():
    4a18:	f090 0f00 	teq	r0, #0
    4a1c:	bf04      	itt	eq
    4a1e:	2100      	moveq	r1, #0
    4a20:	4770      	bxeq	lr
    4a22:	b530      	push	{r4, r5, lr}
    4a24:	f44f 6480 	mov.w	r4, #1024	; 0x400
    4a28:	f104 0432 	add.w	r4, r4, #50	; 0x32
    4a2c:	f010 4500 	ands.w	r5, r0, #2147483648	; 0x80000000
    4a30:	bf48      	it	mi
    4a32:	4240      	negmi	r0, r0
    4a34:	f04f 0100 	mov.w	r1, #0
    4a38:	e73e      	b.n	48b8 <__adddf3+0x138>
    4a3a:	bf00      	nop

00004a3c <__aeabi_f2d>:
__extendsfdf2():
    4a3c:	0042      	lsls	r2, r0, #1
    4a3e:	ea4f 01e2 	mov.w	r1, r2, asr #3
    4a42:	ea4f 0131 	mov.w	r1, r1, rrx
    4a46:	ea4f 7002 	mov.w	r0, r2, lsl #28
    4a4a:	bf1f      	itttt	ne
    4a4c:	f012 437f 	andsne.w	r3, r2, #4278190080	; 0xff000000
    4a50:	f093 4f7f 	teqne	r3, #4278190080	; 0xff000000
    4a54:	f081 5160 	eorne.w	r1, r1, #939524096	; 0x38000000
    4a58:	4770      	bxne	lr
    4a5a:	f092 0f00 	teq	r2, #0
    4a5e:	bf14      	ite	ne
    4a60:	f093 4f7f 	teqne	r3, #4278190080	; 0xff000000
    4a64:	4770      	bxeq	lr
    4a66:	b530      	push	{r4, r5, lr}
    4a68:	f44f 7460 	mov.w	r4, #896	; 0x380
    4a6c:	f001 4500 	and.w	r5, r1, #2147483648	; 0x80000000
    4a70:	f021 4100 	bic.w	r1, r1, #2147483648	; 0x80000000
    4a74:	e720      	b.n	48b8 <__adddf3+0x138>
    4a76:	bf00      	nop

00004a78 <__aeabi_ul2d>:
__aeabi_ul2d():
    4a78:	ea50 0201 	orrs.w	r2, r0, r1
    4a7c:	bf08      	it	eq
    4a7e:	4770      	bxeq	lr
    4a80:	b530      	push	{r4, r5, lr}
    4a82:	f04f 0500 	mov.w	r5, #0
    4a86:	e00a      	b.n	4a9e <__aeabi_l2d+0x16>

00004a88 <__aeabi_l2d>:
    4a88:	ea50 0201 	orrs.w	r2, r0, r1
    4a8c:	bf08      	it	eq
    4a8e:	4770      	bxeq	lr
    4a90:	b530      	push	{r4, r5, lr}
    4a92:	f011 4500 	ands.w	r5, r1, #2147483648	; 0x80000000
    4a96:	d502      	bpl.n	4a9e <__aeabi_l2d+0x16>
    4a98:	4240      	negs	r0, r0
    4a9a:	eb61 0141 	sbc.w	r1, r1, r1, lsl #1
    4a9e:	f44f 6480 	mov.w	r4, #1024	; 0x400
    4aa2:	f104 0432 	add.w	r4, r4, #50	; 0x32
    4aa6:	ea5f 5c91 	movs.w	ip, r1, lsr #22
    4aaa:	f43f aedc 	beq.w	4866 <__adddf3+0xe6>
    4aae:	f04f 0203 	mov.w	r2, #3
    4ab2:	ea5f 0cdc 	movs.w	ip, ip, lsr #3
    4ab6:	bf18      	it	ne
    4ab8:	3203      	addne	r2, #3
    4aba:	ea5f 0cdc 	movs.w	ip, ip, lsr #3
    4abe:	bf18      	it	ne
    4ac0:	3203      	addne	r2, #3
    4ac2:	eb02 02dc 	add.w	r2, r2, ip, lsr #3
    4ac6:	f1c2 0320 	rsb	r3, r2, #32
    4aca:	fa00 fc03 	lsl.w	ip, r0, r3
    4ace:	fa20 f002 	lsr.w	r0, r0, r2
    4ad2:	fa01 fe03 	lsl.w	lr, r1, r3
    4ad6:	ea40 000e 	orr.w	r0, r0, lr
    4ada:	fa21 f102 	lsr.w	r1, r1, r2
    4ade:	4414      	add	r4, r2
    4ae0:	e6c1      	b.n	4866 <__adddf3+0xe6>
__floatdidf():
    4ae2:	bf00      	nop

00004ae4 <__aeabi_dmul>:
__aeabi_dmul():
    4ae4:	b570      	push	{r4, r5, r6, lr}
    4ae6:	f04f 0cff 	mov.w	ip, #255	; 0xff
    4aea:	f44c 6ce0 	orr.w	ip, ip, #1792	; 0x700
    4aee:	ea1c 5411 	ands.w	r4, ip, r1, lsr #20
    4af2:	bf1d      	ittte	ne
    4af4:	ea1c 5513 	andsne.w	r5, ip, r3, lsr #20
    4af8:	ea94 0f0c 	teqne	r4, ip
    4afc:	ea95 0f0c 	teqne	r5, ip
    4b00:	f000 f8de 	bleq	4cc0 <__aeabi_dmul+0x1dc>
    4b04:	442c      	add	r4, r5
    4b06:	ea81 0603 	eor.w	r6, r1, r3
    4b0a:	ea21 514c 	bic.w	r1, r1, ip, lsl #21
    4b0e:	ea23 534c 	bic.w	r3, r3, ip, lsl #21
    4b12:	ea50 3501 	orrs.w	r5, r0, r1, lsl #12
    4b16:	bf18      	it	ne
    4b18:	ea52 3503 	orrsne.w	r5, r2, r3, lsl #12
    4b1c:	f441 1180 	orr.w	r1, r1, #1048576	; 0x100000
    4b20:	f443 1380 	orr.w	r3, r3, #1048576	; 0x100000
    4b24:	d038      	beq.n	4b98 <__aeabi_dmul+0xb4>
    4b26:	fba0 ce02 	umull	ip, lr, r0, r2
    4b2a:	f04f 0500 	mov.w	r5, #0
    4b2e:	fbe1 e502 	umlal	lr, r5, r1, r2
    4b32:	f006 4200 	and.w	r2, r6, #2147483648	; 0x80000000
    4b36:	fbe0 e503 	umlal	lr, r5, r0, r3
    4b3a:	f04f 0600 	mov.w	r6, #0
    4b3e:	fbe1 5603 	umlal	r5, r6, r1, r3
    4b42:	f09c 0f00 	teq	ip, #0
    4b46:	bf18      	it	ne
    4b48:	f04e 0e01 	orrne.w	lr, lr, #1
    4b4c:	f1a4 04ff 	sub.w	r4, r4, #255	; 0xff
    4b50:	f5b6 7f00 	cmp.w	r6, #512	; 0x200
    4b54:	f564 7440 	sbc.w	r4, r4, #768	; 0x300
    4b58:	d204      	bcs.n	4b64 <__aeabi_dmul+0x80>
    4b5a:	ea5f 0e4e 	movs.w	lr, lr, lsl #1
    4b5e:	416d      	adcs	r5, r5
    4b60:	eb46 0606 	adc.w	r6, r6, r6
    4b64:	ea42 21c6 	orr.w	r1, r2, r6, lsl #11
    4b68:	ea41 5155 	orr.w	r1, r1, r5, lsr #21
    4b6c:	ea4f 20c5 	mov.w	r0, r5, lsl #11
    4b70:	ea40 505e 	orr.w	r0, r0, lr, lsr #21
    4b74:	ea4f 2ece 	mov.w	lr, lr, lsl #11
    4b78:	f1b4 0cfd 	subs.w	ip, r4, #253	; 0xfd
    4b7c:	bf88      	it	hi
    4b7e:	f5bc 6fe0 	cmphi.w	ip, #1792	; 0x700
    4b82:	d81e      	bhi.n	4bc2 <__aeabi_dmul+0xde>
    4b84:	f1be 4f00 	cmp.w	lr, #2147483648	; 0x80000000
    4b88:	bf08      	it	eq
    4b8a:	ea5f 0e50 	movseq.w	lr, r0, lsr #1
    4b8e:	f150 0000 	adcs.w	r0, r0, #0
    4b92:	eb41 5104 	adc.w	r1, r1, r4, lsl #20
    4b96:	bd70      	pop	{r4, r5, r6, pc}
    4b98:	f006 4600 	and.w	r6, r6, #2147483648	; 0x80000000
    4b9c:	ea46 0101 	orr.w	r1, r6, r1
    4ba0:	ea40 0002 	orr.w	r0, r0, r2
    4ba4:	ea81 0103 	eor.w	r1, r1, r3
    4ba8:	ebb4 045c 	subs.w	r4, r4, ip, lsr #1
    4bac:	bfc2      	ittt	gt
    4bae:	ebd4 050c 	rsbsgt	r5, r4, ip
    4bb2:	ea41 5104 	orrgt.w	r1, r1, r4, lsl #20
    4bb6:	bd70      	popgt	{r4, r5, r6, pc}
    4bb8:	f441 1180 	orr.w	r1, r1, #1048576	; 0x100000
    4bbc:	f04f 0e00 	mov.w	lr, #0
    4bc0:	3c01      	subs	r4, #1
    4bc2:	f300 80ab 	bgt.w	4d1c <__aeabi_dmul+0x238>
    4bc6:	f114 0f36 	cmn.w	r4, #54	; 0x36
    4bca:	bfde      	ittt	le
    4bcc:	2000      	movle	r0, #0
    4bce:	f001 4100 	andle.w	r1, r1, #2147483648	; 0x80000000
    4bd2:	bd70      	pople	{r4, r5, r6, pc}
    4bd4:	f1c4 0400 	rsb	r4, r4, #0
    4bd8:	3c20      	subs	r4, #32
    4bda:	da35      	bge.n	4c48 <__aeabi_dmul+0x164>
    4bdc:	340c      	adds	r4, #12
    4bde:	dc1b      	bgt.n	4c18 <__aeabi_dmul+0x134>
    4be0:	f104 0414 	add.w	r4, r4, #20
    4be4:	f1c4 0520 	rsb	r5, r4, #32
    4be8:	fa00 f305 	lsl.w	r3, r0, r5
    4bec:	fa20 f004 	lsr.w	r0, r0, r4
    4bf0:	fa01 f205 	lsl.w	r2, r1, r5
    4bf4:	ea40 0002 	orr.w	r0, r0, r2
    4bf8:	f001 4200 	and.w	r2, r1, #2147483648	; 0x80000000
    4bfc:	f021 4100 	bic.w	r1, r1, #2147483648	; 0x80000000
    4c00:	eb10 70d3 	adds.w	r0, r0, r3, lsr #31
    4c04:	fa21 f604 	lsr.w	r6, r1, r4
    4c08:	eb42 0106 	adc.w	r1, r2, r6
    4c0c:	ea5e 0e43 	orrs.w	lr, lr, r3, lsl #1
    4c10:	bf08      	it	eq
    4c12:	ea20 70d3 	biceq.w	r0, r0, r3, lsr #31
    4c16:	bd70      	pop	{r4, r5, r6, pc}
    4c18:	f1c4 040c 	rsb	r4, r4, #12
    4c1c:	f1c4 0520 	rsb	r5, r4, #32
    4c20:	fa00 f304 	lsl.w	r3, r0, r4
    4c24:	fa20 f005 	lsr.w	r0, r0, r5
    4c28:	fa01 f204 	lsl.w	r2, r1, r4
    4c2c:	ea40 0002 	orr.w	r0, r0, r2
    4c30:	f001 4100 	and.w	r1, r1, #2147483648	; 0x80000000
    4c34:	eb10 70d3 	adds.w	r0, r0, r3, lsr #31
    4c38:	f141 0100 	adc.w	r1, r1, #0
    4c3c:	ea5e 0e43 	orrs.w	lr, lr, r3, lsl #1
    4c40:	bf08      	it	eq
    4c42:	ea20 70d3 	biceq.w	r0, r0, r3, lsr #31
    4c46:	bd70      	pop	{r4, r5, r6, pc}
    4c48:	f1c4 0520 	rsb	r5, r4, #32
    4c4c:	fa00 f205 	lsl.w	r2, r0, r5
    4c50:	ea4e 0e02 	orr.w	lr, lr, r2
    4c54:	fa20 f304 	lsr.w	r3, r0, r4
    4c58:	fa01 f205 	lsl.w	r2, r1, r5
    4c5c:	ea43 0302 	orr.w	r3, r3, r2
    4c60:	fa21 f004 	lsr.w	r0, r1, r4
    4c64:	f001 4100 	and.w	r1, r1, #2147483648	; 0x80000000
    4c68:	fa21 f204 	lsr.w	r2, r1, r4
    4c6c:	ea20 0002 	bic.w	r0, r0, r2
    4c70:	eb00 70d3 	add.w	r0, r0, r3, lsr #31
    4c74:	ea5e 0e43 	orrs.w	lr, lr, r3, lsl #1
    4c78:	bf08      	it	eq
    4c7a:	ea20 70d3 	biceq.w	r0, r0, r3, lsr #31
    4c7e:	bd70      	pop	{r4, r5, r6, pc}
    4c80:	f094 0f00 	teq	r4, #0
    4c84:	d10f      	bne.n	4ca6 <__aeabi_dmul+0x1c2>
    4c86:	f001 4600 	and.w	r6, r1, #2147483648	; 0x80000000
    4c8a:	0040      	lsls	r0, r0, #1
    4c8c:	eb41 0101 	adc.w	r1, r1, r1
    4c90:	f411 1f80 	tst.w	r1, #1048576	; 0x100000
    4c94:	bf08      	it	eq
    4c96:	3c01      	subeq	r4, #1
    4c98:	d0f7      	beq.n	4c8a <__aeabi_dmul+0x1a6>
    4c9a:	ea41 0106 	orr.w	r1, r1, r6
    4c9e:	f095 0f00 	teq	r5, #0
    4ca2:	bf18      	it	ne
    4ca4:	4770      	bxne	lr
    4ca6:	f003 4600 	and.w	r6, r3, #2147483648	; 0x80000000
    4caa:	0052      	lsls	r2, r2, #1
    4cac:	eb43 0303 	adc.w	r3, r3, r3
    4cb0:	f413 1f80 	tst.w	r3, #1048576	; 0x100000
    4cb4:	bf08      	it	eq
    4cb6:	3d01      	subeq	r5, #1
    4cb8:	d0f7      	beq.n	4caa <__aeabi_dmul+0x1c6>
    4cba:	ea43 0306 	orr.w	r3, r3, r6
    4cbe:	4770      	bx	lr
    4cc0:	ea94 0f0c 	teq	r4, ip
    4cc4:	ea0c 5513 	and.w	r5, ip, r3, lsr #20
    4cc8:	bf18      	it	ne
    4cca:	ea95 0f0c 	teqne	r5, ip
    4cce:	d00c      	beq.n	4cea <__aeabi_dmul+0x206>
    4cd0:	ea50 0641 	orrs.w	r6, r0, r1, lsl #1
    4cd4:	bf18      	it	ne
    4cd6:	ea52 0643 	orrsne.w	r6, r2, r3, lsl #1
    4cda:	d1d1      	bne.n	4c80 <__aeabi_dmul+0x19c>
    4cdc:	ea81 0103 	eor.w	r1, r1, r3
    4ce0:	f001 4100 	and.w	r1, r1, #2147483648	; 0x80000000
    4ce4:	f04f 0000 	mov.w	r0, #0
    4ce8:	bd70      	pop	{r4, r5, r6, pc}
    4cea:	ea50 0641 	orrs.w	r6, r0, r1, lsl #1
    4cee:	bf06      	itte	eq
    4cf0:	4610      	moveq	r0, r2
    4cf2:	4619      	moveq	r1, r3
    4cf4:	ea52 0643 	orrsne.w	r6, r2, r3, lsl #1
    4cf8:	d019      	beq.n	4d2e <__aeabi_dmul+0x24a>
    4cfa:	ea94 0f0c 	teq	r4, ip
    4cfe:	d102      	bne.n	4d06 <__aeabi_dmul+0x222>
    4d00:	ea50 3601 	orrs.w	r6, r0, r1, lsl #12
    4d04:	d113      	bne.n	4d2e <__aeabi_dmul+0x24a>
    4d06:	ea95 0f0c 	teq	r5, ip
    4d0a:	d105      	bne.n	4d18 <__aeabi_dmul+0x234>
    4d0c:	ea52 3603 	orrs.w	r6, r2, r3, lsl #12
    4d10:	bf1c      	itt	ne
    4d12:	4610      	movne	r0, r2
    4d14:	4619      	movne	r1, r3
    4d16:	d10a      	bne.n	4d2e <__aeabi_dmul+0x24a>
    4d18:	ea81 0103 	eor.w	r1, r1, r3
    4d1c:	f001 4100 	and.w	r1, r1, #2147483648	; 0x80000000
    4d20:	f041 41fe 	orr.w	r1, r1, #2130706432	; 0x7f000000
    4d24:	f441 0170 	orr.w	r1, r1, #15728640	; 0xf00000
    4d28:	f04f 0000 	mov.w	r0, #0
    4d2c:	bd70      	pop	{r4, r5, r6, pc}
    4d2e:	f041 41fe 	orr.w	r1, r1, #2130706432	; 0x7f000000
    4d32:	f441 0178 	orr.w	r1, r1, #16252928	; 0xf80000
    4d36:	bd70      	pop	{r4, r5, r6, pc}

00004d38 <__aeabi_ddiv>:
__aeabi_ddiv():
    4d38:	b570      	push	{r4, r5, r6, lr}
    4d3a:	f04f 0cff 	mov.w	ip, #255	; 0xff
    4d3e:	f44c 6ce0 	orr.w	ip, ip, #1792	; 0x700
    4d42:	ea1c 5411 	ands.w	r4, ip, r1, lsr #20
    4d46:	bf1d      	ittte	ne
    4d48:	ea1c 5513 	andsne.w	r5, ip, r3, lsr #20
    4d4c:	ea94 0f0c 	teqne	r4, ip
    4d50:	ea95 0f0c 	teqne	r5, ip
    4d54:	f000 f8a7 	bleq	4ea6 <__aeabi_ddiv+0x16e>
    4d58:	eba4 0405 	sub.w	r4, r4, r5
    4d5c:	ea81 0e03 	eor.w	lr, r1, r3
    4d60:	ea52 3503 	orrs.w	r5, r2, r3, lsl #12
    4d64:	ea4f 3101 	mov.w	r1, r1, lsl #12
    4d68:	f000 8088 	beq.w	4e7c <__aeabi_ddiv+0x144>
    4d6c:	ea4f 3303 	mov.w	r3, r3, lsl #12
    4d70:	f04f 5580 	mov.w	r5, #268435456	; 0x10000000
    4d74:	ea45 1313 	orr.w	r3, r5, r3, lsr #4
    4d78:	ea43 6312 	orr.w	r3, r3, r2, lsr #24
    4d7c:	ea4f 2202 	mov.w	r2, r2, lsl #8
    4d80:	ea45 1511 	orr.w	r5, r5, r1, lsr #4
    4d84:	ea45 6510 	orr.w	r5, r5, r0, lsr #24
    4d88:	ea4f 2600 	mov.w	r6, r0, lsl #8
    4d8c:	f00e 4100 	and.w	r1, lr, #2147483648	; 0x80000000
    4d90:	429d      	cmp	r5, r3
    4d92:	bf08      	it	eq
    4d94:	4296      	cmpeq	r6, r2
    4d96:	f144 04fd 	adc.w	r4, r4, #253	; 0xfd
    4d9a:	f504 7440 	add.w	r4, r4, #768	; 0x300
    4d9e:	d202      	bcs.n	4da6 <__aeabi_ddiv+0x6e>
    4da0:	085b      	lsrs	r3, r3, #1
    4da2:	ea4f 0232 	mov.w	r2, r2, rrx
    4da6:	1ab6      	subs	r6, r6, r2
    4da8:	eb65 0503 	sbc.w	r5, r5, r3
    4dac:	085b      	lsrs	r3, r3, #1
    4dae:	ea4f 0232 	mov.w	r2, r2, rrx
    4db2:	f44f 1080 	mov.w	r0, #1048576	; 0x100000
    4db6:	f44f 2c00 	mov.w	ip, #524288	; 0x80000
    4dba:	ebb6 0e02 	subs.w	lr, r6, r2
    4dbe:	eb75 0e03 	sbcs.w	lr, r5, r3
    4dc2:	bf22      	ittt	cs
    4dc4:	1ab6      	subcs	r6, r6, r2
    4dc6:	4675      	movcs	r5, lr
    4dc8:	ea40 000c 	orrcs.w	r0, r0, ip
    4dcc:	085b      	lsrs	r3, r3, #1
    4dce:	ea4f 0232 	mov.w	r2, r2, rrx
    4dd2:	ebb6 0e02 	subs.w	lr, r6, r2
    4dd6:	eb75 0e03 	sbcs.w	lr, r5, r3
    4dda:	bf22      	ittt	cs
    4ddc:	1ab6      	subcs	r6, r6, r2
    4dde:	4675      	movcs	r5, lr
    4de0:	ea40 005c 	orrcs.w	r0, r0, ip, lsr #1
    4de4:	085b      	lsrs	r3, r3, #1
    4de6:	ea4f 0232 	mov.w	r2, r2, rrx
    4dea:	ebb6 0e02 	subs.w	lr, r6, r2
    4dee:	eb75 0e03 	sbcs.w	lr, r5, r3
    4df2:	bf22      	ittt	cs
    4df4:	1ab6      	subcs	r6, r6, r2
    4df6:	4675      	movcs	r5, lr
    4df8:	ea40 009c 	orrcs.w	r0, r0, ip, lsr #2
    4dfc:	085b      	lsrs	r3, r3, #1
    4dfe:	ea4f 0232 	mov.w	r2, r2, rrx
    4e02:	ebb6 0e02 	subs.w	lr, r6, r2
    4e06:	eb75 0e03 	sbcs.w	lr, r5, r3
    4e0a:	bf22      	ittt	cs
    4e0c:	1ab6      	subcs	r6, r6, r2
    4e0e:	4675      	movcs	r5, lr
    4e10:	ea40 00dc 	orrcs.w	r0, r0, ip, lsr #3
    4e14:	ea55 0e06 	orrs.w	lr, r5, r6
    4e18:	d018      	beq.n	4e4c <__aeabi_ddiv+0x114>
    4e1a:	ea4f 1505 	mov.w	r5, r5, lsl #4
    4e1e:	ea45 7516 	orr.w	r5, r5, r6, lsr #28
    4e22:	ea4f 1606 	mov.w	r6, r6, lsl #4
    4e26:	ea4f 03c3 	mov.w	r3, r3, lsl #3
    4e2a:	ea43 7352 	orr.w	r3, r3, r2, lsr #29
    4e2e:	ea4f 02c2 	mov.w	r2, r2, lsl #3
    4e32:	ea5f 1c1c 	movs.w	ip, ip, lsr #4
    4e36:	d1c0      	bne.n	4dba <__aeabi_ddiv+0x82>
    4e38:	f411 1f80 	tst.w	r1, #1048576	; 0x100000
    4e3c:	d10b      	bne.n	4e56 <__aeabi_ddiv+0x11e>
    4e3e:	ea41 0100 	orr.w	r1, r1, r0
    4e42:	f04f 0000 	mov.w	r0, #0
    4e46:	f04f 4c00 	mov.w	ip, #2147483648	; 0x80000000
    4e4a:	e7b6      	b.n	4dba <__aeabi_ddiv+0x82>
    4e4c:	f411 1f80 	tst.w	r1, #1048576	; 0x100000
    4e50:	bf04      	itt	eq
    4e52:	4301      	orreq	r1, r0
    4e54:	2000      	moveq	r0, #0
    4e56:	f1b4 0cfd 	subs.w	ip, r4, #253	; 0xfd
    4e5a:	bf88      	it	hi
    4e5c:	f5bc 6fe0 	cmphi.w	ip, #1792	; 0x700
    4e60:	f63f aeaf 	bhi.w	4bc2 <__aeabi_dmul+0xde>
    4e64:	ebb5 0c03 	subs.w	ip, r5, r3
    4e68:	bf04      	itt	eq
    4e6a:	ebb6 0c02 	subseq.w	ip, r6, r2
    4e6e:	ea5f 0c50 	movseq.w	ip, r0, lsr #1
    4e72:	f150 0000 	adcs.w	r0, r0, #0
    4e76:	eb41 5104 	adc.w	r1, r1, r4, lsl #20
    4e7a:	bd70      	pop	{r4, r5, r6, pc}
    4e7c:	f00e 4e00 	and.w	lr, lr, #2147483648	; 0x80000000
    4e80:	ea4e 3111 	orr.w	r1, lr, r1, lsr #12
    4e84:	eb14 045c 	adds.w	r4, r4, ip, lsr #1
    4e88:	bfc2      	ittt	gt
    4e8a:	ebd4 050c 	rsbsgt	r5, r4, ip
    4e8e:	ea41 5104 	orrgt.w	r1, r1, r4, lsl #20
    4e92:	bd70      	popgt	{r4, r5, r6, pc}
    4e94:	f441 1180 	orr.w	r1, r1, #1048576	; 0x100000
    4e98:	f04f 0e00 	mov.w	lr, #0
    4e9c:	3c01      	subs	r4, #1
    4e9e:	e690      	b.n	4bc2 <__aeabi_dmul+0xde>
    4ea0:	ea45 0e06 	orr.w	lr, r5, r6
    4ea4:	e68d      	b.n	4bc2 <__aeabi_dmul+0xde>
    4ea6:	ea0c 5513 	and.w	r5, ip, r3, lsr #20
    4eaa:	ea94 0f0c 	teq	r4, ip
    4eae:	bf08      	it	eq
    4eb0:	ea95 0f0c 	teqeq	r5, ip
    4eb4:	f43f af3b 	beq.w	4d2e <__aeabi_dmul+0x24a>
    4eb8:	ea94 0f0c 	teq	r4, ip
    4ebc:	d10a      	bne.n	4ed4 <__aeabi_ddiv+0x19c>
    4ebe:	ea50 3401 	orrs.w	r4, r0, r1, lsl #12
    4ec2:	f47f af34 	bne.w	4d2e <__aeabi_dmul+0x24a>
    4ec6:	ea95 0f0c 	teq	r5, ip
    4eca:	f47f af25 	bne.w	4d18 <__aeabi_dmul+0x234>
    4ece:	4610      	mov	r0, r2
    4ed0:	4619      	mov	r1, r3
    4ed2:	e72c      	b.n	4d2e <__aeabi_dmul+0x24a>
    4ed4:	ea95 0f0c 	teq	r5, ip
    4ed8:	d106      	bne.n	4ee8 <__aeabi_ddiv+0x1b0>
    4eda:	ea52 3503 	orrs.w	r5, r2, r3, lsl #12
    4ede:	f43f aefd 	beq.w	4cdc <__aeabi_dmul+0x1f8>
    4ee2:	4610      	mov	r0, r2
    4ee4:	4619      	mov	r1, r3
    4ee6:	e722      	b.n	4d2e <__aeabi_dmul+0x24a>
    4ee8:	ea50 0641 	orrs.w	r6, r0, r1, lsl #1
    4eec:	bf18      	it	ne
    4eee:	ea52 0643 	orrsne.w	r6, r2, r3, lsl #1
    4ef2:	f47f aec5 	bne.w	4c80 <__aeabi_dmul+0x19c>
    4ef6:	ea50 0441 	orrs.w	r4, r0, r1, lsl #1
    4efa:	f47f af0d 	bne.w	4d18 <__aeabi_dmul+0x234>
    4efe:	ea52 0543 	orrs.w	r5, r2, r3, lsl #1
    4f02:	f47f aeeb 	bne.w	4cdc <__aeabi_dmul+0x1f8>
    4f06:	e712      	b.n	4d2e <__aeabi_dmul+0x24a>

00004f08 <__aeabi_d2f>:
__aeabi_d2f():
    4f08:	ea4f 0241 	mov.w	r2, r1, lsl #1
    4f0c:	f1b2 43e0 	subs.w	r3, r2, #1879048192	; 0x70000000
    4f10:	bf24      	itt	cs
    4f12:	f5b3 1c00 	subscs.w	ip, r3, #2097152	; 0x200000
    4f16:	f1dc 5cfe 	rsbscs	ip, ip, #532676608	; 0x1fc00000
    4f1a:	d90d      	bls.n	4f38 <__aeabi_d2f+0x30>
    4f1c:	f001 4c00 	and.w	ip, r1, #2147483648	; 0x80000000
    4f20:	ea4f 02c0 	mov.w	r2, r0, lsl #3
    4f24:	ea4c 7050 	orr.w	r0, ip, r0, lsr #29
    4f28:	f1b2 4f00 	cmp.w	r2, #2147483648	; 0x80000000
    4f2c:	eb40 0083 	adc.w	r0, r0, r3, lsl #2
    4f30:	bf08      	it	eq
    4f32:	f020 0001 	biceq.w	r0, r0, #1
    4f36:	4770      	bx	lr
    4f38:	f011 4f80 	tst.w	r1, #1073741824	; 0x40000000
    4f3c:	d121      	bne.n	4f82 <__aeabi_d2f+0x7a>
    4f3e:	f113 7238 	adds.w	r2, r3, #48234496	; 0x2e00000
    4f42:	bfbc      	itt	lt
    4f44:	f001 4000 	andlt.w	r0, r1, #2147483648	; 0x80000000
    4f48:	4770      	bxlt	lr
    4f4a:	f441 1180 	orr.w	r1, r1, #1048576	; 0x100000
    4f4e:	ea4f 5252 	mov.w	r2, r2, lsr #21
    4f52:	f1c2 0218 	rsb	r2, r2, #24
    4f56:	f1c2 0c20 	rsb	ip, r2, #32
    4f5a:	fa10 f30c 	lsls.w	r3, r0, ip
    4f5e:	fa20 f002 	lsr.w	r0, r0, r2
    4f62:	bf18      	it	ne
    4f64:	f040 0001 	orrne.w	r0, r0, #1
    4f68:	ea4f 23c1 	mov.w	r3, r1, lsl #11
    4f6c:	ea4f 23d3 	mov.w	r3, r3, lsr #11
    4f70:	fa03 fc0c 	lsl.w	ip, r3, ip
    4f74:	ea40 000c 	orr.w	r0, r0, ip
    4f78:	fa23 f302 	lsr.w	r3, r3, r2
    4f7c:	ea4f 0343 	mov.w	r3, r3, lsl #1
    4f80:	e7cc      	b.n	4f1c <__aeabi_d2f+0x14>
    4f82:	ea7f 5362 	mvns.w	r3, r2, asr #21
    4f86:	d107      	bne.n	4f98 <__aeabi_d2f+0x90>
    4f88:	ea50 3301 	orrs.w	r3, r0, r1, lsl #12
    4f8c:	bf1e      	ittt	ne
    4f8e:	f04f 40fe 	movne.w	r0, #2130706432	; 0x7f000000
    4f92:	f440 0040 	orrne.w	r0, r0, #12582912	; 0xc00000
    4f96:	4770      	bxne	lr
    4f98:	f001 4000 	and.w	r0, r1, #2147483648	; 0x80000000
    4f9c:	f040 40fe 	orr.w	r0, r0, #2130706432	; 0x7f000000
    4fa0:	f440 0000 	orr.w	r0, r0, #8388608	; 0x800000
    4fa4:	4770      	bx	lr
    4fa6:	bf00      	nop

00004fa8 <__aeabi_frsub>:
__aeabi_frsub():
    4fa8:	f080 4000 	eor.w	r0, r0, #2147483648	; 0x80000000
    4fac:	e002      	b.n	4fb4 <__addsf3>
    4fae:	bf00      	nop

00004fb0 <__aeabi_fsub>:
    4fb0:	f081 4100 	eor.w	r1, r1, #2147483648	; 0x80000000

00004fb4 <__addsf3>:
    4fb4:	0042      	lsls	r2, r0, #1
    4fb6:	bf1f      	itttt	ne
    4fb8:	ea5f 0341 	movsne.w	r3, r1, lsl #1
    4fbc:	ea92 0f03 	teqne	r2, r3
    4fc0:	ea7f 6c22 	mvnsne.w	ip, r2, asr #24
    4fc4:	ea7f 6c23 	mvnsne.w	ip, r3, asr #24
    4fc8:	d06a      	beq.n	50a0 <__addsf3+0xec>
    4fca:	ea4f 6212 	mov.w	r2, r2, lsr #24
    4fce:	ebd2 6313 	rsbs	r3, r2, r3, lsr #24
    4fd2:	bfc1      	itttt	gt
    4fd4:	18d2      	addgt	r2, r2, r3
    4fd6:	4041      	eorgt	r1, r0
    4fd8:	4048      	eorgt	r0, r1
    4fda:	4041      	eorgt	r1, r0
    4fdc:	bfb8      	it	lt
    4fde:	425b      	neglt	r3, r3
    4fe0:	2b19      	cmp	r3, #25
    4fe2:	bf88      	it	hi
    4fe4:	4770      	bxhi	lr
    4fe6:	f010 4f00 	tst.w	r0, #2147483648	; 0x80000000
    4fea:	f440 0000 	orr.w	r0, r0, #8388608	; 0x800000
    4fee:	f020 407f 	bic.w	r0, r0, #4278190080	; 0xff000000
    4ff2:	bf18      	it	ne
    4ff4:	4240      	negne	r0, r0
    4ff6:	f011 4f00 	tst.w	r1, #2147483648	; 0x80000000
    4ffa:	f441 0100 	orr.w	r1, r1, #8388608	; 0x800000
    4ffe:	f021 417f 	bic.w	r1, r1, #4278190080	; 0xff000000
    5002:	bf18      	it	ne
    5004:	4249      	negne	r1, r1
    5006:	ea92 0f03 	teq	r2, r3
    500a:	d03f      	beq.n	508c <__addsf3+0xd8>
    500c:	f1a2 0201 	sub.w	r2, r2, #1
    5010:	fa41 fc03 	asr.w	ip, r1, r3
    5014:	eb10 000c 	adds.w	r0, r0, ip
    5018:	f1c3 0320 	rsb	r3, r3, #32
    501c:	fa01 f103 	lsl.w	r1, r1, r3
    5020:	f000 4300 	and.w	r3, r0, #2147483648	; 0x80000000
    5024:	d502      	bpl.n	502c <__addsf3+0x78>
    5026:	4249      	negs	r1, r1
    5028:	eb60 0040 	sbc.w	r0, r0, r0, lsl #1
    502c:	f5b0 0f00 	cmp.w	r0, #8388608	; 0x800000
    5030:	d313      	bcc.n	505a <__addsf3+0xa6>
    5032:	f1b0 7f80 	cmp.w	r0, #16777216	; 0x1000000
    5036:	d306      	bcc.n	5046 <__addsf3+0x92>
    5038:	0840      	lsrs	r0, r0, #1
    503a:	ea4f 0131 	mov.w	r1, r1, rrx
    503e:	f102 0201 	add.w	r2, r2, #1
    5042:	2afe      	cmp	r2, #254	; 0xfe
    5044:	d251      	bcs.n	50ea <__addsf3+0x136>
    5046:	f1b1 4f00 	cmp.w	r1, #2147483648	; 0x80000000
    504a:	eb40 50c2 	adc.w	r0, r0, r2, lsl #23
    504e:	bf08      	it	eq
    5050:	f020 0001 	biceq.w	r0, r0, #1
    5054:	ea40 0003 	orr.w	r0, r0, r3
    5058:	4770      	bx	lr
    505a:	0049      	lsls	r1, r1, #1
    505c:	eb40 0000 	adc.w	r0, r0, r0
    5060:	f410 0f00 	tst.w	r0, #8388608	; 0x800000
    5064:	f1a2 0201 	sub.w	r2, r2, #1
    5068:	d1ed      	bne.n	5046 <__addsf3+0x92>
    506a:	fab0 fc80 	clz	ip, r0
    506e:	f1ac 0c08 	sub.w	ip, ip, #8
    5072:	ebb2 020c 	subs.w	r2, r2, ip
    5076:	fa00 f00c 	lsl.w	r0, r0, ip
    507a:	bfaa      	itet	ge
    507c:	eb00 50c2 	addge.w	r0, r0, r2, lsl #23
    5080:	4252      	neglt	r2, r2
    5082:	4318      	orrge	r0, r3
    5084:	bfbc      	itt	lt
    5086:	40d0      	lsrlt	r0, r2
    5088:	4318      	orrlt	r0, r3
    508a:	4770      	bx	lr
    508c:	f092 0f00 	teq	r2, #0
    5090:	f481 0100 	eor.w	r1, r1, #8388608	; 0x800000
    5094:	bf06      	itte	eq
    5096:	f480 0000 	eoreq.w	r0, r0, #8388608	; 0x800000
    509a:	3201      	addeq	r2, #1
    509c:	3b01      	subne	r3, #1
    509e:	e7b5      	b.n	500c <__addsf3+0x58>
    50a0:	ea4f 0341 	mov.w	r3, r1, lsl #1
    50a4:	ea7f 6c22 	mvns.w	ip, r2, asr #24
    50a8:	bf18      	it	ne
    50aa:	ea7f 6c23 	mvnsne.w	ip, r3, asr #24
    50ae:	d021      	beq.n	50f4 <__addsf3+0x140>
    50b0:	ea92 0f03 	teq	r2, r3
    50b4:	d004      	beq.n	50c0 <__addsf3+0x10c>
    50b6:	f092 0f00 	teq	r2, #0
    50ba:	bf08      	it	eq
    50bc:	4608      	moveq	r0, r1
    50be:	4770      	bx	lr
    50c0:	ea90 0f01 	teq	r0, r1
    50c4:	bf1c      	itt	ne
    50c6:	2000      	movne	r0, #0
    50c8:	4770      	bxne	lr
    50ca:	f012 4f7f 	tst.w	r2, #4278190080	; 0xff000000
    50ce:	d104      	bne.n	50da <__addsf3+0x126>
    50d0:	0040      	lsls	r0, r0, #1
    50d2:	bf28      	it	cs
    50d4:	f040 4000 	orrcs.w	r0, r0, #2147483648	; 0x80000000
    50d8:	4770      	bx	lr
    50da:	f112 7200 	adds.w	r2, r2, #33554432	; 0x2000000
    50de:	bf3c      	itt	cc
    50e0:	f500 0000 	addcc.w	r0, r0, #8388608	; 0x800000
    50e4:	4770      	bxcc	lr
    50e6:	f000 4300 	and.w	r3, r0, #2147483648	; 0x80000000
    50ea:	f043 40fe 	orr.w	r0, r3, #2130706432	; 0x7f000000
    50ee:	f440 0000 	orr.w	r0, r0, #8388608	; 0x800000
    50f2:	4770      	bx	lr
    50f4:	ea7f 6222 	mvns.w	r2, r2, asr #24
    50f8:	bf16      	itet	ne
    50fa:	4608      	movne	r0, r1
    50fc:	ea7f 6323 	mvnseq.w	r3, r3, asr #24
    5100:	4601      	movne	r1, r0
    5102:	0242      	lsls	r2, r0, #9
    5104:	bf06      	itte	eq
    5106:	ea5f 2341 	movseq.w	r3, r1, lsl #9
    510a:	ea90 0f01 	teqeq	r0, r1
    510e:	f440 0080 	orrne.w	r0, r0, #4194304	; 0x400000
    5112:	4770      	bx	lr

00005114 <__aeabi_ui2f>:
__aeabi_ui2f():
    5114:	f04f 0300 	mov.w	r3, #0
    5118:	e004      	b.n	5124 <__aeabi_i2f+0x8>
    511a:	bf00      	nop

0000511c <__aeabi_i2f>:
    511c:	f010 4300 	ands.w	r3, r0, #2147483648	; 0x80000000
    5120:	bf48      	it	mi
    5122:	4240      	negmi	r0, r0
    5124:	ea5f 0c00 	movs.w	ip, r0
    5128:	bf08      	it	eq
    512a:	4770      	bxeq	lr
    512c:	f043 4396 	orr.w	r3, r3, #1258291200	; 0x4b000000
    5130:	4601      	mov	r1, r0
    5132:	f04f 0000 	mov.w	r0, #0
    5136:	e01c      	b.n	5172 <__aeabi_l2f+0x2a>

00005138 <__aeabi_ul2f>:
__floatundisf():
    5138:	ea50 0201 	orrs.w	r2, r0, r1
    513c:	bf08      	it	eq
    513e:	4770      	bxeq	lr
    5140:	f04f 0300 	mov.w	r3, #0
    5144:	e00a      	b.n	515c <__aeabi_l2f+0x14>
    5146:	bf00      	nop

00005148 <__aeabi_l2f>:
    5148:	ea50 0201 	orrs.w	r2, r0, r1
    514c:	bf08      	it	eq
    514e:	4770      	bxeq	lr
    5150:	f011 4300 	ands.w	r3, r1, #2147483648	; 0x80000000
    5154:	d502      	bpl.n	515c <__aeabi_l2f+0x14>
    5156:	4240      	negs	r0, r0
    5158:	eb61 0141 	sbc.w	r1, r1, r1, lsl #1
    515c:	ea5f 0c01 	movs.w	ip, r1
    5160:	bf02      	ittt	eq
    5162:	4684      	moveq	ip, r0
    5164:	4601      	moveq	r1, r0
    5166:	2000      	moveq	r0, #0
    5168:	f043 43b6 	orr.w	r3, r3, #1526726656	; 0x5b000000
    516c:	bf08      	it	eq
    516e:	f1a3 5380 	subeq.w	r3, r3, #268435456	; 0x10000000
    5172:	f5a3 0300 	sub.w	r3, r3, #8388608	; 0x800000
    5176:	fabc f28c 	clz	r2, ip
    517a:	3a08      	subs	r2, #8
    517c:	eba3 53c2 	sub.w	r3, r3, r2, lsl #23
    5180:	db10      	blt.n	51a4 <__aeabi_l2f+0x5c>
    5182:	fa01 fc02 	lsl.w	ip, r1, r2
    5186:	4463      	add	r3, ip
    5188:	fa00 fc02 	lsl.w	ip, r0, r2
    518c:	f1c2 0220 	rsb	r2, r2, #32
    5190:	f1bc 4f00 	cmp.w	ip, #2147483648	; 0x80000000
    5194:	fa20 f202 	lsr.w	r2, r0, r2
    5198:	eb43 0002 	adc.w	r0, r3, r2
    519c:	bf08      	it	eq
    519e:	f020 0001 	biceq.w	r0, r0, #1
    51a2:	4770      	bx	lr
    51a4:	f102 0220 	add.w	r2, r2, #32
    51a8:	fa01 fc02 	lsl.w	ip, r1, r2
    51ac:	f1c2 0220 	rsb	r2, r2, #32
    51b0:	ea50 004c 	orrs.w	r0, r0, ip, lsl #1
    51b4:	fa21 f202 	lsr.w	r2, r1, r2
    51b8:	eb43 0002 	adc.w	r0, r3, r2
    51bc:	bf08      	it	eq
    51be:	ea20 70dc 	biceq.w	r0, r0, ip, lsr #31
    51c2:	4770      	bx	lr

000051c4 <__aeabi_fmul>:
__mulsf3():
    51c4:	f04f 0cff 	mov.w	ip, #255	; 0xff
    51c8:	ea1c 52d0 	ands.w	r2, ip, r0, lsr #23
    51cc:	bf1e      	ittt	ne
    51ce:	ea1c 53d1 	andsne.w	r3, ip, r1, lsr #23
    51d2:	ea92 0f0c 	teqne	r2, ip
    51d6:	ea93 0f0c 	teqne	r3, ip
    51da:	d06f      	beq.n	52bc <__aeabi_fmul+0xf8>
    51dc:	441a      	add	r2, r3
    51de:	ea80 0c01 	eor.w	ip, r0, r1
    51e2:	0240      	lsls	r0, r0, #9
    51e4:	bf18      	it	ne
    51e6:	ea5f 2141 	movsne.w	r1, r1, lsl #9
    51ea:	d01e      	beq.n	522a <__aeabi_fmul+0x66>
    51ec:	f04f 6300 	mov.w	r3, #134217728	; 0x8000000
    51f0:	ea43 1050 	orr.w	r0, r3, r0, lsr #5
    51f4:	ea43 1151 	orr.w	r1, r3, r1, lsr #5
    51f8:	fba0 3101 	umull	r3, r1, r0, r1
    51fc:	f00c 4000 	and.w	r0, ip, #2147483648	; 0x80000000
    5200:	f5b1 0f00 	cmp.w	r1, #8388608	; 0x800000
    5204:	bf3e      	ittt	cc
    5206:	0049      	lslcc	r1, r1, #1
    5208:	ea41 71d3 	orrcc.w	r1, r1, r3, lsr #31
    520c:	005b      	lslcc	r3, r3, #1
    520e:	ea40 0001 	orr.w	r0, r0, r1
    5212:	f162 027f 	sbc.w	r2, r2, #127	; 0x7f
    5216:	2afd      	cmp	r2, #253	; 0xfd
    5218:	d81d      	bhi.n	5256 <__aeabi_fmul+0x92>
    521a:	f1b3 4f00 	cmp.w	r3, #2147483648	; 0x80000000
    521e:	eb40 50c2 	adc.w	r0, r0, r2, lsl #23
    5222:	bf08      	it	eq
    5224:	f020 0001 	biceq.w	r0, r0, #1
    5228:	4770      	bx	lr
    522a:	f090 0f00 	teq	r0, #0
    522e:	f00c 4c00 	and.w	ip, ip, #2147483648	; 0x80000000
    5232:	bf08      	it	eq
    5234:	0249      	lsleq	r1, r1, #9
    5236:	ea4c 2050 	orr.w	r0, ip, r0, lsr #9
    523a:	ea40 2051 	orr.w	r0, r0, r1, lsr #9
    523e:	3a7f      	subs	r2, #127	; 0x7f
    5240:	bfc2      	ittt	gt
    5242:	f1d2 03ff 	rsbsgt	r3, r2, #255	; 0xff
    5246:	ea40 50c2 	orrgt.w	r0, r0, r2, lsl #23
    524a:	4770      	bxgt	lr
    524c:	f440 0000 	orr.w	r0, r0, #8388608	; 0x800000
    5250:	f04f 0300 	mov.w	r3, #0
    5254:	3a01      	subs	r2, #1
    5256:	dc5d      	bgt.n	5314 <__aeabi_fmul+0x150>
    5258:	f112 0f19 	cmn.w	r2, #25
    525c:	bfdc      	itt	le
    525e:	f000 4000 	andle.w	r0, r0, #2147483648	; 0x80000000
    5262:	4770      	bxle	lr
    5264:	f1c2 0200 	rsb	r2, r2, #0
    5268:	0041      	lsls	r1, r0, #1
    526a:	fa21 f102 	lsr.w	r1, r1, r2
    526e:	f1c2 0220 	rsb	r2, r2, #32
    5272:	fa00 fc02 	lsl.w	ip, r0, r2
    5276:	ea5f 0031 	movs.w	r0, r1, rrx
    527a:	f140 0000 	adc.w	r0, r0, #0
    527e:	ea53 034c 	orrs.w	r3, r3, ip, lsl #1
    5282:	bf08      	it	eq
    5284:	ea20 70dc 	biceq.w	r0, r0, ip, lsr #31
    5288:	4770      	bx	lr
    528a:	f092 0f00 	teq	r2, #0
    528e:	f000 4c00 	and.w	ip, r0, #2147483648	; 0x80000000
    5292:	bf02      	ittt	eq
    5294:	0040      	lsleq	r0, r0, #1
    5296:	f410 0f00 	tsteq.w	r0, #8388608	; 0x800000
    529a:	3a01      	subeq	r2, #1
    529c:	d0f9      	beq.n	5292 <__aeabi_fmul+0xce>
    529e:	ea40 000c 	orr.w	r0, r0, ip
    52a2:	f093 0f00 	teq	r3, #0
    52a6:	f001 4c00 	and.w	ip, r1, #2147483648	; 0x80000000
    52aa:	bf02      	ittt	eq
    52ac:	0049      	lsleq	r1, r1, #1
    52ae:	f411 0f00 	tsteq.w	r1, #8388608	; 0x800000
    52b2:	3b01      	subeq	r3, #1
    52b4:	d0f9      	beq.n	52aa <__aeabi_fmul+0xe6>
    52b6:	ea41 010c 	orr.w	r1, r1, ip
    52ba:	e78f      	b.n	51dc <__aeabi_fmul+0x18>
    52bc:	ea0c 53d1 	and.w	r3, ip, r1, lsr #23
    52c0:	ea92 0f0c 	teq	r2, ip
    52c4:	bf18      	it	ne
    52c6:	ea93 0f0c 	teqne	r3, ip
    52ca:	d00a      	beq.n	52e2 <__aeabi_fmul+0x11e>
    52cc:	f030 4c00 	bics.w	ip, r0, #2147483648	; 0x80000000
    52d0:	bf18      	it	ne
    52d2:	f031 4c00 	bicsne.w	ip, r1, #2147483648	; 0x80000000
    52d6:	d1d8      	bne.n	528a <__aeabi_fmul+0xc6>
    52d8:	ea80 0001 	eor.w	r0, r0, r1
    52dc:	f000 4000 	and.w	r0, r0, #2147483648	; 0x80000000
    52e0:	4770      	bx	lr
    52e2:	f090 0f00 	teq	r0, #0
    52e6:	bf17      	itett	ne
    52e8:	f090 4f00 	teqne	r0, #2147483648	; 0x80000000
    52ec:	4608      	moveq	r0, r1
    52ee:	f091 0f00 	teqne	r1, #0
    52f2:	f091 4f00 	teqne	r1, #2147483648	; 0x80000000
    52f6:	d014      	beq.n	5322 <__aeabi_fmul+0x15e>
    52f8:	ea92 0f0c 	teq	r2, ip
    52fc:	d101      	bne.n	5302 <__aeabi_fmul+0x13e>
    52fe:	0242      	lsls	r2, r0, #9
    5300:	d10f      	bne.n	5322 <__aeabi_fmul+0x15e>
    5302:	ea93 0f0c 	teq	r3, ip
    5306:	d103      	bne.n	5310 <__aeabi_fmul+0x14c>
    5308:	024b      	lsls	r3, r1, #9
    530a:	bf18      	it	ne
    530c:	4608      	movne	r0, r1
    530e:	d108      	bne.n	5322 <__aeabi_fmul+0x15e>
    5310:	ea80 0001 	eor.w	r0, r0, r1
    5314:	f000 4000 	and.w	r0, r0, #2147483648	; 0x80000000
    5318:	f040 40fe 	orr.w	r0, r0, #2130706432	; 0x7f000000
    531c:	f440 0000 	orr.w	r0, r0, #8388608	; 0x800000
    5320:	4770      	bx	lr
    5322:	f040 40fe 	orr.w	r0, r0, #2130706432	; 0x7f000000
    5326:	f440 0040 	orr.w	r0, r0, #12582912	; 0xc00000
    532a:	4770      	bx	lr

0000532c <__aeabi_fdiv>:
__divsf3():
    532c:	f04f 0cff 	mov.w	ip, #255	; 0xff
    5330:	ea1c 52d0 	ands.w	r2, ip, r0, lsr #23
    5334:	bf1e      	ittt	ne
    5336:	ea1c 53d1 	andsne.w	r3, ip, r1, lsr #23
    533a:	ea92 0f0c 	teqne	r2, ip
    533e:	ea93 0f0c 	teqne	r3, ip
    5342:	d069      	beq.n	5418 <__aeabi_fdiv+0xec>
    5344:	eba2 0203 	sub.w	r2, r2, r3
    5348:	ea80 0c01 	eor.w	ip, r0, r1
    534c:	0249      	lsls	r1, r1, #9
    534e:	ea4f 2040 	mov.w	r0, r0, lsl #9
    5352:	d037      	beq.n	53c4 <__aeabi_fdiv+0x98>
    5354:	f04f 5380 	mov.w	r3, #268435456	; 0x10000000
    5358:	ea43 1111 	orr.w	r1, r3, r1, lsr #4
    535c:	ea43 1310 	orr.w	r3, r3, r0, lsr #4
    5360:	f00c 4000 	and.w	r0, ip, #2147483648	; 0x80000000
    5364:	428b      	cmp	r3, r1
    5366:	bf38      	it	cc
    5368:	005b      	lslcc	r3, r3, #1
    536a:	f142 027d 	adc.w	r2, r2, #125	; 0x7d
    536e:	f44f 0c00 	mov.w	ip, #8388608	; 0x800000
    5372:	428b      	cmp	r3, r1
    5374:	bf24      	itt	cs
    5376:	1a5b      	subcs	r3, r3, r1
    5378:	ea40 000c 	orrcs.w	r0, r0, ip
    537c:	ebb3 0f51 	cmp.w	r3, r1, lsr #1
    5380:	bf24      	itt	cs
    5382:	eba3 0351 	subcs.w	r3, r3, r1, lsr #1
    5386:	ea40 005c 	orrcs.w	r0, r0, ip, lsr #1
    538a:	ebb3 0f91 	cmp.w	r3, r1, lsr #2
    538e:	bf24      	itt	cs
    5390:	eba3 0391 	subcs.w	r3, r3, r1, lsr #2
    5394:	ea40 009c 	orrcs.w	r0, r0, ip, lsr #2
    5398:	ebb3 0fd1 	cmp.w	r3, r1, lsr #3
    539c:	bf24      	itt	cs
    539e:	eba3 03d1 	subcs.w	r3, r3, r1, lsr #3
    53a2:	ea40 00dc 	orrcs.w	r0, r0, ip, lsr #3
    53a6:	011b      	lsls	r3, r3, #4
    53a8:	bf18      	it	ne
    53aa:	ea5f 1c1c 	movsne.w	ip, ip, lsr #4
    53ae:	d1e0      	bne.n	5372 <__aeabi_fdiv+0x46>
    53b0:	2afd      	cmp	r2, #253	; 0xfd
    53b2:	f63f af50 	bhi.w	5256 <__aeabi_fmul+0x92>
    53b6:	428b      	cmp	r3, r1
    53b8:	eb40 50c2 	adc.w	r0, r0, r2, lsl #23
    53bc:	bf08      	it	eq
    53be:	f020 0001 	biceq.w	r0, r0, #1
    53c2:	4770      	bx	lr
    53c4:	f00c 4c00 	and.w	ip, ip, #2147483648	; 0x80000000
    53c8:	ea4c 2050 	orr.w	r0, ip, r0, lsr #9
    53cc:	327f      	adds	r2, #127	; 0x7f
    53ce:	bfc2      	ittt	gt
    53d0:	f1d2 03ff 	rsbsgt	r3, r2, #255	; 0xff
    53d4:	ea40 50c2 	orrgt.w	r0, r0, r2, lsl #23
    53d8:	4770      	bxgt	lr
    53da:	f440 0000 	orr.w	r0, r0, #8388608	; 0x800000
    53de:	f04f 0300 	mov.w	r3, #0
    53e2:	3a01      	subs	r2, #1
    53e4:	e737      	b.n	5256 <__aeabi_fmul+0x92>
    53e6:	f092 0f00 	teq	r2, #0
    53ea:	f000 4c00 	and.w	ip, r0, #2147483648	; 0x80000000
    53ee:	bf02      	ittt	eq
    53f0:	0040      	lsleq	r0, r0, #1
    53f2:	f410 0f00 	tsteq.w	r0, #8388608	; 0x800000
    53f6:	3a01      	subeq	r2, #1
    53f8:	d0f9      	beq.n	53ee <__aeabi_fdiv+0xc2>
    53fa:	ea40 000c 	orr.w	r0, r0, ip
    53fe:	f093 0f00 	teq	r3, #0
    5402:	f001 4c00 	and.w	ip, r1, #2147483648	; 0x80000000
    5406:	bf02      	ittt	eq
    5408:	0049      	lsleq	r1, r1, #1
    540a:	f411 0f00 	tsteq.w	r1, #8388608	; 0x800000
    540e:	3b01      	subeq	r3, #1
    5410:	d0f9      	beq.n	5406 <__aeabi_fdiv+0xda>
    5412:	ea41 010c 	orr.w	r1, r1, ip
    5416:	e795      	b.n	5344 <__aeabi_fdiv+0x18>
    5418:	ea0c 53d1 	and.w	r3, ip, r1, lsr #23
    541c:	ea92 0f0c 	teq	r2, ip
    5420:	d108      	bne.n	5434 <__aeabi_fdiv+0x108>
    5422:	0242      	lsls	r2, r0, #9
    5424:	f47f af7d 	bne.w	5322 <__aeabi_fmul+0x15e>
    5428:	ea93 0f0c 	teq	r3, ip
    542c:	f47f af70 	bne.w	5310 <__aeabi_fmul+0x14c>
    5430:	4608      	mov	r0, r1
    5432:	e776      	b.n	5322 <__aeabi_fmul+0x15e>
    5434:	ea93 0f0c 	teq	r3, ip
    5438:	d104      	bne.n	5444 <__aeabi_fdiv+0x118>
    543a:	024b      	lsls	r3, r1, #9
    543c:	f43f af4c 	beq.w	52d8 <__aeabi_fmul+0x114>
    5440:	4608      	mov	r0, r1
    5442:	e76e      	b.n	5322 <__aeabi_fmul+0x15e>
    5444:	f030 4c00 	bics.w	ip, r0, #2147483648	; 0x80000000
    5448:	bf18      	it	ne
    544a:	f031 4c00 	bicsne.w	ip, r1, #2147483648	; 0x80000000
    544e:	d1ca      	bne.n	53e6 <__aeabi_fdiv+0xba>
    5450:	f030 4200 	bics.w	r2, r0, #2147483648	; 0x80000000
    5454:	f47f af5c 	bne.w	5310 <__aeabi_fmul+0x14c>
    5458:	f031 4300 	bics.w	r3, r1, #2147483648	; 0x80000000
    545c:	f47f af3c 	bne.w	52d8 <__aeabi_fmul+0x114>
    5460:	e75f      	b.n	5322 <__aeabi_fmul+0x15e>
    5462:	bf00      	nop

00005464 <__gesf2>:
__gtsf2():
    5464:	f04f 3cff 	mov.w	ip, #4294967295
    5468:	e006      	b.n	5478 <__cmpsf2+0x4>
    546a:	bf00      	nop

0000546c <__lesf2>:
    546c:	f04f 0c01 	mov.w	ip, #1
    5470:	e002      	b.n	5478 <__cmpsf2+0x4>
    5472:	bf00      	nop

00005474 <__cmpsf2>:
    5474:	f04f 0c01 	mov.w	ip, #1
    5478:	f84d cd04 	str.w	ip, [sp, #-4]!
    547c:	ea4f 0240 	mov.w	r2, r0, lsl #1
    5480:	ea4f 0341 	mov.w	r3, r1, lsl #1
    5484:	ea7f 6c22 	mvns.w	ip, r2, asr #24
    5488:	bf18      	it	ne
    548a:	ea7f 6c23 	mvnsne.w	ip, r3, asr #24
    548e:	d011      	beq.n	54b4 <__cmpsf2+0x40>
    5490:	b001      	add	sp, #4
    5492:	ea52 0c53 	orrs.w	ip, r2, r3, lsr #1
    5496:	bf18      	it	ne
    5498:	ea90 0f01 	teqne	r0, r1
    549c:	bf58      	it	pl
    549e:	ebb2 0003 	subspl.w	r0, r2, r3
    54a2:	bf88      	it	hi
    54a4:	17c8      	asrhi	r0, r1, #31
    54a6:	bf38      	it	cc
    54a8:	ea6f 70e1 	mvncc.w	r0, r1, asr #31
    54ac:	bf18      	it	ne
    54ae:	f040 0001 	orrne.w	r0, r0, #1
    54b2:	4770      	bx	lr
    54b4:	ea7f 6c22 	mvns.w	ip, r2, asr #24
    54b8:	d102      	bne.n	54c0 <__cmpsf2+0x4c>
    54ba:	ea5f 2c40 	movs.w	ip, r0, lsl #9
    54be:	d105      	bne.n	54cc <__cmpsf2+0x58>
    54c0:	ea7f 6c23 	mvns.w	ip, r3, asr #24
    54c4:	d1e4      	bne.n	5490 <__cmpsf2+0x1c>
    54c6:	ea5f 2c41 	movs.w	ip, r1, lsl #9
    54ca:	d0e1      	beq.n	5490 <__cmpsf2+0x1c>
    54cc:	f85d 0b04 	ldr.w	r0, [sp], #4
    54d0:	4770      	bx	lr
__nesf2():
    54d2:	bf00      	nop

000054d4 <__aeabi_cfrcmple>:
__aeabi_cfrcmple():
    54d4:	4684      	mov	ip, r0
    54d6:	4608      	mov	r0, r1
    54d8:	4661      	mov	r1, ip
    54da:	e7ff      	b.n	54dc <__aeabi_cfcmpeq>

000054dc <__aeabi_cfcmpeq>:
    54dc:	b50f      	push	{r0, r1, r2, r3, lr}
    54de:	f7ff ffc9 	bl	5474 <__cmpsf2>
    54e2:	2800      	cmp	r0, #0
    54e4:	bf48      	it	mi
    54e6:	f110 0f00 	cmnmi.w	r0, #0
    54ea:	bd0f      	pop	{r0, r1, r2, r3, pc}

000054ec <__aeabi_fcmpeq>:
__aeabi_fcmpeq():
    54ec:	f84d ed08 	str.w	lr, [sp, #-8]!
    54f0:	f7ff fff4 	bl	54dc <__aeabi_cfcmpeq>
    54f4:	bf0c      	ite	eq
    54f6:	2001      	moveq	r0, #1
    54f8:	2000      	movne	r0, #0
    54fa:	f85d fb08 	ldr.w	pc, [sp], #8
    54fe:	bf00      	nop

00005500 <__aeabi_fcmplt>:
__aeabi_fcmplt():
    5500:	f84d ed08 	str.w	lr, [sp, #-8]!
    5504:	f7ff ffea 	bl	54dc <__aeabi_cfcmpeq>
    5508:	bf34      	ite	cc
    550a:	2001      	movcc	r0, #1
    550c:	2000      	movcs	r0, #0
    550e:	f85d fb08 	ldr.w	pc, [sp], #8
    5512:	bf00      	nop

00005514 <__aeabi_fcmple>:
__aeabi_fcmple():
    5514:	f84d ed08 	str.w	lr, [sp, #-8]!
    5518:	f7ff ffe0 	bl	54dc <__aeabi_cfcmpeq>
    551c:	bf94      	ite	ls
    551e:	2001      	movls	r0, #1
    5520:	2000      	movhi	r0, #0
    5522:	f85d fb08 	ldr.w	pc, [sp], #8
    5526:	bf00      	nop

00005528 <__aeabi_fcmpge>:
__aeabi_fcmpge():
    5528:	f84d ed08 	str.w	lr, [sp, #-8]!
    552c:	f7ff ffd2 	bl	54d4 <__aeabi_cfrcmple>
    5530:	bf94      	ite	ls
    5532:	2001      	movls	r0, #1
    5534:	2000      	movhi	r0, #0
    5536:	f85d fb08 	ldr.w	pc, [sp], #8
    553a:	bf00      	nop

0000553c <__aeabi_fcmpgt>:
__aeabi_fcmpgt():
    553c:	f84d ed08 	str.w	lr, [sp, #-8]!
    5540:	f7ff ffc8 	bl	54d4 <__aeabi_cfrcmple>
    5544:	bf34      	ite	cc
    5546:	2001      	movcc	r0, #1
    5548:	2000      	movcs	r0, #0
    554a:	f85d fb08 	ldr.w	pc, [sp], #8
    554e:	bf00      	nop

00005550 <__libc_init_array>:
__libc_init_array():
    5550:	4b0e      	ldr	r3, [pc, #56]	; (558c <__libc_init_array+0x3c>)
    5552:	b570      	push	{r4, r5, r6, lr}
    5554:	461e      	mov	r6, r3
    5556:	4c0e      	ldr	r4, [pc, #56]	; (5590 <__libc_init_array+0x40>)
    5558:	2500      	movs	r5, #0
    555a:	1ae4      	subs	r4, r4, r3
    555c:	10a4      	asrs	r4, r4, #2
    555e:	42a5      	cmp	r5, r4
    5560:	d004      	beq.n	556c <__libc_init_array+0x1c>
    5562:	f856 3025 	ldr.w	r3, [r6, r5, lsl #2]
    5566:	4798      	blx	r3
    5568:	3501      	adds	r5, #1
    556a:	e7f8      	b.n	555e <__libc_init_array+0xe>
    556c:	f000 f8ba 	bl	56e4 <_init>
    5570:	4b08      	ldr	r3, [pc, #32]	; (5594 <__libc_init_array+0x44>)
    5572:	4c09      	ldr	r4, [pc, #36]	; (5598 <__libc_init_array+0x48>)
    5574:	461e      	mov	r6, r3
    5576:	1ae4      	subs	r4, r4, r3
    5578:	10a4      	asrs	r4, r4, #2
    557a:	2500      	movs	r5, #0
    557c:	42a5      	cmp	r5, r4
    557e:	d004      	beq.n	558a <__libc_init_array+0x3a>
    5580:	f856 3025 	ldr.w	r3, [r6, r5, lsl #2]
    5584:	4798      	blx	r3
    5586:	3501      	adds	r5, #1
    5588:	e7f8      	b.n	557c <__libc_init_array+0x2c>
    558a:	bd70      	pop	{r4, r5, r6, pc}
    558c:	000056fc 	.word	0x000056fc
    5590:	000056fc 	.word	0x000056fc
    5594:	000056fc 	.word	0x000056fc
    5598:	00005700 	.word	0x00005700

0000559c <memcpy>:
memcpy():
    559c:	b510      	push	{r4, lr}
    559e:	1e43      	subs	r3, r0, #1
    55a0:	440a      	add	r2, r1
    55a2:	4291      	cmp	r1, r2
    55a4:	d004      	beq.n	55b0 <memcpy+0x14>
    55a6:	f811 4b01 	ldrb.w	r4, [r1], #1
    55aa:	f803 4f01 	strb.w	r4, [r3, #1]!
    55ae:	e7f8      	b.n	55a2 <memcpy+0x6>
    55b0:	bd10      	pop	{r4, pc}

000055b2 <memset>:
memset():
    55b2:	4603      	mov	r3, r0
    55b4:	4402      	add	r2, r0
    55b6:	4293      	cmp	r3, r2
    55b8:	d002      	beq.n	55c0 <memset+0xe>
    55ba:	f803 1b01 	strb.w	r1, [r3], #1
    55be:	e7fa      	b.n	55b6 <memset+0x4>
    55c0:	4770      	bx	lr

000055c2 <strcmp>:
strcmp():
    55c2:	f810 2b01 	ldrb.w	r2, [r0], #1
    55c6:	f811 3b01 	ldrb.w	r3, [r1], #1
    55ca:	2a01      	cmp	r2, #1
    55cc:	bf28      	it	cs
    55ce:	429a      	cmpcs	r2, r3
    55d0:	d0f7      	beq.n	55c2 <strcmp>
    55d2:	1ad0      	subs	r0, r2, r3
    55d4:	4770      	bx	lr
    55d6:	0000      	movs	r0, r0
$d():
    55d8:	44414544 	.word	0x44414544
    55dc:	46454542 	.word	0x46454542
    55e0:	00000000 	.word	0x00000000

000055e4 <mavlink_message_crcs.7504>:
    55e4:	00897c32 7768d9ed 59000000 00000000     2|....hw...Y....
    55f4:	00000000 a8dc9fd6 90aa1718 f6277343     ............Cs'.
    5604:	f4ed68b9 fe09d4de 841c1ce6 990be8dd     .h..............
    5614:	c44e2729 030f0000 00000000 33b79900     )'N............3
    5624:	1594763b 007cf300 9e142600 00008f98     ;v....|..&......
    5634:	16316a00 96058c8f 3fb7e700 00000036     .j1........?6...
    5644:	00000000 d09e66af 6c8a5d38 2254b920     .....f..8].l .T"
    5654:	04ed7cae 7438804c facbed86 19dccb57     .|..L.8t....W...
    5664:	df1d2ee2 cbe50655 a86dc301 83482fb5     ....U.....m../H.
    5674:	9a67007f 0000c8b2 00000000 00000000     ..g.............
	...
    56c8:	69a30000 00002397 00000000 55685a00     ...i.#.......ZhU
    56d8:	00b8825f aa31cc08 002e532c              _.....1.,S..

000056e4 <_init>:
$t():
    56e4:	b5f8      	push	{r3, r4, r5, r6, r7, lr}
    56e6:	bf00      	nop
    56e8:	bcf8      	pop	{r3, r4, r5, r6, r7}
    56ea:	bc08      	pop	{r3}
    56ec:	469e      	mov	lr, r3
    56ee:	4770      	bx	lr

000056f0 <_fini>:
    56f0:	b5f8      	push	{r3, r4, r5, r6, r7, lr}
    56f2:	bf00      	nop
    56f4:	bcf8      	pop	{r3, r4, r5, r6, r7}
    56f6:	bc08      	pop	{r3}
    56f8:	469e      	mov	lr, r3
    56fa:	4770      	bx	lr

000056fc <__frame_dummy_init_array_entry>:
$d():
    56fc:	0595 0000                                   ....

00005700 <__do_global_dtors_aux_fini_array_entry>:
    5700:	0571 0000 0000 0000 0000 0000 0000 0000     q...............
